

Microchip MPLAB XC8 Assembler V2.45 build 20230818022343 
                                                                                               Wed Mar 06 00:01:10 2024

Microchip MPLAB XC8 C Compiler v2.45 (Free license) build 20230818022343 Og1 
     1                           	processor	18F4620
     2                           	fnconf	rparam,??,?,0
     3                           	pagewidth 120
     4                           	opt	flic
     5                           	psect	idataCOMRAM,global,class=CODE,delta=1,noexec
     6                           	psect	smallconst,global,reloc=2,class=SMALLCONST,delta=1,noexec
     7                           	psect	cinit,global,reloc=2,class=CODE,delta=1
     8                           	psect	bssCOMRAM,global,class=COMRAM,space=1,delta=1,lowdata,noexec
     9                           	psect	dataCOMRAM,global,class=COMRAM,space=1,delta=1,lowdata,noexec
    10                           	psect	cstackBANK0,global,class=BANK0,space=1,delta=1,lowdata,noexec
    11                           	psect	cstackCOMRAM,global,class=COMRAM,space=1,delta=1,lowdata,noexec
    12                           	psect	text0,global,reloc=2,class=CODE,delta=1
    13                           	psect	text1,global,reloc=2,class=CODE,delta=1
    14                           	psect	text2,global,reloc=2,class=CODE,delta=1
    15                           	psect	text3,global,reloc=2,class=CODE,delta=1
    16                           	psect	text4,global,reloc=2,class=CODE,delta=1
    17                           	psect	text5,global,reloc=2,class=CODE,delta=1
    18                           	psect	text6,global,reloc=2,class=CODE,delta=1,inline
    19                           	psect	text7,global,reloc=2,class=CODE,delta=1,inline
    20                           	psect	text8,global,reloc=2,class=CODE,delta=1,inline
    21                           	psect	intcode,global,reloc=2,class=CODE,delta=1
    22                           	psect	intcode_body,global,reloc=2,class=CODE,delta=1
    23                           	psect	text10,global,reloc=2,class=CODE,delta=1
    24                           	psect	text11,global,reloc=2,class=CODE,delta=1
    25                           	psect	text12,global,reloc=2,class=CODE,delta=1
    26                           	psect	text13,global,reloc=2,class=CODE,delta=1
    27                           	psect	text14,global,reloc=2,class=CODE,delta=1
    28                           	psect	text15,global,reloc=2,class=CODE,delta=1
    29                           	psect	text16,global,reloc=2,class=CODE,delta=1
    30                           	psect	text17,global,reloc=2,class=CODE,delta=1
    31                           	psect	text18,global,reloc=2,class=CODE,delta=1
    32                           	psect	text19,global,reloc=2,class=CODE,delta=1
    33                           	psect	text20,global,reloc=2,class=CODE,delta=1
    34                           	psect	text21,global,reloc=2,class=CODE,delta=1
    35                           	psect	intsave_regs,global,class=BIGRAM,space=1,delta=1,noexec
    36                           	psect	text22,global,reloc=2,class=CODE,delta=1
    37                           	psect	rparam,global,class=COMRAM,space=1,delta=1,noexec
    38                           	psect	temp,global,ovrld,common,class=COMRAM,space=1,delta=1
    39                           	psect	config,global,abs,ovrld,class=CONFIG,space=4,delta=1,noexec
    40   000000                     
    41                           ; Generated 23/03/2023 GMT
    42                           ; 
    43                           ; Copyright © 2023, Microchip Technology Inc. and its subsidiaries ("Microchip")
    44                           ; All rights reserved.
    45                           ; 
    46                           ; This software is developed by Microchip Technology Inc. and its subsidiaries ("Microch
      +                          ip").
    47                           ; 
    48                           ; Redistribution and use in source and binary forms, with or without modification, are
    49                           ; permitted provided that the following conditions are met:
    50                           ; 
    51                           ;     1. Redistributions of source code must retain the above copyright notice, this lis
      +                          t of
    52                           ;        conditions and the following disclaimer.
    53                           ; 
    54                           ;     2. Redistributions in binary form must reproduce the above copyright notice, this 
      +                          list
    55                           ;        of conditions and the following disclaimer in the documentation and/or other
    56                           ;        materials provided with the distribution. Publication is not required when
    57                           ;        this file is used in an embedded application.
    58                           ; 
    59                           ;     3. Microchip's name may not be used to endorse or promote products derived from th
      +                          is
    60                           ;        software without specific prior written permission.
    61                           ; 
    62                           ; THIS SOFTWARE IS PROVIDED BY MICROCHIP "AS IS" AND ANY EXPRESS OR IMPLIED WARRANTIES,
    63                           ; INCLUDING, BUT NOT LIMITED TO, THE IMPLIED WARRANTIES OF MERCHANTABILITY AND FITNESS F
      +                          OR
    64                           ; PURPOSE ARE DISCLAIMED.  IN NO EVENT SHALL MICROCHIP BE LIABLE FOR ANY DIRECT, INDIREC
      +                          T,
    65                           ; INCIDENTAL, SPECIAL, EXEMPLARY, OR CONSEQUENTIAL DAMAGES (INCLUDING BUT NOT LIMITED TO
    66                           ; PROCUREMENT OF SUBSTITUTE GOODS OR SERVICES; LOSS OF USE, DATA OR PROFITS; OR BUSINESS
    67                           ; INTERRUPTION) HOWSOEVER CAUSED AND ON ANY THEORY OF LIABILITY, WHETHER IN CONTRACT, ST
      +                          RICT
    68                           ; LIABILITY, OR TORT (INCLUDING NEGLIGENCE OR OTHERWISE) ARISING IN ANY WAY OUT OF THE U
      +                          SE OF
    69                           ; THIS SOFTWARE, EVEN IF ADVISED OF THE POSSIBILITY OF SUCH DAMAGE.
    70                           ; 
    71                           ; 
    72                           ; Code-generator required, PIC18F4620 Definitions
    73                           ; 
    74                           ; SFR Addresses
    75   000000                     
    76                           	psect	idataCOMRAM
    77   001908                     __pidataCOMRAM:
    78                           	callstack 0
    79                           
    80                           ;initializer for _port_registers
    81   001908  80                 	db	128
    82   001909  0F                 	db	15
    83   00190A  81                 	db	129
    84   00190B  0F                 	db	15
    85   00190C  82                 	db	130
    86   00190D  0F                 	db	15
    87   00190E  83                 	db	131
    88   00190F  0F                 	db	15
    89   001910  84                 	db	132
    90   001911  0F                 	db	15
    91                           
    92                           ;initializer for _lat_registers
    93   001912  89                 	db	137
    94   001913  0F                 	db	15
    95   001914  8A                 	db	138
    96   001915  0F                 	db	15
    97   001916  8B                 	db	139
    98   001917  0F                 	db	15
    99   001918  8C                 	db	140
   100   001919  0F                 	db	15
   101   00191A  8D                 	db	141
   102   00191B  0F                 	db	15
   103                           
   104                           ;initializer for _tris_registers
   105   00191C  92                 	db	146
   106   00191D  0F                 	db	15
   107   00191E  93                 	db	147
   108   00191F  0F                 	db	15
   109   001920  94                 	db	148
   110   001921  0F                 	db	15
   111   001922  95                 	db	149
   112   001923  0F                 	db	15
   113   001924  96                 	db	150
   114   001925  0F                 	db	15
   115                           
   116                           ;initializer for _timer0_counter_obj
   117   001926  BC                 	db	low _timer0_defaulthandler
   118   001927  19                 	db	high _timer0_defaulthandler
   119   001928  00                 	db	0
   120   001929  0000               	dw	0
   121   00192B  00                 	db	0
   122   00192C  00                 	db	0
   123                           
   124                           ;initializer for _RB7_Flag
   125   00192D  01                 	db	1
   126                           
   127                           ;initializer for _RB6_Flag
   128   00192E  01                 	db	1
   129                           
   130                           ;initializer for _RB5_Flag
   131   00192F  01                 	db	1
   132                           
   133                           ;initializer for _RB4_Flag
   134   001930  01                 	db	1
   135                           
   136                           ;initializer for _timer0_obj
   137   001931  BC                 	db	low _timer0_defaulthandler
   138   001932  19                 	db	high _timer0_defaulthandler
   139   001933  00                 	db	0
   140   001934  0BDC               	dw	3036
   141   001936  02                 	db	2
   142   001937  06                 	db	6
   143                           
   144                           ;initializer for _ld1
   145   001938  02                 	db	2
   146                           
   147                           	psect	smallconst
   148   001000                     __psmallconst:
   149                           	callstack 0
   150   001000  00                 	db	0
   151   001001                     _btn_values:
   152                           	callstack 0
   153   001001  37                 	db	55
   154   001002  38                 	db	56
   155   001003  39                 	db	57
   156   001004  2F                 	db	47
   157   001005  34                 	db	52
   158   001006  35                 	db	53
   159   001007  36                 	db	54
   160   001008  2A                 	db	42
   161   001009  31                 	db	49
   162   00100A  32                 	db	50
   163   00100B  33                 	db	51
   164   00100C  2D                 	db	45
   165   00100D  23                 	db	35
   166   00100E  38                 	db	56
   167   00100F  3D                 	db	61
   168   001010  2B                 	db	43
   169   001011                     __end_of_btn_values:
   170                           	callstack 0
   171   000000                     _INTCON2bits	set	4081
   172   000000                     _EECON2	set	4007
   173   000000                     _ADRESL	set	4035
   174   000000                     _ADRESH	set	4036
   175   000000                     _INTCONbits	set	4082
   176   000000                     _TRISD	set	3989
   177   000000                     _TRISC	set	3988
   178   000000                     _TRISB	set	3987
   179   000000                     _TRISE	set	3990
   180   000000                     _PORTBbits	set	3969
   181   000000                     _PIE1bits	set	3997
   182   000000                     _ADCON2bits	set	4032
   183   000000                     _ADCON1bits	set	4033
   184   000000                     _ADCON0bits	set	4034
   185   000000                     _PORTE	set	3972
   186   000000                     _PORTD	set	3971
   187   000000                     _PORTC	set	3970
   188   000000                     _PORTB	set	3969
   189   000000                     _PORTA	set	3968
   190   000000                     _LATA	set	3977
   191   000000                     _TRISA	set	3986
   192   000000                     _EECON1bits	set	4006
   193   000000                     _EEDATA	set	4008
   194   000000                     _EEADR	set	4009
   195   000000                     _EEADRH	set	4010
   196   000000                     _PIR1bits	set	3998
   197   000000                     _T0CONbits	set	4053
   198   000000                     _INTCON3bits	set	4080
   199   000000                     _LATE	set	3981
   200   000000                     _LATD	set	3980
   201   000000                     _LATC	set	3979
   202   000000                     _LATB	set	3978
   203   000000                     _TMR0H	set	4055
   204   000000                     _TMR0L	set	4054
   205   001011                     STR_1:
   206   001011  25                 	db	37
   207   001012  69                 	db	105	;'i'
   208   001013  00                 	db	0
   209   001014  00                 	db	0	; dummy byte at the end
   210   000000                     
   211                           ; #config settings
   212                           
   213                           	psect	cinit
   214   00189C                     __pcinit:
   215                           	callstack 0
   216   00189C                     start_initialization:
   217                           	callstack 0
   218   00189C                     __initialization:
   219                           	callstack 0
   220                           
   221                           ; Initialize objects allocated to COMRAM (49 bytes)
   222                           ; load TBLPTR registers with __pidataCOMRAM
   223   00189C  0E08               	movlw	low __pidataCOMRAM
   224   00189E  6EF6               	movwf	tblptrl,c
   225   0018A0  0E19               	movlw	high __pidataCOMRAM
   226   0018A2  6EF7               	movwf	tblptrh,c
   227   0018A4  0E00               	movlw	low (__pidataCOMRAM shr (0+16))
   228   0018A6  6EF8               	movwf	tblptru,c
   229   0018A8  EE00  F001         	lfsr	0,__pdataCOMRAM
   230   0018AC  EE10 F031          	lfsr	1,49
   231   0018B0                     copy_data0:
   232   0018B0  0009               	tblrd		*+
   233   0018B2  CFF5 FFEE          	movff	tablat,postinc0
   234   0018B6  50E5               	movf	postdec1,w,c
   235   0018B8  50E1               	movf	fsr1l,w,c
   236   0018BA  E1FA               	bnz	copy_data0
   237                           
   238                           ; Clear objects allocated to COMRAM (45 bytes)
   239   0018BC  EE00  F032         	lfsr	0,__pbssCOMRAM
   240   0018C0  0E2D               	movlw	45
   241   0018C2                     clear_0:
   242   0018C2  6AEE               	clrf	postinc0,c
   243   0018C4  06E8               	decf	wreg,f,c
   244   0018C6  E1FD               	bnz	clear_0
   245   0018C8                     end_of_initialization:
   246                           	callstack 0
   247   0018C8                     __end_of__initialization:
   248                           	callstack 0
   249   0018C8  9071               	bcf	int$flags,0,c	;clear compiler interrupt flag (level 1)
   250   0018CA  9271               	bcf	int$flags,1,c	;clear compiler interrupt flag (level 2)
   251   0018CC  0100               	movlb	0
   252   0018CE  EF9D  F00C         	goto	_main	;jump to C main() function
   253                           
   254                           	psect	bssCOMRAM
   255   000032                     __pbssCOMRAM:
   256                           	callstack 0
   257   000032                     	ds	6
   258   000038                     _timer0_preload:
   259                           	callstack 0
   260   000038                     	ds	2
   261   00003A                     _TMR0_InterruptHandler:
   262                           	callstack 0
   263   00003A                     	ds	2
   264   00003C                     _cnt:
   265                           	callstack 0
   266   00003C                     	ds	2
   267   00003E                     _tmr0_fl:
   268                           	callstack 0
   269   00003E                     	ds	2
   270   000040                     _RB7_InterruptHandler_LOW:
   271                           	callstack 0
   272   000040                     	ds	2
   273   000042                     _RB7_InterruptHandler_HIGH:
   274                           	callstack 0
   275   000042                     	ds	2
   276   000044                     _RB6_InterruptHandler_LOW:
   277                           	callstack 0
   278   000044                     	ds	2
   279   000046                     _RB6_InterruptHandler_HIGH:
   280                           	callstack 0
   281   000046                     	ds	2
   282   000048                     _RB5_InterruptHandler_LOW:
   283                           	callstack 0
   284   000048                     	ds	2
   285   00004A                     _RB5_InterruptHandler_HIGH:
   286                           	callstack 0
   287   00004A                     	ds	2
   288   00004C                     _RB4_InterruptHandler_LOW:
   289                           	callstack 0
   290   00004C                     	ds	2
   291   00004E                     _RB4_InterruptHandler_HIGH:
   292                           	callstack 0
   293   00004E                     	ds	2
   294   000050                     _INT2_InterruptHandler:
   295                           	callstack 0
   296   000050                     	ds	2
   297   000052                     _INT1_InterruptHandler:
   298                           	callstack 0
   299   000052                     	ds	2
   300   000054                     _INT0_InterruptHandler:
   301                           	callstack 0
   302   000054                     	ds	2
   303   000056                     _ADC_InterruptHandler:
   304                           	callstack 0
   305   000056                     	ds	2
   306   000058                     relay_turn_off@F3062:
   307                           	callstack 0
   308   000058                     	ds	1
   309   000059                     relay_turn_on@F3057:
   310                           	callstack 0
   311   000059                     	ds	1
   312   00005A                     relay_initialize@F3052:
   313                           	callstack 0
   314   00005A                     	ds	1
   315   00005B                     led_turn_toggle@F3073:
   316                           	callstack 0
   317   00005B                     	ds	1
   318   00005C                     led_turn_off@F3068:
   319                           	callstack 0
   320   00005C                     	ds	1
   321   00005D                     led_turn_on@F3063:
   322                           	callstack 0
   323   00005D                     	ds	1
   324   00005E                     led_initialize@F3058:
   325                           	callstack 0
   326   00005E                     	ds	1
   327                           
   328                           	psect	dataCOMRAM
   329   000001                     __pdataCOMRAM:
   330                           	callstack 0
   331   000001                     _port_registers:
   332                           	callstack 0
   333   000001                     	ds	10
   334   00000B                     _lat_registers:
   335                           	callstack 0
   336   00000B                     	ds	10
   337   000015                     _tris_registers:
   338                           	callstack 0
   339   000015                     	ds	10
   340   00001F                     _timer0_counter_obj:
   341                           	callstack 0
   342   00001F                     	ds	7
   343   000026                     _RB7_Flag:
   344                           	callstack 0
   345   000026                     	ds	1
   346   000027                     _RB6_Flag:
   347                           	callstack 0
   348   000027                     	ds	1
   349   000028                     _RB5_Flag:
   350                           	callstack 0
   351   000028                     	ds	1
   352   000029                     _RB4_Flag:
   353                           	callstack 0
   354   000029                     	ds	1
   355   00002A                     _timer0_obj:
   356                           	callstack 0
   357   00002A                     	ds	7
   358   000031                     _ld1:
   359                           	callstack 0
   360   000031                     	ds	1
   361                           
   362                           	psect	cstackBANK0
   363   000080                     __pcstackBANK0:
   364                           	callstack 0
   365   000080                     ??_gpio_pin_direction_initialize:
   366   000080                     ??_gpio_pin_write_logic:
   367   000080                     ??_TIMER0_Init:
   368                           
   369                           ; 1 bytes @ 0x0
   370   000080                     	ds	5
   371   000085                     ??_gpio_pin_initialize:
   372                           
   373                           ; 1 bytes @ 0x5
   374   000085                     	ds	1
   375   000086                     gpio_pin_initialize@ret:
   376                           	callstack 0
   377                           
   378                           ; 1 bytes @ 0x6
   379   000086                     	ds	1
   380   000087                     led_initialize@led:
   381                           	callstack 0
   382                           
   383                           ; 1 bytes @ 0x7
   384   000087                     	ds	1
   385   000088                     ??_led_initialize:
   386                           
   387                           ; 1 bytes @ 0x8
   388   000088                     	ds	1
   389   000089                     led_initialize@ret:
   390                           	callstack 0
   391                           
   392                           ; 1 bytes @ 0x9
   393   000089                     	ds	1
   394   00008A                     led_initialize@pin_obj:
   395                           	callstack 0
   396                           
   397                           ; 1 bytes @ 0xA
   398   00008A                     	ds	1
   399                           
   400                           	psect	cstackCOMRAM
   401   00005F                     __pcstackCOMRAM:
   402                           	callstack 0
   403   00005F                     gpio_pin_toggle_logic@_pin_config:
   404                           	callstack 0
   405   00005F                     RB4_ISR@RB4_Source:
   406                           	callstack 0
   407   00005F                     RB5_ISR@RB5_Source:
   408                           	callstack 0
   409   00005F                     RB6_ISR@RB6_Source:
   410                           	callstack 0
   411   00005F                     RB7_ISR@RB7_Source:
   412                           	callstack 0
   413                           
   414                           ; 1 bytes @ 0x0
   415   00005F                     	ds	1
   416   000060                     ??_gpio_pin_toggle_logic:
   417                           
   418                           ; 1 bytes @ 0x1
   419   000060                     	ds	4
   420   000064                     led_turn_toggle@led:
   421                           	callstack 0
   422                           
   423                           ; 1 bytes @ 0x5
   424   000064                     	ds	1
   425   000065                     ??_led_turn_toggle:
   426                           
   427                           ; 1 bytes @ 0x6
   428   000065                     	ds	1
   429   000066                     led_turn_toggle@pin_obj:
   430                           	callstack 0
   431                           
   432                           ; 1 bytes @ 0x7
   433   000066                     	ds	1
   434   000067                     ??_InterruptManager:
   435   000067                     
   436                           ; 1 bytes @ 0x8
   437   000067                     	ds	6
   438   00006D                     gpio_pin_direction_initialize@_pin_config:
   439                           	callstack 0
   440   00006D                     gpio_pin_write_logic@_pin_config:
   441                           	callstack 0
   442   00006D                     Timer0_Prescaler_Config@_timer0:
   443                           	callstack 0
   444   00006D                     Timer0_Mode_Select@_timer0:
   445                           	callstack 0
   446   00006D                     Timer0_Register_Size_Config@_timer0:
   447                           	callstack 0
   448                           
   449                           ; 1 bytes @ 0xE
   450   00006D                     	ds	1
   451   00006E                     ??_Timer0_Prescaler_Config:
   452   00006E                     gpio_pin_direction_initialize@ret:
   453                           	callstack 0
   454   00006E                     gpio_pin_write_logic@logic:
   455                           	callstack 0
   456                           
   457                           ; 1 bytes @ 0xF
   458   00006E                     	ds	1
   459   00006F                     gpio_pin_write_logic@ret:
   460                           	callstack 0
   461   00006F                     TIMER0_Init@_timer0:
   462                           	callstack 0
   463                           
   464                           ; 1 bytes @ 0x10
   465   00006F                     	ds	1
   466   000070                     gpio_pin_initialize@_pin_config:
   467                           	callstack 0
   468   000070                     TIMER0_Init@ret:
   469                           	callstack 0
   470                           
   471                           ; 1 bytes @ 0x11
   472   000070                     	ds	1
   473   000071                     
   474                           ; 1 bytes @ 0x12
   475 ;;
   476 ;;Main: autosize = 0, tempsize = 0, incstack = 0, save=0
   477 ;;
   478 ;; *************** function _main *****************
   479 ;; Defined at:
   480 ;;		line 41 in file "appplication.c"
   481 ;; Parameters:    Size  Location     Type
   482 ;;		None
   483 ;; Auto vars:     Size  Location     Type
   484 ;;  ret             1    0        unsigned char 
   485 ;; Return value:  Size  Location     Type
   486 ;;                  2  906[None  ] int 
   487 ;; Registers used:
   488 ;;		wreg, fsr2l, fsr2h, status,2, status,0, prodl, prodh, cstack
   489 ;; Tracked objects:
   490 ;;		On entry : 0/0
   491 ;;		On exit  : 0/0
   492 ;;		Unchanged: 0/0
   493 ;; Data sizes:     COMRAM   BANK0   BANK1   BANK2   BANK3   BANK4   BANK5   BANK6   BANK7   BANK8   BANK9  BANK10  BANK1
      +1  BANK12  BANK13  BANK14  BANK15
   494 ;;      Params:         0       0       0       0       0       0       0       0       0       0       0       0       
      +0       0       0       0       0
   495 ;;      Locals:         0       0       0       0       0       0       0       0       0       0       0       0       
      +0       0       0       0       0
   496 ;;      Temps:          0       0       0       0       0       0       0       0       0       0       0       0       
      +0       0       0       0       0
   497 ;;      Totals:         0       0       0       0       0       0       0       0       0       0       0       0       
      +0       0       0       0       0
   498 ;;Total ram usage:        0 bytes
   499 ;; Hardware stack levels required when called: 8
   500 ;; This function calls:
   501 ;;		_TIMER0_Init
   502 ;;		_led_initialize
   503 ;; This function is called by:
   504 ;;		Startup code after reset
   505 ;; This function uses a non-reentrant model
   506 ;;
   507                           
   508                           	psect	text0
   509   00193A                     __ptext0:
   510                           	callstack 0
   511   00193A                     _main:
   512                           	callstack 23
   513   00193A  0E2A               	movlw	low _timer0_obj
   514   00193C  6E6F               	movwf	TIMER0_Init@_timer0^0,c
   515   00193E  ECA7  F00A         	call	_TIMER0_Init	;wreg free
   516   001942  0E31               	movlw	low _ld1
   517   001944  0100               	movlb	0	; () banked
   518   001946  6F87               	movwf	led_initialize@led& (0+255),b
   519   001948  EC6C  F00B         	call	_led_initialize	;wreg free
   520   00194C                     l907:
   521   00194C  EFA6  F00C         	goto	l907
   522   001950  EF07  F000         	goto	start
   523   001954                     __end_of_main:
   524                           	callstack 0
   525                           
   526 ;; *************** function _led_initialize *****************
   527 ;; Defined at:
   528 ;;		line 17 in file "ECU_Layer/LED/ecu_led.c"
   529 ;; Parameters:    Size  Location     Type
   530 ;;  led             1    7[BANK0 ] PTR const struct .
   531 ;;		 -> ld1(1), 
   532 ;; Auto vars:     Size  Location     Type
   533 ;;  pin_obj         1   10[BANK0 ] struct .
   534 ;;  ret             1    9[BANK0 ] unsigned char 
   535 ;; Return value:  Size  Location     Type
   536 ;;                  1    wreg      unsigned char 
   537 ;; Registers used:
   538 ;;		wreg, fsr2l, fsr2h, status,2, status,0, prodl, prodh, cstack
   539 ;; Tracked objects:
   540 ;;		On entry : 0/0
   541 ;;		On exit  : 0/0
   542 ;;		Unchanged: 0/0
   543 ;; Data sizes:     COMRAM   BANK0   BANK1   BANK2   BANK3   BANK4   BANK5   BANK6   BANK7   BANK8   BANK9  BANK10  BANK1
      +1  BANK12  BANK13  BANK14  BANK15
   544 ;;      Params:         0       1       0       0       0       0       0       0       0       0       0       0       
      +0       0       0       0       0
   545 ;;      Locals:         0       2       0       0       0       0       0       0       0       0       0       0       
      +0       0       0       0       0
   546 ;;      Temps:          0       1       0       0       0       0       0       0       0       0       0       0       
      +0       0       0       0       0
   547 ;;      Totals:         0       4       0       0       0       0       0       0       0       0       0       0       
      +0       0       0       0       0
   548 ;;Total ram usage:        4 bytes
   549 ;; Hardware stack levels used: 1
   550 ;; Hardware stack levels required when called: 7
   551 ;; This function calls:
   552 ;;		_gpio_pin_initialize
   553 ;; This function is called by:
   554 ;;		_main
   555 ;; This function uses a non-reentrant model
   556 ;;
   557                           
   558                           	psect	text1
   559   0016D8                     __ptext1:
   560                           	callstack 0
   561   0016D8                     _led_initialize:
   562                           	callstack 23
   563   0016D8                     
   564                           ;ECU_Layer/LED/ecu_led.c: 18:     Std_ReturnType ret = (Std_ReturnType)0x01 ;
   565   0016D8  0E01               	movlw	1
   566   0016DA  0100               	movlb	0	; () banked
   567   0016DC  6F89               	movwf	led_initialize@ret& (0+255),b
   568                           
   569                           ;ECU_Layer/LED/ecu_led.c: 19:     if(((void*)0) == led)
   570   0016DE  5187               	movf	led_initialize@led& (0+255),w,b
   571   0016E0  A4D8               	btfss	status,2,c
   572   0016E2  EF75  F00B         	goto	u3611
   573   0016E6  EF77  F00B         	goto	u3610
   574   0016EA                     u3611:
   575   0016EA  EF7B  F00B         	goto	l279
   576   0016EE                     u3610:
   577   0016EE                     
   578                           ; BSR set to: 0
   579                           ;ECU_Layer/LED/ecu_led.c: 20:     {;ECU_Layer/LED/ecu_led.c: 21:         ret = (Std_Retu
      +                          rnType)0x00;
   580   0016EE  0E00               	movlw	0
   581   0016F0  6F89               	movwf	led_initialize@ret& (0+255),b
   582                           
   583                           ;ECU_Layer/LED/ecu_led.c: 22:     }
   584   0016F2  EFA4  F00B         	goto	l4533
   585   0016F6                     l279:
   586                           
   587                           ; BSR set to: 0
   588                           ;ECU_Layer/LED/ecu_led.c: 24:     {;ECU_Layer/LED/ecu_led.c: 25:         pin_config_t pi
      +                          n_obj = { .port = led->port_name, .pin = led->pin ,
   589   0016F6  C05E  F08A         	movff	led_initialize@F3058,led_initialize@pin_obj
   590   0016FA                     
   591                           ; BSR set to: 0
   592   0016FA  5187               	movf	led_initialize@led& (0+255),w,b
   593   0016FC  6ED9               	movwf	fsr2l,c
   594   0016FE  6ADA               	clrf	fsr2h,c
   595   001700  50DF               	movf	223,w,c
   596   001702  0B0F               	andlw	15
   597   001704  6F88               	movwf	??_led_initialize& (0+255),b
   598   001706  518A               	movf	led_initialize@pin_obj& (0+255),w,b
   599   001708  1988               	xorwf	??_led_initialize& (0+255),w,b
   600   00170A  0BF8               	andlw	-8
   601   00170C  1988               	xorwf	??_led_initialize& (0+255),w,b
   602   00170E  6F8A               	movwf	led_initialize@pin_obj& (0+255),b
   603   001710  5187               	movf	led_initialize@led& (0+255),w,b
   604   001712  6ED9               	movwf	fsr2l,c
   605   001714  6ADA               	clrf	fsr2h,c
   606   001716  38DF               	swapf	223,w,c
   607   001718  0B07               	andlw	7
   608   00171A  6F88               	movwf	??_led_initialize& (0+255),b
   609   00171C  4788               	rlncf	??_led_initialize& (0+255),f,b
   610   00171E  4788               	rlncf	??_led_initialize& (0+255),f,b
   611   001720  4788               	rlncf	??_led_initialize& (0+255),f,b
   612   001722  518A               	movf	led_initialize@pin_obj& (0+255),w,b
   613   001724  1988               	xorwf	??_led_initialize& (0+255),w,b
   614   001726  0BC7               	andlw	-57
   615   001728  1988               	xorwf	??_led_initialize& (0+255),w,b
   616   00172A  6F8A               	movwf	led_initialize@pin_obj& (0+255),b
   617   00172C                     
   618                           ; BSR set to: 0
   619   00172C  9D8A               	bcf	led_initialize@pin_obj& (0+255),6,b
   620   00172E                     
   621                           ; BSR set to: 0
   622   00172E  5187               	movf	led_initialize@led& (0+255),w,b
   623   001730  6ED9               	movwf	fsr2l,c
   624   001732  6ADA               	clrf	fsr2h,c
   625   001734  AEDF               	btfss	indf2,7,c
   626   001736  D002               	bra	u3625
   627   001738  8F8A               	bsf	led_initialize@pin_obj& (0+255),7,b
   628   00173A  D002               	bra	u3627
   629   00173C                     u3625:
   630   00173C  0100               	movlb	0	; () banked
   631   00173E  9F8A               	bcf	led_initialize@pin_obj& (0+255),7,b
   632   001740                     u3627:
   633   001740                     
   634                           ; BSR set to: 0
   635                           ;ECU_Layer/LED/ecu_led.c: 28:         gpio_pin_initialize(&pin_obj);
   636   001740  0E8A               	movlw	low led_initialize@pin_obj
   637   001742  6E70               	movwf	gpio_pin_initialize@_pin_config^0,c
   638   001744  ECDA  F00B         	call	_gpio_pin_initialize	;wreg free
   639   001748                     l4533:
   640                           
   641                           ;ECU_Layer/LED/ecu_led.c: 30:     return ret;
   642   001748  0100               	movlb	0	; () banked
   643   00174A  5189               	movf	led_initialize@ret& (0+255),w,b
   644   00174C                     
   645                           ; BSR set to: 0
   646   00174C  0012               	return		;funcret
   647   00174E                     __end_of_led_initialize:
   648                           	callstack 0
   649                           
   650 ;; *************** function _gpio_pin_initialize *****************
   651 ;; Defined at:
   652 ;;		line 134 in file "MCAL_Layer/GPIO/hal_gpio.c"
   653 ;; Parameters:    Size  Location     Type
   654 ;;  _pin_config     1   17[COMRAM] PTR struct .
   655 ;;		 -> led_initialize@pin_obj(1), 
   656 ;; Auto vars:     Size  Location     Type
   657 ;;  ret             1    6[BANK0 ] unsigned char 
   658 ;; Return value:  Size  Location     Type
   659 ;;                  1    wreg      unsigned char 
   660 ;; Registers used:
   661 ;;		wreg, fsr2l, fsr2h, status,2, status,0, prodl, prodh, cstack
   662 ;; Tracked objects:
   663 ;;		On entry : 0/0
   664 ;;		On exit  : 0/0
   665 ;;		Unchanged: 0/0
   666 ;; Data sizes:     COMRAM   BANK0   BANK1   BANK2   BANK3   BANK4   BANK5   BANK6   BANK7   BANK8   BANK9  BANK10  BANK1
      +1  BANK12  BANK13  BANK14  BANK15
   667 ;;      Params:         1       0       0       0       0       0       0       0       0       0       0       0       
      +0       0       0       0       0
   668 ;;      Locals:         0       1       0       0       0       0       0       0       0       0       0       0       
      +0       0       0       0       0
   669 ;;      Temps:          0       1       0       0       0       0       0       0       0       0       0       0       
      +0       0       0       0       0
   670 ;;      Totals:         1       2       0       0       0       0       0       0       0       0       0       0       
      +0       0       0       0       0
   671 ;;Total ram usage:        3 bytes
   672 ;; Hardware stack levels used: 1
   673 ;; Hardware stack levels required when called: 6
   674 ;; This function calls:
   675 ;;		_gpio_pin_direction_initialize
   676 ;;		_gpio_pin_write_logic
   677 ;; This function is called by:
   678 ;;		_led_initialize
   679 ;;		_lcd_4bit_initialize
   680 ;;		_lcd_8bit_initialize
   681 ;;		_keypad_initialize
   682 ;; This function uses a non-reentrant model
   683 ;;
   684                           
   685                           	psect	text2
   686   0017B4                     __ptext2:
   687                           	callstack 0
   688   0017B4                     _gpio_pin_initialize:
   689                           	callstack 23
   690   0017B4                     
   691                           ;MCAL_Layer/GPIO/hal_gpio.c: 136:     if(((void*)0) == _pin_config || _pin_config->pin >
      +                           (8 - 1))
   692   0017B4  5070               	movf	gpio_pin_initialize@_pin_config^0,w,c
   693   0017B6  B4D8               	btfsc	status,2,c
   694   0017B8  EFE0  F00B         	goto	u3461
   695   0017BC  EFE2  F00B         	goto	u3460
   696   0017C0                     u3461:
   697   0017C0  EFF3  F00B         	goto	l4369
   698   0017C4                     u3460:
   699   0017C4  5070               	movf	gpio_pin_initialize@_pin_config^0,w,c
   700   0017C6  6ED9               	movwf	fsr2l,c
   701   0017C8  6ADA               	clrf	fsr2h,c
   702   0017CA  30DF               	rrcf	223,w,c
   703   0017CC  32E8               	rrcf	wreg,f,c
   704   0017CE  32E8               	rrcf	wreg,f,c
   705   0017D0  0B07               	andlw	7
   706   0017D2  0100               	movlb	0	; () banked
   707   0017D4  6F85               	movwf	??_gpio_pin_initialize& (0+255),b
   708   0017D6  0E07               	movlw	7
   709   0017D8  6585               	cpfsgt	??_gpio_pin_initialize& (0+255),b
   710   0017DA  EFF1  F00B         	goto	u3471
   711   0017DE  EFF3  F00B         	goto	u3470
   712   0017E2                     u3471:
   713   0017E2  EFF8  F00B         	goto	l4371
   714   0017E6                     u3470:
   715   0017E6                     l4369:
   716                           
   717                           ;MCAL_Layer/GPIO/hal_gpio.c: 137:     {;MCAL_Layer/GPIO/hal_gpio.c: 138:         ret = (
      +                          Std_ReturnType)0x00;
   718   0017E6  0E00               	movlw	0
   719   0017E8  0100               	movlb	0	; () banked
   720   0017EA  6F86               	movwf	gpio_pin_initialize@ret& (0+255),b
   721                           
   722                           ;MCAL_Layer/GPIO/hal_gpio.c: 139:     }
   723   0017EC  EF06  F00C         	goto	l4373
   724   0017F0                     l4371:
   725                           
   726                           ; BSR set to: 0
   727                           ;MCAL_Layer/GPIO/hal_gpio.c: 141:     {;MCAL_Layer/GPIO/hal_gpio.c: 142:         ret = g
      +                          pio_pin_direction_initialize(_pin_config);
   728   0017F0  C070  F06D         	movff	gpio_pin_initialize@_pin_config,gpio_pin_direction_initialize@_pin_config
   729   0017F4  EC86  F009         	call	_gpio_pin_direction_initialize	;wreg free
   730   0017F8  0100               	movlb	0	; () banked
   731   0017FA  6F86               	movwf	gpio_pin_initialize@ret& (0+255),b
   732                           
   733                           ;MCAL_Layer/GPIO/hal_gpio.c: 143:         ret = gpio_pin_write_logic(_pin_config, GPIO_L
      +                          OW);
   734   0017FC  C070  F06D         	movff	gpio_pin_initialize@_pin_config,gpio_pin_write_logic@_pin_config
   735   001800  0E00               	movlw	0
   736   001802  6E6E               	movwf	gpio_pin_write_logic@logic^0,c
   737   001804  EC1C  F00A         	call	_gpio_pin_write_logic	;wreg free
   738   001808  0100               	movlb	0	; () banked
   739   00180A  6F86               	movwf	gpio_pin_initialize@ret& (0+255),b
   740   00180C                     l4373:
   741                           
   742                           ; BSR set to: 0
   743                           ;MCAL_Layer/GPIO/hal_gpio.c: 145:     return ret;
   744   00180C  5186               	movf	gpio_pin_initialize@ret& (0+255),w,b
   745   00180E                     
   746                           ; BSR set to: 0
   747   00180E  0012               	return		;funcret
   748   001810                     __end_of_gpio_pin_initialize:
   749                           	callstack 0
   750                           
   751 ;; *************** function _gpio_pin_write_logic *****************
   752 ;; Defined at:
   753 ;;		line 78 in file "MCAL_Layer/GPIO/hal_gpio.c"
   754 ;; Parameters:    Size  Location     Type
   755 ;;  _pin_config     1   14[COMRAM] PTR struct .
   756 ;;		 -> relay_turn_off@pin_obj(1), relay_turn_on@pin_obj(1), led_turn_off@pin_obj(1), led_turn_on@pin_obj(1), 
   757 ;;		 -> led_initialize@pin_obj(1), 
   758 ;;  logic           1   15[COMRAM] enum E2978
   759 ;; Auto vars:     Size  Location     Type
   760 ;;  ret             1   16[COMRAM] unsigned char 
   761 ;; Return value:  Size  Location     Type
   762 ;;                  1    wreg      unsigned char 
   763 ;; Registers used:
   764 ;;		wreg, fsr2l, fsr2h, status,2, status,0, prodl, prodh
   765 ;; Tracked objects:
   766 ;;		On entry : 0/0
   767 ;;		On exit  : 0/0
   768 ;;		Unchanged: 0/0
   769 ;; Data sizes:     COMRAM   BANK0   BANK1   BANK2   BANK3   BANK4   BANK5   BANK6   BANK7   BANK8   BANK9  BANK10  BANK1
      +1  BANK12  BANK13  BANK14  BANK15
   770 ;;      Params:         2       0       0       0       0       0       0       0       0       0       0       0       
      +0       0       0       0       0
   771 ;;      Locals:         1       0       0       0       0       0       0       0       0       0       0       0       
      +0       0       0       0       0
   772 ;;      Temps:          0       5       0       0       0       0       0       0       0       0       0       0       
      +0       0       0       0       0
   773 ;;      Totals:         3       5       0       0       0       0       0       0       0       0       0       0       
      +0       0       0       0       0
   774 ;;Total ram usage:        8 bytes
   775 ;; Hardware stack levels used: 1
   776 ;; Hardware stack levels required when called: 5
   777 ;; This function calls:
   778 ;;		Nothing
   779 ;; This function is called by:
   780 ;;		_gpio_pin_initialize
   781 ;;		_seven_segment_write_number
   782 ;;		_lcd_4bit_send_command
   783 ;;		_lcd_4bit_send_char_data
   784 ;;		_lcd_8bit_send_command
   785 ;;		_lcd_8bit_send_char_data
   786 ;;		_lcd_send_4bits
   787 ;;		_lcd_4bit_send_enable_signal
   788 ;;		_lcd_8bit_send_enable_signal
   789 ;;		_dc_motor_move_right
   790 ;;		_dc_motor_move_left
   791 ;;		_dc_motor_stop
   792 ;;		_keypad_get_value
   793 ;;		_led_turn_on
   794 ;;		_led_turn_off
   795 ;;		_relay_turn_on
   796 ;;		_relay_turn_off
   797 ;; This function uses a non-reentrant model
   798 ;;
   799                           
   800                           	psect	text3
   801   001438                     __ptext3:
   802                           	callstack 0
   803   001438                     _gpio_pin_write_logic:
   804                           	callstack 23
   805   001438                     
   806                           ;MCAL_Layer/GPIO/hal_gpio.c: 79:     Std_ReturnType ret = (Std_ReturnType)0x01 ;
   807   001438  0E01               	movlw	1
   808   00143A  6E6F               	movwf	gpio_pin_write_logic@ret^0,c
   809                           
   810                           ;MCAL_Layer/GPIO/hal_gpio.c: 80:     if(((void*)0) == _pin_config || _pin_config->pin > 
      +                          (8 - 1))
   811   00143C  506D               	movf	gpio_pin_write_logic@_pin_config^0,w,c
   812   00143E  B4D8               	btfsc	status,2,c
   813   001440  EF24  F00A         	goto	u3421
   814   001444  EF26  F00A         	goto	u3420
   815   001448                     u3421:
   816   001448  EF37  F00A         	goto	l4347
   817   00144C                     u3420:
   818   00144C  506D               	movf	gpio_pin_write_logic@_pin_config^0,w,c
   819   00144E  6ED9               	movwf	fsr2l,c
   820   001450  6ADA               	clrf	fsr2h,c
   821   001452  30DF               	rrcf	223,w,c
   822   001454  32E8               	rrcf	wreg,f,c
   823   001456  32E8               	rrcf	wreg,f,c
   824   001458  0B07               	andlw	7
   825   00145A  0100               	movlb	0	; () banked
   826   00145C  6F80               	movwf	??_gpio_pin_write_logic& (0+255),b
   827   00145E  0E07               	movlw	7
   828   001460  6580               	cpfsgt	??_gpio_pin_write_logic& (0+255),b
   829   001462  EF35  F00A         	goto	u3431
   830   001466  EF37  F00A         	goto	u3430
   831   00146A                     u3431:
   832   00146A  EF90  F00A         	goto	l4355
   833   00146E                     u3430:
   834   00146E                     l4347:
   835                           
   836                           ;MCAL_Layer/GPIO/hal_gpio.c: 81:     {;MCAL_Layer/GPIO/hal_gpio.c: 82:         ret = (St
      +                          d_ReturnType)0x00;
   837   00146E  0E00               	movlw	0
   838   001470  6E6F               	movwf	gpio_pin_write_logic@ret^0,c
   839                           
   840                           ;MCAL_Layer/GPIO/hal_gpio.c: 83:     }
   841   001472  EFA5  F00A         	goto	l4357
   842   001476                     l4349:
   843                           
   844                           ; BSR set to: 0
   845                           ;MCAL_Layer/GPIO/hal_gpio.c: 89:                 (*lat_registers[_pin_config->port] &= ~
      +                          (((uint8)1) << _pin_config->pin));
   846   001476  506D               	movf	gpio_pin_write_logic@_pin_config^0,w,c
   847   001478  6ED9               	movwf	fsr2l,c
   848   00147A  6ADA               	clrf	fsr2h,c
   849   00147C  30DF               	rrcf	223,w,c
   850   00147E  32E8               	rrcf	wreg,f,c
   851   001480  32E8               	rrcf	wreg,f,c
   852   001482  0B07               	andlw	7
   853   001484  6F80               	movwf	??_gpio_pin_write_logic& (0+255),b
   854   001486  0E01               	movlw	1
   855   001488  6F81               	movwf	(??_gpio_pin_write_logic+1)& (0+255),b
   856   00148A  2B80               	incf	??_gpio_pin_write_logic& (0+255),f,b
   857   00148C  EF4A  F00A         	goto	u3444
   858   001490                     u3445:
   859   001490  90D8               	bcf	status,0,c
   860   001492  3781               	rlcf	(??_gpio_pin_write_logic+1)& (0+255),f,b
   861   001494                     u3444:
   862   001494  2F80               	decfsz	??_gpio_pin_write_logic& (0+255),f,b
   863   001496  EF48  F00A         	goto	u3445
   864   00149A  0100               	movlb	0	; () banked
   865   00149C  5181               	movf	(??_gpio_pin_write_logic+1)& (0+255),w,b
   866   00149E  0AFF               	xorlw	255
   867   0014A0  6F82               	movwf	(??_gpio_pin_write_logic+2)& (0+255),b
   868   0014A2  506D               	movf	gpio_pin_write_logic@_pin_config^0,w,c
   869   0014A4  6ED9               	movwf	fsr2l,c
   870   0014A6  6ADA               	clrf	fsr2h,c
   871   0014A8  50DF               	movf	223,w,c
   872   0014AA  0B07               	andlw	7
   873   0014AC  0D02               	mullw	2
   874   0014AE  50F3               	movf	243,w,c
   875   0014B0  0F0B               	addlw	low _lat_registers
   876   0014B2  6ED9               	movwf	fsr2l,c
   877   0014B4  6ADA               	clrf	fsr2h,c
   878   0014B6  CFDE F083          	movff	postinc2,??_gpio_pin_write_logic+3
   879   0014BA  CFDD F084          	movff	postdec2,??_gpio_pin_write_logic+4
   880   0014BE  C083  FFD9         	movff	??_gpio_pin_write_logic+3,fsr2l
   881   0014C2  C084  FFDA         	movff	??_gpio_pin_write_logic+4,fsr2h
   882   0014C6  5182               	movf	(??_gpio_pin_write_logic+2)& (0+255),w,b
   883   0014C8  16DF               	andwf	indf2,f,c
   884                           
   885                           ;MCAL_Layer/GPIO/hal_gpio.c: 90:                 break;
   886   0014CA  EFA5  F00A         	goto	l4357
   887   0014CE                     l4351:
   888                           
   889                           ; BSR set to: 0
   890                           ;MCAL_Layer/GPIO/hal_gpio.c: 92:                 (*lat_registers[_pin_config->port] |= (
      +                          ((uint8)1) << _pin_config->pin));
   891   0014CE  506D               	movf	gpio_pin_write_logic@_pin_config^0,w,c
   892   0014D0  6ED9               	movwf	fsr2l,c
   893   0014D2  6ADA               	clrf	fsr2h,c
   894   0014D4  30DF               	rrcf	223,w,c
   895   0014D6  32E8               	rrcf	wreg,f,c
   896   0014D8  32E8               	rrcf	wreg,f,c
   897   0014DA  0B07               	andlw	7
   898   0014DC  6F80               	movwf	??_gpio_pin_write_logic& (0+255),b
   899   0014DE  0E01               	movlw	1
   900   0014E0  6F81               	movwf	(??_gpio_pin_write_logic+1)& (0+255),b
   901   0014E2  2B80               	incf	??_gpio_pin_write_logic& (0+255),f,b
   902   0014E4  EF76  F00A         	goto	u3454
   903   0014E8                     u3455:
   904   0014E8  90D8               	bcf	status,0,c
   905   0014EA  3781               	rlcf	(??_gpio_pin_write_logic+1)& (0+255),f,b
   906   0014EC                     u3454:
   907   0014EC  2F80               	decfsz	??_gpio_pin_write_logic& (0+255),f,b
   908   0014EE  EF74  F00A         	goto	u3455
   909   0014F2  506D               	movf	gpio_pin_write_logic@_pin_config^0,w,c
   910   0014F4  6ED9               	movwf	fsr2l,c
   911   0014F6  6ADA               	clrf	fsr2h,c
   912   0014F8  50DF               	movf	223,w,c
   913   0014FA  0B07               	andlw	7
   914   0014FC  0D02               	mullw	2
   915   0014FE  50F3               	movf	243,w,c
   916   001500  0F0B               	addlw	low _lat_registers
   917   001502  6ED9               	movwf	fsr2l,c
   918   001504  6ADA               	clrf	fsr2h,c
   919   001506  CFDE F082          	movff	postinc2,??_gpio_pin_write_logic+2
   920   00150A  CFDD F083          	movff	postdec2,??_gpio_pin_write_logic+3
   921   00150E  C082  FFD9         	movff	??_gpio_pin_write_logic+2,fsr2l
   922   001512  C083  FFDA         	movff	??_gpio_pin_write_logic+3,fsr2h
   923   001516  0100               	movlb	0	; () banked
   924   001518  5181               	movf	(??_gpio_pin_write_logic+1)& (0+255),w,b
   925   00151A  12DF               	iorwf	indf2,f,c
   926                           
   927                           ;MCAL_Layer/GPIO/hal_gpio.c: 93:                 break;
   928   00151C  EFA5  F00A         	goto	l4357
   929   001520                     l4355:
   930                           
   931                           ; BSR set to: 0
   932   001520  506E               	movf	gpio_pin_write_logic@logic^0,w,c
   933   001522  6F80               	movwf	??_gpio_pin_write_logic& (0+255),b
   934   001524  6B81               	clrf	(??_gpio_pin_write_logic+1)& (0+255),b
   935                           
   936                           ; Switch on 2 bytes has been partitioned into a top level switch of size 1, and 1 sub-sw
      +                          itches
   937                           ; Switch size 1, requested type "simple"
   938                           ; Number of cases is 1, Range of values is 0 to 0
   939                           ; switch strategies available:
   940                           ; Name         Instructions Cycles
   941                           ; simple_byte            4     3 (average)
   942                           ;	Chosen strategy is simple_byte
   943   001526  5181               	movf	(??_gpio_pin_write_logic+1)& (0+255),w,b
   944   001528  0A00               	xorlw	0	; case 0
   945   00152A  B4D8               	btfsc	status,2,c
   946   00152C  EF9A  F00A         	goto	l5159
   947   001530  EF37  F00A         	goto	l4347
   948   001534                     l5159:
   949                           
   950                           ; BSR set to: 0
   951                           ; Switch size 1, requested type "simple"
   952                           ; Number of cases is 2, Range of values is 0 to 1
   953                           ; switch strategies available:
   954                           ; Name         Instructions Cycles
   955                           ; simple_byte            7     4 (average)
   956                           ;	Chosen strategy is simple_byte
   957   001534  5180               	movf	??_gpio_pin_write_logic& (0+255),w,b
   958   001536  0A00               	xorlw	0	; case 0
   959   001538  B4D8               	btfsc	status,2,c
   960   00153A  EF3B  F00A         	goto	l4349
   961   00153E  0A01               	xorlw	1	; case 1
   962   001540  B4D8               	btfsc	status,2,c
   963   001542  EF67  F00A         	goto	l4351
   964   001546  EF37  F00A         	goto	l4347
   965   00154A                     l4357:
   966                           
   967                           ;MCAL_Layer/GPIO/hal_gpio.c: 99:     return ret;
   968   00154A  506F               	movf	gpio_pin_write_logic@ret^0,w,c
   969   00154C  0012               	return		;funcret
   970   00154E                     __end_of_gpio_pin_write_logic:
   971                           	callstack 0
   972                           
   973 ;; *************** function _gpio_pin_direction_initialize *****************
   974 ;; Defined at:
   975 ;;		line 22 in file "MCAL_Layer/GPIO/hal_gpio.c"
   976 ;; Parameters:    Size  Location     Type
   977 ;;  _pin_config     1   14[COMRAM] PTR struct .
   978 ;;		 -> relay_initialize@pin_obj(1), led_initialize@pin_obj(1), 
   979 ;; Auto vars:     Size  Location     Type
   980 ;;  ret             1   15[COMRAM] unsigned char 
   981 ;; Return value:  Size  Location     Type
   982 ;;                  1    wreg      unsigned char 
   983 ;; Registers used:
   984 ;;		wreg, fsr2l, fsr2h, status,2, status,0, prodl, prodh
   985 ;; Tracked objects:
   986 ;;		On entry : 0/0
   987 ;;		On exit  : 0/0
   988 ;;		Unchanged: 0/0
   989 ;; Data sizes:     COMRAM   BANK0   BANK1   BANK2   BANK3   BANK4   BANK5   BANK6   BANK7   BANK8   BANK9  BANK10  BANK1
      +1  BANK12  BANK13  BANK14  BANK15
   990 ;;      Params:         1       0       0       0       0       0       0       0       0       0       0       0       
      +0       0       0       0       0
   991 ;;      Locals:         1       0       0       0       0       0       0       0       0       0       0       0       
      +0       0       0       0       0
   992 ;;      Temps:          0       5       0       0       0       0       0       0       0       0       0       0       
      +0       0       0       0       0
   993 ;;      Totals:         2       5       0       0       0       0       0       0       0       0       0       0       
      +0       0       0       0       0
   994 ;;Total ram usage:        7 bytes
   995 ;; Hardware stack levels used: 1
   996 ;; Hardware stack levels required when called: 5
   997 ;; This function calls:
   998 ;;		Nothing
   999 ;; This function is called by:
  1000 ;;		_gpio_pin_initialize
  1001 ;;		_seven_segment_initialize
  1002 ;;		_button_initialize
  1003 ;;		_dc_motor_initialize
  1004 ;;		_keypad_initialize
  1005 ;;		_relay_initialize
  1006 ;;		_Interrupt_RBx_Init
  1007 ;;		_Interrupt_INTx_Pin_Init
  1008 ;; This function uses a non-reentrant model
  1009 ;;
  1010                           
  1011                           	psect	text4
  1012   00130C                     __ptext4:
  1013                           	callstack 0
  1014   00130C                     _gpio_pin_direction_initialize:
  1015                           	callstack 23
  1016   00130C                     
  1017                           ;MCAL_Layer/GPIO/hal_gpio.c: 22: Std_ReturnType gpio_pin_direction_initialize(pin_config
      +                          _t *_pin_config);MCAL_Layer/GPIO/hal_gpio.c: 23: {;MCAL_Layer/GPIO/hal_gpio.c: 24:     S
      +                          td_ReturnType ret = (Std_ReturnType)0x01 ;
  1018   00130C  0E01               	movlw	1
  1019   00130E  6E6E               	movwf	gpio_pin_direction_initialize@ret^0,c
  1020                           
  1021                           ;MCAL_Layer/GPIO/hal_gpio.c: 25:     if(((void*)0) == _pin_config || _pin_config->pin > 
      +                          (8 - 1))
  1022   001310  506D               	movf	gpio_pin_direction_initialize@_pin_config^0,w,c
  1023   001312  B4D8               	btfsc	status,2,c
  1024   001314  EF8E  F009         	goto	u3361
  1025   001318  EF90  F009         	goto	u3360
  1026   00131C                     u3361:
  1027   00131C  EFA1  F009         	goto	l4325
  1028   001320                     u3360:
  1029   001320  506D               	movf	gpio_pin_direction_initialize@_pin_config^0,w,c
  1030   001322  6ED9               	movwf	fsr2l,c
  1031   001324  6ADA               	clrf	fsr2h,c
  1032   001326  30DF               	rrcf	223,w,c
  1033   001328  32E8               	rrcf	wreg,f,c
  1034   00132A  32E8               	rrcf	wreg,f,c
  1035   00132C  0B07               	andlw	7
  1036   00132E  0100               	movlb	0	; () banked
  1037   001330  6F80               	movwf	??_gpio_pin_direction_initialize& (0+255),b
  1038   001332  0E07               	movlw	7
  1039   001334  6580               	cpfsgt	??_gpio_pin_direction_initialize& (0+255),b
  1040   001336  EF9F  F009         	goto	u3371
  1041   00133A  EFA1  F009         	goto	u3370
  1042   00133E                     u3371:
  1043   00133E  EFFA  F009         	goto	l4333
  1044   001342                     u3370:
  1045   001342                     l4325:
  1046                           
  1047                           ;MCAL_Layer/GPIO/hal_gpio.c: 26:     {;MCAL_Layer/GPIO/hal_gpio.c: 27:         ret = (St
      +                          d_ReturnType)0x00;
  1048   001342  0E00               	movlw	0
  1049   001344  6E6E               	movwf	gpio_pin_direction_initialize@ret^0,c
  1050                           
  1051                           ;MCAL_Layer/GPIO/hal_gpio.c: 28:     }
  1052   001346  EF1A  F00A         	goto	l4335
  1053   00134A                     l4327:
  1054                           
  1055                           ; BSR set to: 0
  1056                           ;MCAL_Layer/GPIO/hal_gpio.c: 33:                 (*tris_registers[_pin_config->port] &= 
      +                          ~(((uint8)1) << _pin_config->pin));
  1057   00134A  506D               	movf	gpio_pin_direction_initialize@_pin_config^0,w,c
  1058   00134C  6ED9               	movwf	fsr2l,c
  1059   00134E  6ADA               	clrf	fsr2h,c
  1060   001350  30DF               	rrcf	223,w,c
  1061   001352  32E8               	rrcf	wreg,f,c
  1062   001354  32E8               	rrcf	wreg,f,c
  1063   001356  0B07               	andlw	7
  1064   001358  6F80               	movwf	??_gpio_pin_direction_initialize& (0+255),b
  1065   00135A  0E01               	movlw	1
  1066   00135C  6F81               	movwf	(??_gpio_pin_direction_initialize+1)& (0+255),b
  1067   00135E  2B80               	incf	??_gpio_pin_direction_initialize& (0+255),f,b
  1068   001360  EFB4  F009         	goto	u3384
  1069   001364                     u3385:
  1070   001364  90D8               	bcf	status,0,c
  1071   001366  3781               	rlcf	(??_gpio_pin_direction_initialize+1)& (0+255),f,b
  1072   001368                     u3384:
  1073   001368  2F80               	decfsz	??_gpio_pin_direction_initialize& (0+255),f,b
  1074   00136A  EFB2  F009         	goto	u3385
  1075   00136E  0100               	movlb	0	; () banked
  1076   001370  5181               	movf	(??_gpio_pin_direction_initialize+1)& (0+255),w,b
  1077   001372  0AFF               	xorlw	255
  1078   001374  6F82               	movwf	(??_gpio_pin_direction_initialize+2)& (0+255),b
  1079   001376  506D               	movf	gpio_pin_direction_initialize@_pin_config^0,w,c
  1080   001378  6ED9               	movwf	fsr2l,c
  1081   00137A  6ADA               	clrf	fsr2h,c
  1082   00137C  50DF               	movf	223,w,c
  1083   00137E  0B07               	andlw	7
  1084   001380  0D02               	mullw	2
  1085   001382  50F3               	movf	243,w,c
  1086   001384  0F15               	addlw	low _tris_registers
  1087   001386  6ED9               	movwf	fsr2l,c
  1088   001388  6ADA               	clrf	fsr2h,c
  1089   00138A  CFDE F083          	movff	postinc2,??_gpio_pin_direction_initialize+3
  1090   00138E  CFDD F084          	movff	postdec2,??_gpio_pin_direction_initialize+4
  1091   001392  C083  FFD9         	movff	??_gpio_pin_direction_initialize+3,fsr2l
  1092   001396  C084  FFDA         	movff	??_gpio_pin_direction_initialize+4,fsr2h
  1093   00139A  5182               	movf	(??_gpio_pin_direction_initialize+2)& (0+255),w,b
  1094   00139C  16DF               	andwf	indf2,f,c
  1095                           
  1096                           ;MCAL_Layer/GPIO/hal_gpio.c: 34:                 break;
  1097   00139E  EF1A  F00A         	goto	l4335
  1098   0013A2                     l4329:
  1099                           
  1100                           ; BSR set to: 0
  1101                           ;MCAL_Layer/GPIO/hal_gpio.c: 36:                 (*tris_registers[_pin_config->port] |= 
      +                          (((uint8)1) << _pin_config->pin));
  1102   0013A2  506D               	movf	gpio_pin_direction_initialize@_pin_config^0,w,c
  1103   0013A4  6ED9               	movwf	fsr2l,c
  1104   0013A6  6ADA               	clrf	fsr2h,c
  1105   0013A8  30DF               	rrcf	223,w,c
  1106   0013AA  32E8               	rrcf	wreg,f,c
  1107   0013AC  32E8               	rrcf	wreg,f,c
  1108   0013AE  0B07               	andlw	7
  1109   0013B0  6F80               	movwf	??_gpio_pin_direction_initialize& (0+255),b
  1110   0013B2  0E01               	movlw	1
  1111   0013B4  6F81               	movwf	(??_gpio_pin_direction_initialize+1)& (0+255),b
  1112   0013B6  2B80               	incf	??_gpio_pin_direction_initialize& (0+255),f,b
  1113   0013B8  EFE0  F009         	goto	u3394
  1114   0013BC                     u3395:
  1115   0013BC  90D8               	bcf	status,0,c
  1116   0013BE  3781               	rlcf	(??_gpio_pin_direction_initialize+1)& (0+255),f,b
  1117   0013C0                     u3394:
  1118   0013C0  2F80               	decfsz	??_gpio_pin_direction_initialize& (0+255),f,b
  1119   0013C2  EFDE  F009         	goto	u3395
  1120   0013C6  506D               	movf	gpio_pin_direction_initialize@_pin_config^0,w,c
  1121   0013C8  6ED9               	movwf	fsr2l,c
  1122   0013CA  6ADA               	clrf	fsr2h,c
  1123   0013CC  50DF               	movf	223,w,c
  1124   0013CE  0B07               	andlw	7
  1125   0013D0  0D02               	mullw	2
  1126   0013D2  50F3               	movf	243,w,c
  1127   0013D4  0F15               	addlw	low _tris_registers
  1128   0013D6  6ED9               	movwf	fsr2l,c
  1129   0013D8  6ADA               	clrf	fsr2h,c
  1130   0013DA  CFDE F082          	movff	postinc2,??_gpio_pin_direction_initialize+2
  1131   0013DE  CFDD F083          	movff	postdec2,??_gpio_pin_direction_initialize+3
  1132   0013E2  C082  FFD9         	movff	??_gpio_pin_direction_initialize+2,fsr2l
  1133   0013E6  C083  FFDA         	movff	??_gpio_pin_direction_initialize+3,fsr2h
  1134   0013EA  0100               	movlb	0	; () banked
  1135   0013EC  5181               	movf	(??_gpio_pin_direction_initialize+1)& (0+255),w,b
  1136   0013EE  12DF               	iorwf	indf2,f,c
  1137                           
  1138                           ;MCAL_Layer/GPIO/hal_gpio.c: 37:                 break;
  1139   0013F0  EF1A  F00A         	goto	l4335
  1140   0013F4                     l4333:
  1141                           
  1142                           ; BSR set to: 0
  1143   0013F4  506D               	movf	gpio_pin_direction_initialize@_pin_config^0,w,c
  1144   0013F6  6ED9               	movwf	fsr2l,c
  1145   0013F8  6ADA               	clrf	fsr2h,c
  1146   0013FA  BCDF               	btfsc	indf2,6,c
  1147   0013FC  EF02  F00A         	goto	u3401
  1148   001400  EF05  F00A         	goto	u3400
  1149   001404                     u3401:
  1150   001404  0E01               	movlw	1
  1151   001406  EF06  F00A         	goto	u3410
  1152   00140A                     u3400:
  1153   00140A  0E00               	movlw	0
  1154   00140C                     u3410:
  1155   00140C  6F80               	movwf	??_gpio_pin_direction_initialize& (0+255),b
  1156   00140E  6B81               	clrf	(??_gpio_pin_direction_initialize+1)& (0+255),b
  1157                           
  1158                           ; Switch on 2 bytes has been partitioned into a top level switch of size 1, and 1 sub-sw
      +                          itches
  1159                           ; Switch size 1, requested type "simple"
  1160                           ; Number of cases is 1, Range of values is 0 to 0
  1161                           ; switch strategies available:
  1162                           ; Name         Instructions Cycles
  1163                           ; simple_byte            4     3 (average)
  1164                           ;	Chosen strategy is simple_byte
  1165   001410  5181               	movf	(??_gpio_pin_direction_initialize+1)& (0+255),w,b
  1166   001412  0A00               	xorlw	0	; case 0
  1167   001414  B4D8               	btfsc	status,2,c
  1168   001416  EF0F  F00A         	goto	l5161
  1169   00141A  EFA1  F009         	goto	l4325
  1170   00141E                     l5161:
  1171                           
  1172                           ; BSR set to: 0
  1173                           ; Switch size 1, requested type "simple"
  1174                           ; Number of cases is 2, Range of values is 0 to 1
  1175                           ; switch strategies available:
  1176                           ; Name         Instructions Cycles
  1177                           ; simple_byte            7     4 (average)
  1178                           ;	Chosen strategy is simple_byte
  1179   00141E  5180               	movf	??_gpio_pin_direction_initialize& (0+255),w,b
  1180   001420  0A00               	xorlw	0	; case 0
  1181   001422  B4D8               	btfsc	status,2,c
  1182   001424  EFA5  F009         	goto	l4327
  1183   001428  0A01               	xorlw	1	; case 1
  1184   00142A  B4D8               	btfsc	status,2,c
  1185   00142C  EFD1  F009         	goto	l4329
  1186   001430  EFA1  F009         	goto	l4325
  1187   001434                     l4335:
  1188                           
  1189                           ;MCAL_Layer/GPIO/hal_gpio.c: 42:     return ret;
  1190   001434  506E               	movf	gpio_pin_direction_initialize@ret^0,w,c
  1191   001436  0012               	return		;funcret
  1192   001438                     __end_of_gpio_pin_direction_initialize:
  1193                           	callstack 0
  1194                           
  1195 ;; *************** function _TIMER0_Init *****************
  1196 ;; Defined at:
  1197 ;;		line 20 in file "MCAL_Layer/Timer0/timer0.c"
  1198 ;; Parameters:    Size  Location     Type
  1199 ;;  _timer0         1   16[COMRAM] PTR const struct .
  1200 ;;		 -> timer0_obj(7), 
  1201 ;; Auto vars:     Size  Location     Type
  1202 ;;  ret             1   17[COMRAM] unsigned char 
  1203 ;; Return value:  Size  Location     Type
  1204 ;;                  1    wreg      unsigned char 
  1205 ;; Registers used:
  1206 ;;		wreg, fsr2l, fsr2h, status,2, status,0, cstack
  1207 ;; Tracked objects:
  1208 ;;		On entry : 0/0
  1209 ;;		On exit  : 0/0
  1210 ;;		Unchanged: 0/0
  1211 ;; Data sizes:     COMRAM   BANK0   BANK1   BANK2   BANK3   BANK4   BANK5   BANK6   BANK7   BANK8   BANK9  BANK10  BANK1
      +1  BANK12  BANK13  BANK14  BANK15
  1212 ;;      Params:         1       0       0       0       0       0       0       0       0       0       0       0       
      +0       0       0       0       0
  1213 ;;      Locals:         1       0       0       0       0       0       0       0       0       0       0       0       
      +0       0       0       0       0
  1214 ;;      Temps:          0       2       0       0       0       0       0       0       0       0       0       0       
      +0       0       0       0       0
  1215 ;;      Totals:         2       2       0       0       0       0       0       0       0       0       0       0       
      +0       0       0       0       0
  1216 ;;Total ram usage:        4 bytes
  1217 ;; Hardware stack levels used: 1
  1218 ;; Hardware stack levels required when called: 6
  1219 ;; This function calls:
  1220 ;;		_Timer0_Mode_Select
  1221 ;;		_Timer0_Prescaler_Config
  1222 ;;		_Timer0_Register_Size_Config
  1223 ;; This function is called by:
  1224 ;;		_main
  1225 ;; This function uses a non-reentrant model
  1226 ;;
  1227                           
  1228                           	psect	text5
  1229   00154E                     __ptext5:
  1230                           	callstack 0
  1231   00154E                     _TIMER0_Init:
  1232                           	callstack 24
  1233   00154E                     
  1234                           ;MCAL_Layer/Timer0/timer0.c: 23:     if(((void*)0) == _timer0)
  1235   00154E  506F               	movf	TIMER0_Init@_timer0^0,w,c
  1236   001550  A4D8               	btfss	status,2,c
  1237   001552  EFAD  F00A         	goto	u3631
  1238   001556  EFAF  F00A         	goto	u3630
  1239   00155A                     u3631:
  1240   00155A  EFB3  F00A         	goto	l931
  1241   00155E                     u3630:
  1242   00155E                     
  1243                           ;MCAL_Layer/Timer0/timer0.c: 24:     {;MCAL_Layer/Timer0/timer0.c: 25:         ret = (St
      +                          d_ReturnType)0x00;
  1244   00155E  0E00               	movlw	0
  1245   001560  6E70               	movwf	TIMER0_Init@ret^0,c
  1246                           
  1247                           ;MCAL_Layer/Timer0/timer0.c: 26:     }
  1248   001562  EFED  F00A         	goto	l4563
  1249   001566                     l931:
  1250                           
  1251                           ;MCAL_Layer/Timer0/timer0.c: 28:     {;MCAL_Layer/Timer0/timer0.c: 30:         (T0CONbit
      +                          s.TMR0ON = 0);
  1252   001566  9ED5               	bcf	213,7,c	;volatile
  1253   001568                     
  1254                           ;MCAL_Layer/Timer0/timer0.c: 33:         Timer0_Prescaler_Config(_timer0);
  1255   001568  C06F  F06D         	movff	TIMER0_Init@_timer0,Timer0_Prescaler_Config@_timer0
  1256   00156C  EC08  F00C         	call	_Timer0_Prescaler_Config	;wreg free
  1257                           
  1258                           ;MCAL_Layer/Timer0/timer0.c: 36:         Timer0_Mode_Select(_timer0);
  1259   001570  C06F  F06D         	movff	TIMER0_Init@_timer0,Timer0_Mode_Select@_timer0
  1260   001574  EC30  F00B         	call	_Timer0_Mode_Select	;wreg free
  1261                           
  1262                           ;MCAL_Layer/Timer0/timer0.c: 39:         Timer0_Register_Size_Config(_timer0);
  1263   001578  C06F  F06D         	movff	TIMER0_Init@_timer0,Timer0_Register_Size_Config@_timer0
  1264   00157C  EC31  F00C         	call	_Timer0_Register_Size_Config	;wreg free
  1265   001580                     
  1266                           ;MCAL_Layer/Timer0/timer0.c: 42:         TMR0L = (uint8)(_timer0->timer0_preloaded_value
      +                          );
  1267   001580  506F               	movf	TIMER0_Init@_timer0^0,w,c
  1268   001582  6ED9               	movwf	fsr2l,c
  1269   001584  6ADA               	clrf	fsr2h,c
  1270   001586  0E03               	movlw	3
  1271   001588  26D9               	addwf	fsr2l,f,c
  1272   00158A  50DF               	movf	indf2,w,c
  1273   00158C  6ED6               	movwf	214,c	;volatile
  1274   00158E                     
  1275                           ;MCAL_Layer/Timer0/timer0.c: 43:         TMR0H = (_timer0->timer0_preloaded_value) >> 8;
  1276   00158E  506F               	movf	TIMER0_Init@_timer0^0,w,c
  1277   001590  6ED9               	movwf	fsr2l,c
  1278   001592  6ADA               	clrf	fsr2h,c
  1279   001594  0E03               	movlw	3
  1280   001596  26D9               	addwf	fsr2l,f,c
  1281   001598  CFDE F080          	movff	postinc2,??_TIMER0_Init
  1282   00159C  CFDD F081          	movff	postdec2,??_TIMER0_Init+1
  1283   0015A0  C081  F080         	movff	??_TIMER0_Init+1,??_TIMER0_Init
  1284   0015A4  0100               	movlb	0	; () banked
  1285   0015A6  6B81               	clrf	(??_TIMER0_Init+1)& (0+255),b
  1286   0015A8  5180               	movf	??_TIMER0_Init& (0+255),w,b
  1287   0015AA  6ED7               	movwf	215,c	;volatile
  1288   0015AC                     
  1289                           ; BSR set to: 0
  1290                           ;MCAL_Layer/Timer0/timer0.c: 44:         timer0_preload = _timer0->timer0_preloaded_valu
      +                          e;
  1291   0015AC  506F               	movf	TIMER0_Init@_timer0^0,w,c
  1292   0015AE  6ED9               	movwf	fsr2l,c
  1293   0015B0  6ADA               	clrf	fsr2h,c
  1294   0015B2  0E03               	movlw	3
  1295   0015B4  26D9               	addwf	fsr2l,f,c
  1296   0015B6  CFDE F038          	movff	postinc2,_timer0_preload
  1297   0015BA  CFDD F039          	movff	postdec2,_timer0_preload+1
  1298   0015BE                     
  1299                           ; BSR set to: 0
  1300                           ;MCAL_Layer/Timer0/timer0.c: 48:         (INTCONbits.TMR0IE = 1);
  1301   0015BE  8AF2               	bsf	242,5,c	;volatile
  1302   0015C0                     
  1303                           ; BSR set to: 0
  1304                           ;MCAL_Layer/Timer0/timer0.c: 49:         (INTCONbits.TMR0IF = 0);
  1305   0015C0  94F2               	bcf	242,2,c	;volatile
  1306   0015C2                     
  1307                           ; BSR set to: 0
  1308                           ;MCAL_Layer/Timer0/timer0.c: 50:         TMR0_InterruptHandler = _timer0->TMR0_Interrupt
      +                          Handler;
  1309   0015C2  506F               	movf	TIMER0_Init@_timer0^0,w,c
  1310   0015C4  6ED9               	movwf	fsr2l,c
  1311   0015C6  6ADA               	clrf	fsr2h,c
  1312   0015C8  CFDE F03A          	movff	postinc2,_TMR0_InterruptHandler
  1313   0015CC  CFDD F03B          	movff	postdec2,_TMR0_InterruptHandler+1
  1314   0015D0                     
  1315                           ; BSR set to: 0
  1316                           ;MCAL_Layer/Timer0/timer0.c: 66:         (INTCONbits.GIE = 1);
  1317   0015D0  8EF2               	bsf	242,7,c	;volatile
  1318   0015D2                     
  1319                           ; BSR set to: 0
  1320                           ;MCAL_Layer/Timer0/timer0.c: 67:         (INTCONbits.PEIE = 1);
  1321   0015D2  8CF2               	bsf	242,6,c	;volatile
  1322   0015D4                     
  1323                           ; BSR set to: 0
  1324                           ;MCAL_Layer/Timer0/timer0.c: 73:         (T0CONbits.TMR0ON = 1);
  1325   0015D4  8ED5               	bsf	213,7,c	;volatile
  1326   0015D6                     
  1327                           ; BSR set to: 0
  1328                           ;MCAL_Layer/Timer0/timer0.c: 74:         ret = (Std_ReturnType)0x01;
  1329   0015D6  0E01               	movlw	1
  1330   0015D8  6E70               	movwf	TIMER0_Init@ret^0,c
  1331   0015DA                     l4563:
  1332                           
  1333                           ;MCAL_Layer/Timer0/timer0.c: 76:     return ret;
  1334   0015DA  5070               	movf	TIMER0_Init@ret^0,w,c
  1335   0015DC  0012               	return		;funcret
  1336   0015DE                     __end_of_TIMER0_Init:
  1337                           	callstack 0
  1338                           
  1339 ;; *************** function _Timer0_Register_Size_Config *****************
  1340 ;; Defined at:
  1341 ;;		line 182 in file "MCAL_Layer/Timer0/timer0.c"
  1342 ;; Parameters:    Size  Location     Type
  1343 ;;  _timer0         1   14[COMRAM] PTR const struct .
  1344 ;;		 -> timer0_obj(7), 
  1345 ;; Auto vars:     Size  Location     Type
  1346 ;;		None
  1347 ;; Return value:  Size  Location     Type
  1348 ;;                  1    wreg      void 
  1349 ;; Registers used:
  1350 ;;		wreg, fsr2l, fsr2h, status,2, status,0
  1351 ;; Tracked objects:
  1352 ;;		On entry : 0/0
  1353 ;;		On exit  : 0/0
  1354 ;;		Unchanged: 0/0
  1355 ;; Data sizes:     COMRAM   BANK0   BANK1   BANK2   BANK3   BANK4   BANK5   BANK6   BANK7   BANK8   BANK9  BANK10  BANK1
      +1  BANK12  BANK13  BANK14  BANK15
  1356 ;;      Params:         1       0       0       0       0       0       0       0       0       0       0       0       
      +0       0       0       0       0
  1357 ;;      Locals:         0       0       0       0       0       0       0       0       0       0       0       0       
      +0       0       0       0       0
  1358 ;;      Temps:          0       0       0       0       0       0       0       0       0       0       0       0       
      +0       0       0       0       0
  1359 ;;      Totals:         1       0       0       0       0       0       0       0       0       0       0       0       
      +0       0       0       0       0
  1360 ;;Total ram usage:        1 bytes
  1361 ;; Hardware stack levels used: 1
  1362 ;; Hardware stack levels required when called: 5
  1363 ;; This function calls:
  1364 ;;		Nothing
  1365 ;; This function is called by:
  1366 ;;		_TIMER0_Init
  1367 ;; This function uses a non-reentrant model
  1368 ;;
  1369                           
  1370                           	psect	text6
  1371   001862                     __ptext6:
  1372                           	callstack 0
  1373   001862                     _Timer0_Register_Size_Config:
  1374                           	callstack 24
  1375   001862                     
  1376                           ;MCAL_Layer/Timer0/timer0.c: 182: static __attribute__((inline)) void Timer0_Register_Si
      +                          ze_Config(const timer0_t *_timer0);MCAL_Layer/Timer0/timer0.c: 183: {;MCAL_Layer/Timer0/
      +                          timer0.c: 184:     if(1 == _timer0->timer0_register_size)
  1377   001862  506D               	movf	Timer0_Register_Size_Config@_timer0^0,w,c
  1378   001864  6ED9               	movwf	fsr2l,c
  1379   001866  6ADA               	clrf	fsr2h,c
  1380   001868  0E06               	movlw	6
  1381   00186A  26D9               	addwf	fsr2l,f,c
  1382   00186C  A6DF               	btfss	indf2,3,c
  1383   00186E  EF3B  F00C         	goto	u2351
  1384   001872  EF3D  F00C         	goto	u2350
  1385   001876                     u2351:
  1386   001876  EF40  F00C         	goto	l3539
  1387   00187A                     u2350:
  1388   00187A                     
  1389                           ;MCAL_Layer/Timer0/timer0.c: 185:     {;MCAL_Layer/Timer0/timer0.c: 186:         (T0CONb
      +                          its.T08BIT = 1);
  1390   00187A  8CD5               	bsf	213,6,c	;volatile
  1391                           
  1392                           ;MCAL_Layer/Timer0/timer0.c: 187:     }
  1393   00187C  EF4D  F00C         	goto	l978
  1394   001880                     l3539:
  1395   001880  506D               	movf	Timer0_Register_Size_Config@_timer0^0,w,c
  1396   001882  6ED9               	movwf	fsr2l,c
  1397   001884  6ADA               	clrf	fsr2h,c
  1398   001886  0E06               	movlw	6
  1399   001888  26D9               	addwf	fsr2l,f,c
  1400   00188A  B6DF               	btfsc	indf2,3,c
  1401   00188C  EF4A  F00C         	goto	u2361
  1402   001890  EF4C  F00C         	goto	u2360
  1403   001894                     u2361:
  1404   001894  EF4D  F00C         	goto	l978
  1405   001898                     u2360:
  1406   001898                     
  1407                           ;MCAL_Layer/Timer0/timer0.c: 189:     {;MCAL_Layer/Timer0/timer0.c: 190:         (T0CONb
      +                          its.T08BIT = 0);
  1408   001898  9CD5               	bcf	213,6,c	;volatile
  1409   00189A                     l978:
  1410   00189A  0012               	return		;funcret
  1411   00189C                     __end_of_Timer0_Register_Size_Config:
  1412                           	callstack 0
  1413                           
  1414 ;; *************** function _Timer0_Prescaler_Config *****************
  1415 ;; Defined at:
  1416 ;;		line 143 in file "MCAL_Layer/Timer0/timer0.c"
  1417 ;; Parameters:    Size  Location     Type
  1418 ;;  _timer0         1   14[COMRAM] PTR const struct .
  1419 ;;		 -> timer0_obj(7), 
  1420 ;; Auto vars:     Size  Location     Type
  1421 ;;		None
  1422 ;; Return value:  Size  Location     Type
  1423 ;;                  1    wreg      void 
  1424 ;; Registers used:
  1425 ;;		wreg, fsr2l, fsr2h, status,2, status,0
  1426 ;; Tracked objects:
  1427 ;;		On entry : 0/0
  1428 ;;		On exit  : 0/0
  1429 ;;		Unchanged: 0/0
  1430 ;; Data sizes:     COMRAM   BANK0   BANK1   BANK2   BANK3   BANK4   BANK5   BANK6   BANK7   BANK8   BANK9  BANK10  BANK1
      +1  BANK12  BANK13  BANK14  BANK15
  1431 ;;      Params:         1       0       0       0       0       0       0       0       0       0       0       0       
      +0       0       0       0       0
  1432 ;;      Locals:         0       0       0       0       0       0       0       0       0       0       0       0       
      +0       0       0       0       0
  1433 ;;      Temps:          1       0       0       0       0       0       0       0       0       0       0       0       
      +0       0       0       0       0
  1434 ;;      Totals:         2       0       0       0       0       0       0       0       0       0       0       0       
      +0       0       0       0       0
  1435 ;;Total ram usage:        2 bytes
  1436 ;; Hardware stack levels used: 1
  1437 ;; Hardware stack levels required when called: 5
  1438 ;; This function calls:
  1439 ;;		Nothing
  1440 ;; This function is called by:
  1441 ;;		_TIMER0_Init
  1442 ;; This function uses a non-reentrant model
  1443 ;;
  1444                           
  1445                           	psect	text7
  1446   001810                     __ptext7:
  1447                           	callstack 0
  1448   001810                     _Timer0_Prescaler_Config:
  1449                           	callstack 24
  1450   001810                     
  1451                           ;MCAL_Layer/Timer0/timer0.c: 143: static __attribute__((inline)) void Timer0_Prescaler_C
      +                          onfig(const timer0_t *_timer0);MCAL_Layer/Timer0/timer0.c: 144: {;MCAL_Layer/Timer0/time
      +                          r0.c: 145:     if(1 == _timer0->prescaler_enable)
  1452   001810  506D               	movf	Timer0_Prescaler_Config@_timer0^0,w,c
  1453   001812  6ED9               	movwf	fsr2l,c
  1454   001814  6ADA               	clrf	fsr2h,c
  1455   001816  0E06               	movlw	6
  1456   001818  26D9               	addwf	fsr2l,f,c
  1457   00181A  A2DF               	btfss	indf2,1,c
  1458   00181C  EF12  F00C         	goto	u2291
  1459   001820  EF14  F00C         	goto	u2290
  1460   001824                     u2291:
  1461   001824  EF23  F00C         	goto	l3515
  1462   001828                     u2290:
  1463   001828                     
  1464                           ;MCAL_Layer/Timer0/timer0.c: 146:     {;MCAL_Layer/Timer0/timer0.c: 147:         (T0CONb
      +                          its.PSA = 0);
  1465   001828  96D5               	bcf	213,3,c	;volatile
  1466   00182A                     
  1467                           ;MCAL_Layer/Timer0/timer0.c: 148:         T0CONbits.T0PS = _timer0->prescaler_value;
  1468   00182A  506D               	movf	Timer0_Prescaler_Config@_timer0^0,w,c
  1469   00182C  6ED9               	movwf	fsr2l,c
  1470   00182E  6ADA               	clrf	fsr2h,c
  1471   001830  0E05               	movlw	5
  1472   001832  26D9               	addwf	fsr2l,f,c
  1473   001834  50DF               	movf	indf2,w,c
  1474   001836  6E6E               	movwf	??_Timer0_Prescaler_Config^0,c
  1475   001838  50D5               	movf	213,w,c	;volatile
  1476   00183A  186E               	xorwf	??_Timer0_Prescaler_Config^0,w,c
  1477   00183C  0BF8               	andlw	-8
  1478   00183E  186E               	xorwf	??_Timer0_Prescaler_Config^0,w,c
  1479   001840  6ED5               	movwf	213,c	;volatile
  1480                           
  1481                           ;MCAL_Layer/Timer0/timer0.c: 149:     }
  1482   001842  EF30  F00C         	goto	l960
  1483   001846                     l3515:
  1484   001846  506D               	movf	Timer0_Prescaler_Config@_timer0^0,w,c
  1485   001848  6ED9               	movwf	fsr2l,c
  1486   00184A  6ADA               	clrf	fsr2h,c
  1487   00184C  0E06               	movlw	6
  1488   00184E  26D9               	addwf	fsr2l,f,c
  1489   001850  B2DF               	btfsc	indf2,1,c
  1490   001852  EF2D  F00C         	goto	u2301
  1491   001856  EF2F  F00C         	goto	u2300
  1492   00185A                     u2301:
  1493   00185A  EF30  F00C         	goto	l960
  1494   00185E                     u2300:
  1495   00185E                     
  1496                           ;MCAL_Layer/Timer0/timer0.c: 151:     {;MCAL_Layer/Timer0/timer0.c: 152:         (T0CONb
      +                          its.PSA = 1);
  1497   00185E  86D5               	bsf	213,3,c	;volatile
  1498   001860                     l960:
  1499   001860  0012               	return		;funcret
  1500   001862                     __end_of_Timer0_Prescaler_Config:
  1501                           	callstack 0
  1502                           
  1503 ;; *************** function _Timer0_Mode_Select *****************
  1504 ;; Defined at:
  1505 ;;		line 157 in file "MCAL_Layer/Timer0/timer0.c"
  1506 ;; Parameters:    Size  Location     Type
  1507 ;;  _timer0         1   14[COMRAM] PTR const struct .
  1508 ;;		 -> timer0_obj(7), 
  1509 ;; Auto vars:     Size  Location     Type
  1510 ;;		None
  1511 ;; Return value:  Size  Location     Type
  1512 ;;                  1    wreg      void 
  1513 ;; Registers used:
  1514 ;;		wreg, fsr2l, fsr2h, status,2, status,0
  1515 ;; Tracked objects:
  1516 ;;		On entry : 0/0
  1517 ;;		On exit  : 0/0
  1518 ;;		Unchanged: 0/0
  1519 ;; Data sizes:     COMRAM   BANK0   BANK1   BANK2   BANK3   BANK4   BANK5   BANK6   BANK7   BANK8   BANK9  BANK10  BANK1
      +1  BANK12  BANK13  BANK14  BANK15
  1520 ;;      Params:         1       0       0       0       0       0       0       0       0       0       0       0       
      +0       0       0       0       0
  1521 ;;      Locals:         0       0       0       0       0       0       0       0       0       0       0       0       
      +0       0       0       0       0
  1522 ;;      Temps:          0       0       0       0       0       0       0       0       0       0       0       0       
      +0       0       0       0       0
  1523 ;;      Totals:         1       0       0       0       0       0       0       0       0       0       0       0       
      +0       0       0       0       0
  1524 ;;Total ram usage:        1 bytes
  1525 ;; Hardware stack levels used: 1
  1526 ;; Hardware stack levels required when called: 5
  1527 ;; This function calls:
  1528 ;;		Nothing
  1529 ;; This function is called by:
  1530 ;;		_TIMER0_Init
  1531 ;; This function uses a non-reentrant model
  1532 ;;
  1533                           
  1534                           	psect	text8
  1535   001660                     __ptext8:
  1536                           	callstack 0
  1537   001660                     _Timer0_Mode_Select:
  1538                           	callstack 24
  1539   001660                     
  1540                           ;MCAL_Layer/Timer0/timer0.c: 157: static __attribute__((inline)) void Timer0_Mode_Select
      +                          (const timer0_t *_timer0);MCAL_Layer/Timer0/timer0.c: 158: {;MCAL_Layer/Timer0/timer0.c:
      +                           159:     if(1 == _timer0->timer0_mode)
  1541   001660  506D               	movf	Timer0_Mode_Select@_timer0^0,w,c
  1542   001662  6ED9               	movwf	fsr2l,c
  1543   001664  6ADA               	clrf	fsr2h,c
  1544   001666  0E06               	movlw	6
  1545   001668  26D9               	addwf	fsr2l,f,c
  1546   00166A  A4DF               	btfss	indf2,2,c
  1547   00166C  EF3A  F00B         	goto	u2311
  1548   001670  EF3C  F00B         	goto	u2310
  1549   001674                     u2311:
  1550   001674  EF40  F00B         	goto	l3523
  1551   001678                     u2310:
  1552   001678                     
  1553                           ;MCAL_Layer/Timer0/timer0.c: 160:     {;MCAL_Layer/Timer0/timer0.c: 161:         (T0CONb
      +                          its.T0CS = 0);
  1554   001678  9AD5               	bcf	213,5,c	;volatile
  1555                           
  1556                           ;MCAL_Layer/Timer0/timer0.c: 162:         (T0CONbits.T0SE = 0);
  1557   00167A  98D5               	bcf	213,4,c	;volatile
  1558                           
  1559                           ;MCAL_Layer/Timer0/timer0.c: 164:     }
  1560   00167C  EF6B  F00B         	goto	l971
  1561   001680                     l3523:
  1562   001680  506D               	movf	Timer0_Mode_Select@_timer0^0,w,c
  1563   001682  6ED9               	movwf	fsr2l,c
  1564   001684  6ADA               	clrf	fsr2h,c
  1565   001686  0E06               	movlw	6
  1566   001688  26D9               	addwf	fsr2l,f,c
  1567   00168A  B4DF               	btfsc	indf2,2,c
  1568   00168C  EF4A  F00B         	goto	u2321
  1569   001690  EF4C  F00B         	goto	u2320
  1570   001694                     u2321:
  1571   001694  EF6B  F00B         	goto	l971
  1572   001698                     u2320:
  1573   001698                     
  1574                           ;MCAL_Layer/Timer0/timer0.c: 166:     {;MCAL_Layer/Timer0/timer0.c: 167:         (T0CONb
      +                          its.T0CS = 1);
  1575   001698  8AD5               	bsf	213,5,c	;volatile
  1576   00169A                     
  1577                           ;MCAL_Layer/Timer0/timer0.c: 169:         if(1 == _timer0->timer0_counter_edge)
  1578   00169A  506D               	movf	Timer0_Mode_Select@_timer0^0,w,c
  1579   00169C  6ED9               	movwf	fsr2l,c
  1580   00169E  6ADA               	clrf	fsr2h,c
  1581   0016A0  0E06               	movlw	6
  1582   0016A2  26D9               	addwf	fsr2l,f,c
  1583   0016A4  A0DF               	btfss	indf2,0,c
  1584   0016A6  EF57  F00B         	goto	u2331
  1585   0016AA  EF59  F00B         	goto	u2330
  1586   0016AE                     u2331:
  1587   0016AE  EF5C  F00B         	goto	l3531
  1588   0016B2                     u2330:
  1589   0016B2                     
  1590                           ;MCAL_Layer/Timer0/timer0.c: 170:         {;MCAL_Layer/Timer0/timer0.c: 171:            
      +                           (T0CONbits.T0SE = 1);
  1591   0016B2  88D5               	bsf	213,4,c	;volatile
  1592                           
  1593                           ;MCAL_Layer/Timer0/timer0.c: 172:         }
  1594   0016B4  EF6B  F00B         	goto	l971
  1595   0016B8                     l3531:
  1596   0016B8  506D               	movf	Timer0_Mode_Select@_timer0^0,w,c
  1597   0016BA  6ED9               	movwf	fsr2l,c
  1598   0016BC  6ADA               	clrf	fsr2h,c
  1599   0016BE  0E06               	movlw	6
  1600   0016C0  26D9               	addwf	fsr2l,f,c
  1601   0016C2  B0DF               	btfsc	indf2,0,c
  1602   0016C4  EF66  F00B         	goto	u2341
  1603   0016C8  EF68  F00B         	goto	u2340
  1604   0016CC                     u2341:
  1605   0016CC  EF6B  F00B         	goto	l970
  1606   0016D0                     u2340:
  1607   0016D0                     
  1608                           ;MCAL_Layer/Timer0/timer0.c: 174:         {;MCAL_Layer/Timer0/timer0.c: 175:            
      +                           (T0CONbits.T0SE = 0);
  1609   0016D0  98D5               	bcf	213,4,c	;volatile
  1610                           
  1611                           ;MCAL_Layer/Timer0/timer0.c: 176:         }
  1612   0016D2  EF6B  F00B         	goto	l971
  1613   0016D6                     l970:
  1614   0016D6                     l971:
  1615   0016D6  0012               	return		;funcret
  1616   0016D8                     __end_of_Timer0_Mode_Select:
  1617                           	callstack 0
  1618                           
  1619 ;; *************** function _InterruptManager *****************
  1620 ;; Defined at:
  1621 ;;		line 33 in file "MCAL_Layer/Interrupt/mcal_interrupt_manager.c"
  1622 ;; Parameters:    Size  Location     Type
  1623 ;;		None
  1624 ;; Auto vars:     Size  Location     Type
  1625 ;;		None
  1626 ;; Return value:  Size  Location     Type
  1627 ;;                  1    wreg      void 
  1628 ;; Registers used:
  1629 ;;		wreg, fsr2l, fsr2h, status,2, status,0, pcl, pclath, pclatu, tosl, prodl, prodh, cstack
  1630 ;; Tracked objects:
  1631 ;;		On entry : 0/0
  1632 ;;		On exit  : 0/0
  1633 ;;		Unchanged: 0/0
  1634 ;; Data sizes:     COMRAM   BANK0   BANK1   BANK2   BANK3   BANK4   BANK5   BANK6   BANK7   BANK8   BANK9  BANK10  BANK1
      +1  BANK12  BANK13  BANK14  BANK15
  1635 ;;      Params:         0       0       0       0       0       0       0       0       0       0       0       0       
      +0       0       0       0       0
  1636 ;;      Locals:         0       0       0       0       0       0       0       0       0       0       0       0       
      +0       0       0       0       0
  1637 ;;      Temps:          6       0       0       0       0       0       0       0       0       0       0       0       
      +0       0       0       0       0
  1638 ;;      Totals:         6       0       0       0       0       0       0       0       0       0       0       0       
      +0       0       0       0       0
  1639 ;;Total ram usage:        6 bytes
  1640 ;; Hardware stack levels used: 1
  1641 ;; Hardware stack levels required when called: 4
  1642 ;; This function calls:
  1643 ;;		_ADC_ISR
  1644 ;;		_INT0_ISR
  1645 ;;		_INT1_ISR
  1646 ;;		_INT2_ISR
  1647 ;;		_RB4_ISR
  1648 ;;		_RB5_ISR
  1649 ;;		_RB6_ISR
  1650 ;;		_RB7_ISR
  1651 ;;		_TMR0_ISR
  1652 ;; This function is called by:
  1653 ;;		Interrupt level 2
  1654 ;; This function uses a non-reentrant model
  1655 ;;
  1656                           
  1657                           	psect	intcode
  1658   000008                     __pintcode:
  1659                           	callstack 0
  1660   000008                     _InterruptManager:
  1661                           	callstack 23
  1662                           
  1663                           ;incstack = 0
  1664   000008  8271               	bsf	int$flags,1,c	;set compiler interrupt flag (level 2)
  1665   00000A  ED0B  F008         	call	int_func,f	;refresh shadow registers
  1666                           
  1667                           	psect	intcode_body
  1668   001016                     __pintcode_body:
  1669                           	callstack 23
  1670   001016                     int_func:
  1671                           	callstack 23
  1672   001016  0006               	pop		; remove dummy address from shadow register refresh
  1673   001018  CFFA F067          	movff	pclath,??_InterruptManager
  1674   00101C  CFFB F068          	movff	pclatu,??_InterruptManager+1
  1675   001020  CFD9 F069          	movff	fsr2l,??_InterruptManager+2
  1676   001024  CFDA F06A          	movff	fsr2h,??_InterruptManager+3
  1677   001028  CFF3 F06B          	movff	prodl,??_InterruptManager+4
  1678   00102C  CFF4 F06C          	movff	prodh,??_InterruptManager+5
  1679   001030                     
  1680                           ;MCAL_Layer/Interrupt/mcal_interrupt_manager.c: 34:     if((1 == INTCONbits.INT0IE) && (
      +                          1 == INTCONbits.INT0IF)){
  1681   001030  A8F2               	btfss	242,4,c	;volatile
  1682   001032  EF1D  F008         	goto	i2u294_41
  1683   001036  EF1F  F008         	goto	i2u294_40
  1684   00103A                     i2u294_41:
  1685   00103A  EF28  F008         	goto	i2l858
  1686   00103E                     i2u294_40:
  1687   00103E  A2F2               	btfss	242,1,c	;volatile
  1688   001040  EF24  F008         	goto	i2u295_41
  1689   001044  EF26  F008         	goto	i2u295_40
  1690   001048                     i2u295_41:
  1691   001048  EF28  F008         	goto	i2l858
  1692   00104C                     i2u295_40:
  1693   00104C                     
  1694                           ;MCAL_Layer/Interrupt/mcal_interrupt_manager.c: 35:         INT0_ISR();
  1695   00104C  ECE7  F00C         	call	_INT0_ISR	;wreg free
  1696   001050                     i2l858:
  1697                           
  1698                           ;MCAL_Layer/Interrupt/mcal_interrupt_manager.c: 38:     if((1 == INTCON3bits.INT1E) && (
      +                          1 == INTCON3bits.INT1F)){
  1699   001050  A6F0               	btfss	240,3,c	;volatile
  1700   001052  EF2D  F008         	goto	i2u296_41
  1701   001056  EF2F  F008         	goto	i2u296_40
  1702   00105A                     i2u296_41:
  1703   00105A  EF38  F008         	goto	i2l860
  1704   00105E                     i2u296_40:
  1705   00105E  A0F0               	btfss	240,0,c	;volatile
  1706   001060  EF34  F008         	goto	i2u297_41
  1707   001064  EF36  F008         	goto	i2u297_40
  1708   001068                     i2u297_41:
  1709   001068  EF38  F008         	goto	i2l860
  1710   00106C                     i2u297_40:
  1711   00106C                     
  1712                           ;MCAL_Layer/Interrupt/mcal_interrupt_manager.c: 39:         INT1_ISR();
  1713   00106C  ECE5  F00C         	call	_INT1_ISR	;wreg free
  1714   001070                     i2l860:
  1715                           
  1716                           ;MCAL_Layer/Interrupt/mcal_interrupt_manager.c: 42:     if((1 == INTCON3bits.INT2IE) && 
      +                          (1 == INTCON3bits.INT2IF)){
  1717   001070  A8F0               	btfss	240,4,c	;volatile
  1718   001072  EF3D  F008         	goto	i2u298_41
  1719   001076  EF3F  F008         	goto	i2u298_40
  1720   00107A                     i2u298_41:
  1721   00107A  EF48  F008         	goto	i2l862
  1722   00107E                     i2u298_40:
  1723   00107E  A2F0               	btfss	240,1,c	;volatile
  1724   001080  EF44  F008         	goto	i2u299_41
  1725   001084  EF46  F008         	goto	i2u299_40
  1726   001088                     i2u299_41:
  1727   001088  EF48  F008         	goto	i2l862
  1728   00108C                     i2u299_40:
  1729   00108C                     
  1730                           ;MCAL_Layer/Interrupt/mcal_interrupt_manager.c: 43:         INT2_ISR();
  1731   00108C  ECE3  F00C         	call	_INT2_ISR	;wreg free
  1732   001090                     i2l862:
  1733                           
  1734                           ;MCAL_Layer/Interrupt/mcal_interrupt_manager.c: 49:     if((1 == INTCONbits.RBIE) && (1 
      +                          == INTCONbits.RBIF )
  1735   001090  A6F2               	btfss	242,3,c	;volatile
  1736   001092  EF4D  F008         	goto	i2u300_41
  1737   001096  EF4F  F008         	goto	i2u300_40
  1738   00109A                     i2u300_41:
  1739   00109A  EF6A  F008         	goto	i2l864
  1740   00109E                     i2u300_40:
  1741   00109E  A0F2               	btfss	242,0,c	;volatile
  1742   0010A0  EF54  F008         	goto	i2u301_41
  1743   0010A4  EF56  F008         	goto	i2u301_40
  1744   0010A8                     i2u301_41:
  1745   0010A8  EF6A  F008         	goto	i2l864
  1746   0010AC                     i2u301_40:
  1747   0010AC  A881               	btfss	129,4,c	;volatile
  1748   0010AE  EF5B  F008         	goto	i2u302_41
  1749   0010B2  EF5D  F008         	goto	i2u302_40
  1750   0010B6                     i2u302_41:
  1751   0010B6  EF6A  F008         	goto	i2l864
  1752   0010BA                     i2u302_40:
  1753   0010BA  0429               	decf	_RB4_Flag^0,w,c	;volatile
  1754   0010BC  A4D8               	btfss	status,2,c
  1755   0010BE  EF63  F008         	goto	i2u303_41
  1756   0010C2  EF65  F008         	goto	i2u303_40
  1757   0010C6                     i2u303_41:
  1758   0010C6  EF6A  F008         	goto	i2l864
  1759   0010CA                     i2u303_40:
  1760   0010CA                     
  1761                           ;MCAL_Layer/Interrupt/mcal_interrupt_manager.c: 50:     && (PORTBbits.RB4 == GPIO_HIGH) 
      +                          && (RB4_Flag == 1)){;MCAL_Layer/Interrupt/mcal_interrupt_manager.c: 51:         RB4_Flag
      +                           = 0;
  1762   0010CA  0E00               	movlw	0
  1763   0010CC  6E29               	movwf	_RB4_Flag^0,c	;volatile
  1764   0010CE                     
  1765                           ;MCAL_Layer/Interrupt/mcal_interrupt_manager.c: 52:         RB4_ISR(0);
  1766   0010CE  0E00               	movlw	0
  1767   0010D0  ECD1  F00C         	call	_RB4_ISR
  1768   0010D4                     i2l864:
  1769                           
  1770                           ;MCAL_Layer/Interrupt/mcal_interrupt_manager.c: 55:     if((1 == INTCONbits.RBIE) && (1 
      +                          == INTCONbits.RBIF )
  1771   0010D4  A6F2               	btfss	242,3,c	;volatile
  1772   0010D6  EF6F  F008         	goto	i2u304_41
  1773   0010DA  EF71  F008         	goto	i2u304_40
  1774   0010DE                     i2u304_41:
  1775   0010DE  EF8C  F008         	goto	i2l866
  1776   0010E2                     i2u304_40:
  1777   0010E2  A0F2               	btfss	242,0,c	;volatile
  1778   0010E4  EF76  F008         	goto	i2u305_41
  1779   0010E8  EF78  F008         	goto	i2u305_40
  1780   0010EC                     i2u305_41:
  1781   0010EC  EF8C  F008         	goto	i2l866
  1782   0010F0                     i2u305_40:
  1783   0010F0  B881               	btfsc	129,4,c	;volatile
  1784   0010F2  EF7D  F008         	goto	i2u306_41
  1785   0010F6  EF7F  F008         	goto	i2u306_40
  1786   0010FA                     i2u306_41:
  1787   0010FA  EF8C  F008         	goto	i2l866
  1788   0010FE                     i2u306_40:
  1789   0010FE  5029               	movf	_RB4_Flag^0,w,c	;volatile
  1790   001100  A4D8               	btfss	status,2,c
  1791   001102  EF85  F008         	goto	i2u307_41
  1792   001106  EF87  F008         	goto	i2u307_40
  1793   00110A                     i2u307_41:
  1794   00110A  EF8C  F008         	goto	i2l866
  1795   00110E                     i2u307_40:
  1796   00110E                     
  1797                           ;MCAL_Layer/Interrupt/mcal_interrupt_manager.c: 56:     && (PORTBbits.RB4 == GPIO_LOW) &
      +                          & (RB4_Flag == 0)){;MCAL_Layer/Interrupt/mcal_interrupt_manager.c: 57:         RB4_Flag 
      +                          = 1;
  1798   00110E  0E01               	movlw	1
  1799   001110  6E29               	movwf	_RB4_Flag^0,c	;volatile
  1800   001112                     
  1801                           ;MCAL_Layer/Interrupt/mcal_interrupt_manager.c: 58:         RB4_ISR(1);
  1802   001112  0E01               	movlw	1
  1803   001114  ECD1  F00C         	call	_RB4_ISR
  1804   001118                     i2l866:
  1805                           
  1806                           ;MCAL_Layer/Interrupt/mcal_interrupt_manager.c: 62:     if((1 == INTCONbits.RBIE) && (1 
      +                          == INTCONbits.RBIF )
  1807   001118  A6F2               	btfss	242,3,c	;volatile
  1808   00111A  EF91  F008         	goto	i2u308_41
  1809   00111E  EF93  F008         	goto	i2u308_40
  1810   001122                     i2u308_41:
  1811   001122  EFAE  F008         	goto	i2l868
  1812   001126                     i2u308_40:
  1813   001126  A0F2               	btfss	242,0,c	;volatile
  1814   001128  EF98  F008         	goto	i2u309_41
  1815   00112C  EF9A  F008         	goto	i2u309_40
  1816   001130                     i2u309_41:
  1817   001130  EFAE  F008         	goto	i2l868
  1818   001134                     i2u309_40:
  1819   001134  AA81               	btfss	129,5,c	;volatile
  1820   001136  EF9F  F008         	goto	i2u310_41
  1821   00113A  EFA1  F008         	goto	i2u310_40
  1822   00113E                     i2u310_41:
  1823   00113E  EFAE  F008         	goto	i2l868
  1824   001142                     i2u310_40:
  1825   001142  0428               	decf	_RB5_Flag^0,w,c	;volatile
  1826   001144  A4D8               	btfss	status,2,c
  1827   001146  EFA7  F008         	goto	i2u311_41
  1828   00114A  EFA9  F008         	goto	i2u311_40
  1829   00114E                     i2u311_41:
  1830   00114E  EFAE  F008         	goto	i2l868
  1831   001152                     i2u311_40:
  1832   001152                     
  1833                           ;MCAL_Layer/Interrupt/mcal_interrupt_manager.c: 63:     && (PORTBbits.RB5 == GPIO_HIGH) 
      +                          && (RB5_Flag == 1)){;MCAL_Layer/Interrupt/mcal_interrupt_manager.c: 64:         RB5_Flag
      +                           = 0;
  1834   001152  0E00               	movlw	0
  1835   001154  6E28               	movwf	_RB5_Flag^0,c	;volatile
  1836   001156                     
  1837                           ;MCAL_Layer/Interrupt/mcal_interrupt_manager.c: 65:         RB5_ISR(0);
  1838   001156  0E00               	movlw	0
  1839   001158  ECC4  F00C         	call	_RB5_ISR
  1840   00115C                     i2l868:
  1841                           
  1842                           ;MCAL_Layer/Interrupt/mcal_interrupt_manager.c: 68:     if((1 == INTCONbits.RBIE) && (1 
      +                          == INTCONbits.RBIF )
  1843   00115C  A6F2               	btfss	242,3,c	;volatile
  1844   00115E  EFB3  F008         	goto	i2u312_41
  1845   001162  EFB5  F008         	goto	i2u312_40
  1846   001166                     i2u312_41:
  1847   001166  EFD0  F008         	goto	i2l870
  1848   00116A                     i2u312_40:
  1849   00116A  A0F2               	btfss	242,0,c	;volatile
  1850   00116C  EFBA  F008         	goto	i2u313_41
  1851   001170  EFBC  F008         	goto	i2u313_40
  1852   001174                     i2u313_41:
  1853   001174  EFD0  F008         	goto	i2l870
  1854   001178                     i2u313_40:
  1855   001178  BA81               	btfsc	129,5,c	;volatile
  1856   00117A  EFC1  F008         	goto	i2u314_41
  1857   00117E  EFC3  F008         	goto	i2u314_40
  1858   001182                     i2u314_41:
  1859   001182  EFD0  F008         	goto	i2l870
  1860   001186                     i2u314_40:
  1861   001186  5028               	movf	_RB5_Flag^0,w,c	;volatile
  1862   001188  A4D8               	btfss	status,2,c
  1863   00118A  EFC9  F008         	goto	i2u315_41
  1864   00118E  EFCB  F008         	goto	i2u315_40
  1865   001192                     i2u315_41:
  1866   001192  EFD0  F008         	goto	i2l870
  1867   001196                     i2u315_40:
  1868   001196                     
  1869                           ;MCAL_Layer/Interrupt/mcal_interrupt_manager.c: 69:     && (PORTBbits.RB5 == GPIO_LOW) &
      +                          & (RB5_Flag == 0)){;MCAL_Layer/Interrupt/mcal_interrupt_manager.c: 70:         RB5_Flag 
      +                          = 1;
  1870   001196  0E01               	movlw	1
  1871   001198  6E28               	movwf	_RB5_Flag^0,c	;volatile
  1872   00119A                     
  1873                           ;MCAL_Layer/Interrupt/mcal_interrupt_manager.c: 71:         RB5_ISR(1);
  1874   00119A  0E01               	movlw	1
  1875   00119C  ECC4  F00C         	call	_RB5_ISR
  1876   0011A0                     i2l870:
  1877                           
  1878                           ;MCAL_Layer/Interrupt/mcal_interrupt_manager.c: 75:     if((1 == INTCONbits.RBIE) && (1 
      +                          == INTCONbits.RBIF )
  1879   0011A0  A6F2               	btfss	242,3,c	;volatile
  1880   0011A2  EFD5  F008         	goto	i2u316_41
  1881   0011A6  EFD7  F008         	goto	i2u316_40
  1882   0011AA                     i2u316_41:
  1883   0011AA  EFF2  F008         	goto	i2l872
  1884   0011AE                     i2u316_40:
  1885   0011AE  A0F2               	btfss	242,0,c	;volatile
  1886   0011B0  EFDC  F008         	goto	i2u317_41
  1887   0011B4  EFDE  F008         	goto	i2u317_40
  1888   0011B8                     i2u317_41:
  1889   0011B8  EFF2  F008         	goto	i2l872
  1890   0011BC                     i2u317_40:
  1891   0011BC  AC81               	btfss	129,6,c	;volatile
  1892   0011BE  EFE3  F008         	goto	i2u318_41
  1893   0011C2  EFE5  F008         	goto	i2u318_40
  1894   0011C6                     i2u318_41:
  1895   0011C6  EFF2  F008         	goto	i2l872
  1896   0011CA                     i2u318_40:
  1897   0011CA  0427               	decf	_RB6_Flag^0,w,c	;volatile
  1898   0011CC  A4D8               	btfss	status,2,c
  1899   0011CE  EFEB  F008         	goto	i2u319_41
  1900   0011D2  EFED  F008         	goto	i2u319_40
  1901   0011D6                     i2u319_41:
  1902   0011D6  EFF2  F008         	goto	i2l872
  1903   0011DA                     i2u319_40:
  1904   0011DA                     
  1905                           ;MCAL_Layer/Interrupt/mcal_interrupt_manager.c: 76:     && (PORTBbits.RB6 == GPIO_HIGH) 
      +                          && (RB6_Flag == 1)){;MCAL_Layer/Interrupt/mcal_interrupt_manager.c: 77:         RB6_Flag
      +                           = 0;
  1906   0011DA  0E00               	movlw	0
  1907   0011DC  6E27               	movwf	_RB6_Flag^0,c	;volatile
  1908   0011DE                     
  1909                           ;MCAL_Layer/Interrupt/mcal_interrupt_manager.c: 78:         RB6_ISR(0);
  1910   0011DE  0E00               	movlw	0
  1911   0011E0  ECB7  F00C         	call	_RB6_ISR
  1912   0011E4                     i2l872:
  1913                           
  1914                           ;MCAL_Layer/Interrupt/mcal_interrupt_manager.c: 81:     if((1 == INTCONbits.RBIE) && (1 
      +                          == INTCONbits.RBIF )
  1915   0011E4  A6F2               	btfss	242,3,c	;volatile
  1916   0011E6  EFF7  F008         	goto	i2u320_41
  1917   0011EA  EFF9  F008         	goto	i2u320_40
  1918   0011EE                     i2u320_41:
  1919   0011EE  EF14  F009         	goto	i2l874
  1920   0011F2                     i2u320_40:
  1921   0011F2  A0F2               	btfss	242,0,c	;volatile
  1922   0011F4  EFFE  F008         	goto	i2u321_41
  1923   0011F8  EF00  F009         	goto	i2u321_40
  1924   0011FC                     i2u321_41:
  1925   0011FC  EF14  F009         	goto	i2l874
  1926   001200                     i2u321_40:
  1927   001200  BC81               	btfsc	129,6,c	;volatile
  1928   001202  EF05  F009         	goto	i2u322_41
  1929   001206  EF07  F009         	goto	i2u322_40
  1930   00120A                     i2u322_41:
  1931   00120A  EF14  F009         	goto	i2l874
  1932   00120E                     i2u322_40:
  1933   00120E  5027               	movf	_RB6_Flag^0,w,c	;volatile
  1934   001210  A4D8               	btfss	status,2,c
  1935   001212  EF0D  F009         	goto	i2u323_41
  1936   001216  EF0F  F009         	goto	i2u323_40
  1937   00121A                     i2u323_41:
  1938   00121A  EF14  F009         	goto	i2l874
  1939   00121E                     i2u323_40:
  1940   00121E                     
  1941                           ;MCAL_Layer/Interrupt/mcal_interrupt_manager.c: 82:     && (PORTBbits.RB6 == GPIO_LOW) &
      +                          & (RB6_Flag == 0)){;MCAL_Layer/Interrupt/mcal_interrupt_manager.c: 83:         RB6_Flag 
      +                          = 1;
  1942   00121E  0E01               	movlw	1
  1943   001220  6E27               	movwf	_RB6_Flag^0,c	;volatile
  1944   001222                     
  1945                           ;MCAL_Layer/Interrupt/mcal_interrupt_manager.c: 84:         RB6_ISR(1);
  1946   001222  0E01               	movlw	1
  1947   001224  ECB7  F00C         	call	_RB6_ISR
  1948   001228                     i2l874:
  1949                           
  1950                           ;MCAL_Layer/Interrupt/mcal_interrupt_manager.c: 88:     if((1 == INTCONbits.RBIE) && (1 
      +                          == INTCONbits.RBIF )
  1951   001228  A6F2               	btfss	242,3,c	;volatile
  1952   00122A  EF19  F009         	goto	i2u324_41
  1953   00122E  EF1B  F009         	goto	i2u324_40
  1954   001232                     i2u324_41:
  1955   001232  EF36  F009         	goto	i2l876
  1956   001236                     i2u324_40:
  1957   001236  A0F2               	btfss	242,0,c	;volatile
  1958   001238  EF20  F009         	goto	i2u325_41
  1959   00123C  EF22  F009         	goto	i2u325_40
  1960   001240                     i2u325_41:
  1961   001240  EF36  F009         	goto	i2l876
  1962   001244                     i2u325_40:
  1963   001244  AE81               	btfss	129,7,c	;volatile
  1964   001246  EF27  F009         	goto	i2u326_41
  1965   00124A  EF29  F009         	goto	i2u326_40
  1966   00124E                     i2u326_41:
  1967   00124E  EF36  F009         	goto	i2l876
  1968   001252                     i2u326_40:
  1969   001252  0426               	decf	_RB7_Flag^0,w,c	;volatile
  1970   001254  A4D8               	btfss	status,2,c
  1971   001256  EF2F  F009         	goto	i2u327_41
  1972   00125A  EF31  F009         	goto	i2u327_40
  1973   00125E                     i2u327_41:
  1974   00125E  EF36  F009         	goto	i2l876
  1975   001262                     i2u327_40:
  1976   001262                     
  1977                           ;MCAL_Layer/Interrupt/mcal_interrupt_manager.c: 89:     && (PORTBbits.RB7 == GPIO_HIGH) 
      +                          && (RB7_Flag == 1)){;MCAL_Layer/Interrupt/mcal_interrupt_manager.c: 90:         RB7_Flag
      +                           = 0;
  1978   001262  0E00               	movlw	0
  1979   001264  6E26               	movwf	_RB7_Flag^0,c	;volatile
  1980   001266                     
  1981                           ;MCAL_Layer/Interrupt/mcal_interrupt_manager.c: 91:         RB7_ISR(0);
  1982   001266  0E00               	movlw	0
  1983   001268  ECAA  F00C         	call	_RB7_ISR
  1984   00126C                     i2l876:
  1985                           
  1986                           ;MCAL_Layer/Interrupt/mcal_interrupt_manager.c: 94:     if((1 == INTCONbits.RBIE) && (1 
      +                          == INTCONbits.RBIF )
  1987   00126C  A6F2               	btfss	242,3,c	;volatile
  1988   00126E  EF3B  F009         	goto	i2u328_41
  1989   001272  EF3D  F009         	goto	i2u328_40
  1990   001276                     i2u328_41:
  1991   001276  EF58  F009         	goto	i2l878
  1992   00127A                     i2u328_40:
  1993   00127A  A0F2               	btfss	242,0,c	;volatile
  1994   00127C  EF42  F009         	goto	i2u329_41
  1995   001280  EF44  F009         	goto	i2u329_40
  1996   001284                     i2u329_41:
  1997   001284  EF58  F009         	goto	i2l878
  1998   001288                     i2u329_40:
  1999   001288  BE81               	btfsc	129,7,c	;volatile
  2000   00128A  EF49  F009         	goto	i2u330_41
  2001   00128E  EF4B  F009         	goto	i2u330_40
  2002   001292                     i2u330_41:
  2003   001292  EF58  F009         	goto	i2l878
  2004   001296                     i2u330_40:
  2005   001296  5026               	movf	_RB7_Flag^0,w,c	;volatile
  2006   001298  A4D8               	btfss	status,2,c
  2007   00129A  EF51  F009         	goto	i2u331_41
  2008   00129E  EF53  F009         	goto	i2u331_40
  2009   0012A2                     i2u331_41:
  2010   0012A2  EF58  F009         	goto	i2l878
  2011   0012A6                     i2u331_40:
  2012   0012A6                     
  2013                           ;MCAL_Layer/Interrupt/mcal_interrupt_manager.c: 95:     && (PORTBbits.RB7 == GPIO_LOW) &
      +                          & (RB7_Flag == 0)){;MCAL_Layer/Interrupt/mcal_interrupt_manager.c: 96:         RB7_Flag 
      +                          = 1;
  2014   0012A6  0E01               	movlw	1
  2015   0012A8  6E26               	movwf	_RB7_Flag^0,c	;volatile
  2016   0012AA                     
  2017                           ;MCAL_Layer/Interrupt/mcal_interrupt_manager.c: 97:         RB7_ISR(1);
  2018   0012AA  0E01               	movlw	1
  2019   0012AC  ECAA  F00C         	call	_RB7_ISR
  2020   0012B0                     i2l878:
  2021                           
  2022                           ;MCAL_Layer/Interrupt/mcal_interrupt_manager.c: 102:     if((1 == PIE1bits.ADIE) && (1 =
      +                          = PIR1bits.ADIF)){
  2023   0012B0  AC9D               	btfss	157,6,c	;volatile
  2024   0012B2  EF5D  F009         	goto	i2u332_41
  2025   0012B6  EF5F  F009         	goto	i2u332_40
  2026   0012BA                     i2u332_41:
  2027   0012BA  EF68  F009         	goto	i2l880
  2028   0012BE                     i2u332_40:
  2029   0012BE  AC9E               	btfss	158,6,c	;volatile
  2030   0012C0  EF64  F009         	goto	i2u333_41
  2031   0012C4  EF66  F009         	goto	i2u333_40
  2032   0012C8                     i2u333_41:
  2033   0012C8  EF68  F009         	goto	i2l880
  2034   0012CC                     i2u333_40:
  2035   0012CC                     
  2036                           ;MCAL_Layer/Interrupt/mcal_interrupt_manager.c: 103:         ADC_ISR();
  2037   0012CC  ECE9  F00C         	call	_ADC_ISR	;wreg free
  2038   0012D0                     i2l880:
  2039                           
  2040                           ;MCAL_Layer/Interrupt/mcal_interrupt_manager.c: 108:     if((1 == INTCONbits.TMR0IE) && 
      +                          (INTCONbits.TMR0IF)){
  2041   0012D0  AAF2               	btfss	242,5,c	;volatile
  2042   0012D2  EF6D  F009         	goto	i2u334_41
  2043   0012D6  EF6F  F009         	goto	i2u334_40
  2044   0012DA                     i2u334_41:
  2045   0012DA  EF78  F009         	goto	i2l883
  2046   0012DE                     i2u334_40:
  2047   0012DE  A4F2               	btfss	242,2,c	;volatile
  2048   0012E0  EF74  F009         	goto	i2u335_41
  2049   0012E4  EF76  F009         	goto	i2u335_40
  2050   0012E8                     i2u335_41:
  2051   0012E8  EF78  F009         	goto	i2l883
  2052   0012EC                     i2u335_40:
  2053   0012EC                     
  2054                           ;MCAL_Layer/Interrupt/mcal_interrupt_manager.c: 109:         TMR0_ISR();
  2055   0012EC  EC69  F00C         	call	_TMR0_ISR	;wreg free
  2056   0012F0                     i2l883:
  2057   0012F0  C06C  FFF4         	movff	??_InterruptManager+5,prodh
  2058   0012F4  C06B  FFF3         	movff	??_InterruptManager+4,prodl
  2059   0012F8  C06A  FFDA         	movff	??_InterruptManager+3,fsr2h
  2060   0012FC  C069  FFD9         	movff	??_InterruptManager+2,fsr2l
  2061   001300  C068  FFFB         	movff	??_InterruptManager+1,pclatu
  2062   001304  C067  FFFA         	movff	??_InterruptManager,pclath
  2063   001308  9271               	bcf	int$flags,1,c	;clear compiler interrupt flag (level 2)
  2064   00130A  0011               	retfie		f
  2065   00130C                     __end_of_InterruptManager:
  2066                           	callstack 0
  2067                           
  2068 ;; *************** function _TMR0_ISR *****************
  2069 ;; Defined at:
  2070 ;;		line 129 in file "MCAL_Layer/Timer0/timer0.c"
  2071 ;; Parameters:    Size  Location     Type
  2072 ;;		None
  2073 ;; Auto vars:     Size  Location     Type
  2074 ;;		None
  2075 ;; Return value:  Size  Location     Type
  2076 ;;                  1    wreg      void 
  2077 ;; Registers used:
  2078 ;;		wreg, fsr2l, fsr2h, status,2, status,0, pcl, pclath, pclatu, tosl, prodl, prodh, cstack
  2079 ;; Tracked objects:
  2080 ;;		On entry : 0/0
  2081 ;;		On exit  : 0/0
  2082 ;;		Unchanged: 0/0
  2083 ;; Data sizes:     COMRAM   BANK0   BANK1   BANK2   BANK3   BANK4   BANK5   BANK6   BANK7   BANK8   BANK9  BANK10  BANK1
      +1  BANK12  BANK13  BANK14  BANK15
  2084 ;;      Params:         0       0       0       0       0       0       0       0       0       0       0       0       
      +0       0       0       0       0
  2085 ;;      Locals:         0       0       0       0       0       0       0       0       0       0       0       0       
      +0       0       0       0       0
  2086 ;;      Temps:          0       0       0       0       0       0       0       0       0       0       0       0       
      +0       0       0       0       0
  2087 ;;      Totals:         0       0       0       0       0       0       0       0       0       0       0       0       
      +0       0       0       0       0
  2088 ;;Total ram usage:        0 bytes
  2089 ;; Hardware stack levels used: 1
  2090 ;; Hardware stack levels required when called: 3
  2091 ;; This function calls:
  2092 ;;		NULL
  2093 ;;		_timer0_defaulthandler
  2094 ;; This function is called by:
  2095 ;;		_InterruptManager
  2096 ;; This function uses a non-reentrant model
  2097 ;;
  2098                           
  2099                           	psect	text10
  2100   0018D2                     __ptext10:
  2101                           	callstack 0
  2102   0018D2                     _TMR0_ISR:
  2103                           	callstack 23
  2104   0018D2                     
  2105                           ;MCAL_Layer/Timer0/timer0.c: 131:     (INTCONbits.TMR0IF = 0);
  2106   0018D2  94F2               	bcf	242,2,c	;volatile
  2107                           
  2108                           ;MCAL_Layer/Timer0/timer0.c: 132:     TMR0L = (uint8)(timer0_preload);
  2109   0018D4  C038  FFD6         	movff	_timer0_preload,4054	;volatile
  2110   0018D8                     
  2111                           ;MCAL_Layer/Timer0/timer0.c: 133:     TMR0H = ((timer0_preload)>> 8);
  2112   0018D8  5039               	movf	(_timer0_preload+1)^0,w,c
  2113   0018DA  6ED7               	movwf	215,c	;volatile
  2114   0018DC                     
  2115                           ;MCAL_Layer/Timer0/timer0.c: 138:     if(TMR0_InterruptHandler) { TMR0_InterruptHandler(
      +                          ); }
  2116   0018DC  503A               	movf	_TMR0_InterruptHandler^0,w,c
  2117   0018DE  103B               	iorwf	(_TMR0_InterruptHandler+1)^0,w,c
  2118   0018E0  B4D8               	btfsc	status,2,c
  2119   0018E2  EF75  F00C         	goto	i2u245_41
  2120   0018E6  EF77  F00C         	goto	i2u245_40
  2121   0018EA                     i2u245_41:
  2122   0018EA  EF83  F00C         	goto	i2l953
  2123   0018EE                     i2u245_40:
  2124   0018EE  D802               	call	i2u246_48
  2125   0018F0  EF83  F00C         	goto	i2u246_49
  2126   0018F4                     i2u246_48:
  2127   0018F4  0005               	push	
  2128   0018F6  6EFA               	movwf	pclath,c
  2129   0018F8  503A               	movf	_TMR0_InterruptHandler^0,w,c
  2130   0018FA  6EFD               	movwf	tosl,c
  2131   0018FC  503B               	movf	(_TMR0_InterruptHandler+1)^0,w,c
  2132   0018FE  6EFE               	movwf	tosh,c
  2133   001900  6AFF               	clrf	tosu,c
  2134   001902  50FA               	movf	pclath,w,c
  2135   001904  0012               	return		;indir
  2136   001906                     i2u246_49:
  2137   001906                     i2l953:
  2138   001906  0012               	return		;funcret
  2139   001908                     __end_of_TMR0_ISR:
  2140                           	callstack 0
  2141                           
  2142 ;; *************** function _timer0_defaulthandler *****************
  2143 ;; Defined at:
  2144 ;;		line 17 in file "appplication.c"
  2145 ;; Parameters:    Size  Location     Type
  2146 ;;		None
  2147 ;; Auto vars:     Size  Location     Type
  2148 ;;		None
  2149 ;; Return value:  Size  Location     Type
  2150 ;;                  1    wreg      void 
  2151 ;; Registers used:
  2152 ;;		wreg, fsr2l, fsr2h, status,2, status,0, prodl, prodh, cstack
  2153 ;; Tracked objects:
  2154 ;;		On entry : 0/0
  2155 ;;		On exit  : 0/0
  2156 ;;		Unchanged: 0/0
  2157 ;; Data sizes:     COMRAM   BANK0   BANK1   BANK2   BANK3   BANK4   BANK5   BANK6   BANK7   BANK8   BANK9  BANK10  BANK1
      +1  BANK12  BANK13  BANK14  BANK15
  2158 ;;      Params:         0       0       0       0       0       0       0       0       0       0       0       0       
      +0       0       0       0       0
  2159 ;;      Locals:         0       0       0       0       0       0       0       0       0       0       0       0       
      +0       0       0       0       0
  2160 ;;      Temps:          0       0       0       0       0       0       0       0       0       0       0       0       
      +0       0       0       0       0
  2161 ;;      Totals:         0       0       0       0       0       0       0       0       0       0       0       0       
      +0       0       0       0       0
  2162 ;;Total ram usage:        0 bytes
  2163 ;; Hardware stack levels used: 1
  2164 ;; Hardware stack levels required when called: 2
  2165 ;; This function calls:
  2166 ;;		_led_turn_toggle
  2167 ;; This function is called by:
  2168 ;;		_TMR0_ISR
  2169 ;; This function uses a non-reentrant model
  2170 ;;
  2171                           
  2172                           	psect	text11
  2173   0019BC                     __ptext11:
  2174                           	callstack 0
  2175   0019BC                     _timer0_defaulthandler:
  2176                           	callstack 23
  2177   0019BC                     
  2178                           ;appplication.c: 18:     led_turn_toggle(&ld1);
  2179   0019BC  0E31               	movlw	low _ld1
  2180   0019BE  6E64               	movwf	led_turn_toggle@led^0,c
  2181   0019C0  ECA7  F00B         	call	_led_turn_toggle	;wreg free
  2182   0019C4  0012               	return		;funcret
  2183   0019C6                     __end_of_timer0_defaulthandler:
  2184                           	callstack 0
  2185                           
  2186 ;; *************** function _led_turn_toggle *****************
  2187 ;; Defined at:
  2188 ;;		line 86 in file "ECU_Layer/LED/ecu_led.c"
  2189 ;; Parameters:    Size  Location     Type
  2190 ;;  led             1    5[COMRAM] PTR const struct .
  2191 ;;		 -> ld1(1), 
  2192 ;; Auto vars:     Size  Location     Type
  2193 ;;  pin_obj         1    7[COMRAM] struct .
  2194 ;;  ret             1    0        unsigned char 
  2195 ;; Return value:  Size  Location     Type
  2196 ;;                  1    wreg      unsigned char 
  2197 ;; Registers used:
  2198 ;;		wreg, fsr2l, fsr2h, status,2, status,0, prodl, prodh, cstack
  2199 ;; Tracked objects:
  2200 ;;		On entry : 0/0
  2201 ;;		On exit  : 0/0
  2202 ;;		Unchanged: 0/0
  2203 ;; Data sizes:     COMRAM   BANK0   BANK1   BANK2   BANK3   BANK4   BANK5   BANK6   BANK7   BANK8   BANK9  BANK10  BANK1
      +1  BANK12  BANK13  BANK14  BANK15
  2204 ;;      Params:         1       0       0       0       0       0       0       0       0       0       0       0       
      +0       0       0       0       0
  2205 ;;      Locals:         1       0       0       0       0       0       0       0       0       0       0       0       
      +0       0       0       0       0
  2206 ;;      Temps:          1       0       0       0       0       0       0       0       0       0       0       0       
      +0       0       0       0       0
  2207 ;;      Totals:         3       0       0       0       0       0       0       0       0       0       0       0       
      +0       0       0       0       0
  2208 ;;Total ram usage:        3 bytes
  2209 ;; Hardware stack levels used: 1
  2210 ;; Hardware stack levels required when called: 1
  2211 ;; This function calls:
  2212 ;;		_gpio_pin_toggle_logic
  2213 ;; This function is called by:
  2214 ;;		_timer0_defaulthandler
  2215 ;; This function uses a non-reentrant model
  2216 ;;
  2217                           
  2218                           	psect	text12
  2219   00174E                     __ptext12:
  2220                           	callstack 0
  2221   00174E                     _led_turn_toggle:
  2222                           	callstack 23
  2223   00174E                     
  2224                           ;ECU_Layer/LED/ecu_led.c: 88:     if(((void*)0) == led)
  2225   00174E  5064               	movf	led_turn_toggle@led^0,w,c
  2226   001750  A4D8               	btfss	status,2,c
  2227   001752  EFAD  F00B         	goto	i2u218_41
  2228   001756  EFAF  F00B         	goto	i2u218_40
  2229   00175A                     i2u218_41:
  2230   00175A  EFB1  F00B         	goto	i2l300
  2231   00175E                     i2u218_40:
  2232   00175E                     
  2233                           ;ECU_Layer/LED/ecu_led.c: 91:     }
  2234   00175E  EFD9  F00B         	goto	i2l304
  2235   001762                     i2l300:
  2236                           
  2237                           ;ECU_Layer/LED/ecu_led.c: 93:     {;ECU_Layer/LED/ecu_led.c: 94:         pin_config_t pi
      +                          n_obj = { .port = led->port_name, .pin = led->pin ,
  2238   001762  C05B  F066         	movff	led_turn_toggle@F3073,led_turn_toggle@pin_obj
  2239   001766  5064               	movf	led_turn_toggle@led^0,w,c
  2240   001768  6ED9               	movwf	fsr2l,c
  2241   00176A  6ADA               	clrf	fsr2h,c
  2242   00176C  50DF               	movf	223,w,c
  2243   00176E  0B0F               	andlw	15
  2244   001770  6E65               	movwf	??_led_turn_toggle^0,c
  2245   001772  5066               	movf	led_turn_toggle@pin_obj^0,w,c
  2246   001774  1865               	xorwf	??_led_turn_toggle^0,w,c
  2247   001776  0BF8               	andlw	-8
  2248   001778  1865               	xorwf	??_led_turn_toggle^0,w,c
  2249   00177A  6E66               	movwf	led_turn_toggle@pin_obj^0,c
  2250   00177C  5064               	movf	led_turn_toggle@led^0,w,c
  2251   00177E  6ED9               	movwf	fsr2l,c
  2252   001780  6ADA               	clrf	fsr2h,c
  2253   001782  38DF               	swapf	223,w,c
  2254   001784  0B07               	andlw	7
  2255   001786  6E65               	movwf	??_led_turn_toggle^0,c
  2256   001788  4665               	rlncf	??_led_turn_toggle^0,f,c
  2257   00178A  4665               	rlncf	??_led_turn_toggle^0,f,c
  2258   00178C  4665               	rlncf	??_led_turn_toggle^0,f,c
  2259   00178E  5066               	movf	led_turn_toggle@pin_obj^0,w,c
  2260   001790  1865               	xorwf	??_led_turn_toggle^0,w,c
  2261   001792  0BC7               	andlw	-57
  2262   001794  1865               	xorwf	??_led_turn_toggle^0,w,c
  2263   001796  6E66               	movwf	led_turn_toggle@pin_obj^0,c
  2264   001798  9C66               	bcf	led_turn_toggle@pin_obj^0,6,c
  2265   00179A  5064               	movf	led_turn_toggle@led^0,w,c
  2266   00179C  6ED9               	movwf	fsr2l,c
  2267   00179E  6ADA               	clrf	fsr2h,c
  2268   0017A0  AEDF               	btfss	indf2,7,c
  2269   0017A2  D002               	bra	i2u219_45
  2270   0017A4  8E66               	bsf	led_turn_toggle@pin_obj^0,7,c
  2271   0017A6  D001               	bra	i2u219_47
  2272   0017A8                     i2u219_45:
  2273   0017A8  9E66               	bcf	led_turn_toggle@pin_obj^0,7,c
  2274   0017AA                     i2u219_47:
  2275   0017AA                     
  2276                           ;ECU_Layer/LED/ecu_led.c: 97:         gpio_pin_toggle_logic(&pin_obj);
  2277   0017AA  0E66               	movlw	low led_turn_toggle@pin_obj
  2278   0017AC  6E5F               	movwf	gpio_pin_toggle_logic@_pin_config^0,c
  2279   0017AE  ECEF  F00A         	call	_gpio_pin_toggle_logic	;wreg free
  2280   0017B2                     i2l304:
  2281   0017B2  0012               	return		;funcret
  2282   0017B4                     __end_of_led_turn_toggle:
  2283                           	callstack 0
  2284                           
  2285 ;; *************** function _gpio_pin_toggle_logic *****************
  2286 ;; Defined at:
  2287 ;;		line 157 in file "MCAL_Layer/GPIO/hal_gpio.c"
  2288 ;; Parameters:    Size  Location     Type
  2289 ;;  _pin_config     1    0[COMRAM] PTR struct .
  2290 ;;		 -> led_turn_toggle@pin_obj(1), 
  2291 ;; Auto vars:     Size  Location     Type
  2292 ;;  ret             1    0        unsigned char 
  2293 ;; Return value:  Size  Location     Type
  2294 ;;                  1    wreg      unsigned char 
  2295 ;; Registers used:
  2296 ;;		wreg, fsr2l, fsr2h, status,2, status,0, prodl, prodh
  2297 ;; Tracked objects:
  2298 ;;		On entry : 0/0
  2299 ;;		On exit  : 0/0
  2300 ;;		Unchanged: 0/0
  2301 ;; Data sizes:     COMRAM   BANK0   BANK1   BANK2   BANK3   BANK4   BANK5   BANK6   BANK7   BANK8   BANK9  BANK10  BANK1
      +1  BANK12  BANK13  BANK14  BANK15
  2302 ;;      Params:         1       0       0       0       0       0       0       0       0       0       0       0       
      +0       0       0       0       0
  2303 ;;      Locals:         0       0       0       0       0       0       0       0       0       0       0       0       
      +0       0       0       0       0
  2304 ;;      Temps:          4       0       0       0       0       0       0       0       0       0       0       0       
      +0       0       0       0       0
  2305 ;;      Totals:         5       0       0       0       0       0       0       0       0       0       0       0       
      +0       0       0       0       0
  2306 ;;Total ram usage:        5 bytes
  2307 ;; Hardware stack levels used: 1
  2308 ;; This function calls:
  2309 ;;		Nothing
  2310 ;; This function is called by:
  2311 ;;		_led_turn_toggle
  2312 ;; This function uses a non-reentrant model
  2313 ;;
  2314                           
  2315                           	psect	text13
  2316   0015DE                     __ptext13:
  2317                           	callstack 0
  2318   0015DE                     _gpio_pin_toggle_logic:
  2319                           	callstack 23
  2320   0015DE                     
  2321                           ;MCAL_Layer/GPIO/hal_gpio.c: 159:     if(((void*)0) == _pin_config || _pin_config->pin >
      +                           (8 - 1))
  2322   0015DE  505F               	movf	gpio_pin_toggle_logic@_pin_config^0,w,c
  2323   0015E0  B4D8               	btfsc	status,2,c
  2324   0015E2  EFF5  F00A         	goto	i2u205_41
  2325   0015E6  EFF7  F00A         	goto	i2u205_40
  2326   0015EA                     i2u205_41:
  2327   0015EA  EF07  F00B         	goto	i2l3349
  2328   0015EE                     i2u205_40:
  2329   0015EE  505F               	movf	gpio_pin_toggle_logic@_pin_config^0,w,c
  2330   0015F0  6ED9               	movwf	fsr2l,c
  2331   0015F2  6ADA               	clrf	fsr2h,c
  2332   0015F4  30DF               	rrcf	223,w,c
  2333   0015F6  32E8               	rrcf	wreg,f,c
  2334   0015F8  32E8               	rrcf	wreg,f,c
  2335   0015FA  0B07               	andlw	7
  2336   0015FC  6E60               	movwf	??_gpio_pin_toggle_logic^0,c
  2337   0015FE  0E07               	movlw	7
  2338   001600  6460               	cpfsgt	??_gpio_pin_toggle_logic^0,c
  2339   001602  EF05  F00B         	goto	i2u206_41
  2340   001606  EF07  F00B         	goto	i2u206_40
  2341   00160A                     i2u206_41:
  2342   00160A  EF09  F00B         	goto	i2l3351
  2343   00160E                     i2u206_40:
  2344   00160E                     i2l3349:
  2345                           
  2346                           ;MCAL_Layer/GPIO/hal_gpio.c: 162:     }
  2347   00160E  EF2F  F00B         	goto	i2l572
  2348   001612                     i2l3351:
  2349                           
  2350                           ;MCAL_Layer/GPIO/hal_gpio.c: 164:     {;MCAL_Layer/GPIO/hal_gpio.c: 165:         (*lat_r
      +                          egisters[_pin_config->port] ^= (((uint8)1) << _pin_config->pin));
  2351   001612  505F               	movf	gpio_pin_toggle_logic@_pin_config^0,w,c
  2352   001614  6ED9               	movwf	fsr2l,c
  2353   001616  6ADA               	clrf	fsr2h,c
  2354   001618  30DF               	rrcf	223,w,c
  2355   00161A  32E8               	rrcf	wreg,f,c
  2356   00161C  32E8               	rrcf	wreg,f,c
  2357   00161E  0B07               	andlw	7
  2358   001620  6E60               	movwf	??_gpio_pin_toggle_logic^0,c
  2359   001622  0E01               	movlw	1
  2360   001624  6E61               	movwf	(??_gpio_pin_toggle_logic+1)^0,c
  2361   001626  2A60               	incf	??_gpio_pin_toggle_logic^0,f,c
  2362   001628  EF18  F00B         	goto	i2u207_44
  2363   00162C                     i2u207_45:
  2364   00162C  90D8               	bcf	status,0,c
  2365   00162E  3661               	rlcf	(??_gpio_pin_toggle_logic+1)^0,f,c
  2366   001630                     i2u207_44:
  2367   001630  2E60               	decfsz	??_gpio_pin_toggle_logic^0,f,c
  2368   001632  EF16  F00B         	goto	i2u207_45
  2369   001636  505F               	movf	gpio_pin_toggle_logic@_pin_config^0,w,c
  2370   001638  6ED9               	movwf	fsr2l,c
  2371   00163A  6ADA               	clrf	fsr2h,c
  2372   00163C  50DF               	movf	223,w,c
  2373   00163E  0B07               	andlw	7
  2374   001640  0D02               	mullw	2
  2375   001642  50F3               	movf	243,w,c
  2376   001644  0F0B               	addlw	low _lat_registers
  2377   001646  6ED9               	movwf	fsr2l,c
  2378   001648  6ADA               	clrf	fsr2h,c
  2379   00164A  CFDE F062          	movff	postinc2,??_gpio_pin_toggle_logic+2
  2380   00164E  CFDD F063          	movff	postdec2,??_gpio_pin_toggle_logic+3
  2381   001652  C062  FFD9         	movff	??_gpio_pin_toggle_logic+2,fsr2l
  2382   001656  C063  FFDA         	movff	??_gpio_pin_toggle_logic+3,fsr2h
  2383   00165A  5061               	movf	(??_gpio_pin_toggle_logic+1)^0,w,c
  2384   00165C  1ADF               	xorwf	indf2,f,c
  2385   00165E                     i2l572:
  2386   00165E  0012               	return		;funcret
  2387   001660                     __end_of_gpio_pin_toggle_logic:
  2388                           	callstack 0
  2389                           
  2390 ;; *************** function _RB7_ISR *****************
  2391 ;; Defined at:
  2392 ;;		line 159 in file "MCAL_Layer/Interrupt/mcal_external_interrup.c"
  2393 ;; Parameters:    Size  Location     Type
  2394 ;;  RB7_Source      1    wreg     unsigned char 
  2395 ;; Auto vars:     Size  Location     Type
  2396 ;;  RB7_Source      1    0[COMRAM] unsigned char 
  2397 ;; Return value:  Size  Location     Type
  2398 ;;                  1    wreg      void 
  2399 ;; Registers used:
  2400 ;;		wreg, status,2, status,0
  2401 ;; Tracked objects:
  2402 ;;		On entry : 0/0
  2403 ;;		On exit  : 0/0
  2404 ;;		Unchanged: 0/0
  2405 ;; Data sizes:     COMRAM   BANK0   BANK1   BANK2   BANK3   BANK4   BANK5   BANK6   BANK7   BANK8   BANK9  BANK10  BANK1
      +1  BANK12  BANK13  BANK14  BANK15
  2406 ;;      Params:         0       0       0       0       0       0       0       0       0       0       0       0       
      +0       0       0       0       0
  2407 ;;      Locals:         1       0       0       0       0       0       0       0       0       0       0       0       
      +0       0       0       0       0
  2408 ;;      Temps:          0       0       0       0       0       0       0       0       0       0       0       0       
      +0       0       0       0       0
  2409 ;;      Totals:         1       0       0       0       0       0       0       0       0       0       0       0       
      +0       0       0       0       0
  2410 ;;Total ram usage:        1 bytes
  2411 ;; Hardware stack levels used: 1
  2412 ;; This function calls:
  2413 ;;		Nothing
  2414 ;; This function is called by:
  2415 ;;		_InterruptManager
  2416 ;; This function uses a non-reentrant model
  2417 ;;
  2418                           
  2419                           	psect	text14
  2420   001954                     __ptext14:
  2421                           	callstack 0
  2422   001954                     _RB7_ISR:
  2423                           	callstack 26
  2424                           
  2425                           ;incstack = 0
  2426                           ;RB7_ISR@RB7_Source stored from wreg
  2427   001954  6E5F               	movwf	RB7_ISR@RB7_Source^0,c
  2428   001956                     
  2429                           ;MCAL_Layer/Interrupt/mcal_external_interrup.c: 159: void RB7_ISR(uint8 RB7_Source);MCAL
      +                          _Layer/Interrupt/mcal_external_interrup.c: 160: {;MCAL_Layer/Interrupt/mcal_external_int
      +                          errup.c: 162:     (INTCONbits.RBIF = 0);
  2430   001956  90F2               	bcf	242,0,c	;volatile
  2431   001958                     
  2432                           ;MCAL_Layer/Interrupt/mcal_external_interrup.c: 166:     if(0 == RB7_Source) {
  2433   001958  505F               	movf	RB7_ISR@RB7_Source^0,w,c
  2434   00195A  A4D8               	btfss	status,2,c
  2435   00195C  EFB2  F00C         	goto	i2u51_41
  2436   001960  EFB4  F00C         	goto	i2u51_40
  2437   001964                     i2u51_41:
  2438   001964  EFB6  F00C         	goto	i2l2071
  2439   001968                     i2u51_40:
  2440   001968  EFB6  F00C         	goto	i2l707
  2441   00196C                     i2l2071:
  2442   00196C                     i2l707:
  2443   00196C  0012               	return		;funcret
  2444   00196E                     __end_of_RB7_ISR:
  2445                           	callstack 0
  2446                           
  2447 ;; *************** function _RB6_ISR *****************
  2448 ;; Defined at:
  2449 ;;		line 141 in file "MCAL_Layer/Interrupt/mcal_external_interrup.c"
  2450 ;; Parameters:    Size  Location     Type
  2451 ;;  RB6_Source      1    wreg     unsigned char 
  2452 ;; Auto vars:     Size  Location     Type
  2453 ;;  RB6_Source      1    0[COMRAM] unsigned char 
  2454 ;; Return value:  Size  Location     Type
  2455 ;;                  1    wreg      void 
  2456 ;; Registers used:
  2457 ;;		wreg, status,2, status,0
  2458 ;; Tracked objects:
  2459 ;;		On entry : 0/0
  2460 ;;		On exit  : 0/0
  2461 ;;		Unchanged: 0/0
  2462 ;; Data sizes:     COMRAM   BANK0   BANK1   BANK2   BANK3   BANK4   BANK5   BANK6   BANK7   BANK8   BANK9  BANK10  BANK1
      +1  BANK12  BANK13  BANK14  BANK15
  2463 ;;      Params:         0       0       0       0       0       0       0       0       0       0       0       0       
      +0       0       0       0       0
  2464 ;;      Locals:         1       0       0       0       0       0       0       0       0       0       0       0       
      +0       0       0       0       0
  2465 ;;      Temps:          0       0       0       0       0       0       0       0       0       0       0       0       
      +0       0       0       0       0
  2466 ;;      Totals:         1       0       0       0       0       0       0       0       0       0       0       0       
      +0       0       0       0       0
  2467 ;;Total ram usage:        1 bytes
  2468 ;; Hardware stack levels used: 1
  2469 ;; This function calls:
  2470 ;;		Nothing
  2471 ;; This function is called by:
  2472 ;;		_InterruptManager
  2473 ;; This function uses a non-reentrant model
  2474 ;;
  2475                           
  2476                           	psect	text15
  2477   00196E                     __ptext15:
  2478                           	callstack 0
  2479   00196E                     _RB6_ISR:
  2480                           	callstack 26
  2481                           
  2482                           ;incstack = 0
  2483                           ;RB6_ISR@RB6_Source stored from wreg
  2484   00196E  6E5F               	movwf	RB6_ISR@RB6_Source^0,c
  2485   001970                     
  2486                           ;MCAL_Layer/Interrupt/mcal_external_interrup.c: 141: void RB6_ISR(uint8 RB6_Source);MCAL
      +                          _Layer/Interrupt/mcal_external_interrup.c: 142: {;MCAL_Layer/Interrupt/mcal_external_int
      +                          errup.c: 144:     (INTCONbits.RBIF = 0);
  2487   001970  90F2               	bcf	242,0,c	;volatile
  2488   001972                     
  2489                           ;MCAL_Layer/Interrupt/mcal_external_interrup.c: 148:     if(0 == RB6_Source) {
  2490   001972  505F               	movf	RB6_ISR@RB6_Source^0,w,c
  2491   001974  A4D8               	btfss	status,2,c
  2492   001976  EFBF  F00C         	goto	i2u50_41
  2493   00197A  EFC1  F00C         	goto	i2u50_40
  2494   00197E                     i2u50_41:
  2495   00197E  EFC3  F00C         	goto	i2l2057
  2496   001982                     i2u50_40:
  2497   001982  EFC3  F00C         	goto	i2l696
  2498   001986                     i2l2057:
  2499   001986                     i2l696:
  2500   001986  0012               	return		;funcret
  2501   001988                     __end_of_RB6_ISR:
  2502                           	callstack 0
  2503                           
  2504 ;; *************** function _RB5_ISR *****************
  2505 ;; Defined at:
  2506 ;;		line 123 in file "MCAL_Layer/Interrupt/mcal_external_interrup.c"
  2507 ;; Parameters:    Size  Location     Type
  2508 ;;  RB5_Source      1    wreg     unsigned char 
  2509 ;; Auto vars:     Size  Location     Type
  2510 ;;  RB5_Source      1    0[COMRAM] unsigned char 
  2511 ;; Return value:  Size  Location     Type
  2512 ;;                  1    wreg      void 
  2513 ;; Registers used:
  2514 ;;		wreg, status,2, status,0
  2515 ;; Tracked objects:
  2516 ;;		On entry : 0/0
  2517 ;;		On exit  : 0/0
  2518 ;;		Unchanged: 0/0
  2519 ;; Data sizes:     COMRAM   BANK0   BANK1   BANK2   BANK3   BANK4   BANK5   BANK6   BANK7   BANK8   BANK9  BANK10  BANK1
      +1  BANK12  BANK13  BANK14  BANK15
  2520 ;;      Params:         0       0       0       0       0       0       0       0       0       0       0       0       
      +0       0       0       0       0
  2521 ;;      Locals:         1       0       0       0       0       0       0       0       0       0       0       0       
      +0       0       0       0       0
  2522 ;;      Temps:          0       0       0       0       0       0       0       0       0       0       0       0       
      +0       0       0       0       0
  2523 ;;      Totals:         1       0       0       0       0       0       0       0       0       0       0       0       
      +0       0       0       0       0
  2524 ;;Total ram usage:        1 bytes
  2525 ;; Hardware stack levels used: 1
  2526 ;; This function calls:
  2527 ;;		Nothing
  2528 ;; This function is called by:
  2529 ;;		_InterruptManager
  2530 ;; This function uses a non-reentrant model
  2531 ;;
  2532                           
  2533                           	psect	text16
  2534   001988                     __ptext16:
  2535                           	callstack 0
  2536   001988                     _RB5_ISR:
  2537                           	callstack 26
  2538                           
  2539                           ;incstack = 0
  2540                           ;RB5_ISR@RB5_Source stored from wreg
  2541   001988  6E5F               	movwf	RB5_ISR@RB5_Source^0,c
  2542   00198A                     
  2543                           ;MCAL_Layer/Interrupt/mcal_external_interrup.c: 123: void RB5_ISR(uint8 RB5_Source);MCAL
      +                          _Layer/Interrupt/mcal_external_interrup.c: 124: {;MCAL_Layer/Interrupt/mcal_external_int
      +                          errup.c: 126:     (INTCONbits.RBIF = 0);
  2544   00198A  90F2               	bcf	242,0,c	;volatile
  2545   00198C                     
  2546                           ;MCAL_Layer/Interrupt/mcal_external_interrup.c: 130:     if(0 == RB5_Source) {
  2547   00198C  505F               	movf	RB5_ISR@RB5_Source^0,w,c
  2548   00198E  A4D8               	btfss	status,2,c
  2549   001990  EFCC  F00C         	goto	i2u49_41
  2550   001994  EFCE  F00C         	goto	i2u49_40
  2551   001998                     i2u49_41:
  2552   001998  EFD0  F00C         	goto	i2l2043
  2553   00199C                     i2u49_40:
  2554   00199C  EFD0  F00C         	goto	i2l685
  2555   0019A0                     i2l2043:
  2556   0019A0                     i2l685:
  2557   0019A0  0012               	return		;funcret
  2558   0019A2                     __end_of_RB5_ISR:
  2559                           	callstack 0
  2560                           
  2561 ;; *************** function _RB4_ISR *****************
  2562 ;; Defined at:
  2563 ;;		line 104 in file "MCAL_Layer/Interrupt/mcal_external_interrup.c"
  2564 ;; Parameters:    Size  Location     Type
  2565 ;;  RB4_Source      1    wreg     unsigned char 
  2566 ;; Auto vars:     Size  Location     Type
  2567 ;;  RB4_Source      1    0[COMRAM] unsigned char 
  2568 ;; Return value:  Size  Location     Type
  2569 ;;                  1    wreg      void 
  2570 ;; Registers used:
  2571 ;;		wreg, status,2, status,0
  2572 ;; Tracked objects:
  2573 ;;		On entry : 0/0
  2574 ;;		On exit  : 0/0
  2575 ;;		Unchanged: 0/0
  2576 ;; Data sizes:     COMRAM   BANK0   BANK1   BANK2   BANK3   BANK4   BANK5   BANK6   BANK7   BANK8   BANK9  BANK10  BANK1
      +1  BANK12  BANK13  BANK14  BANK15
  2577 ;;      Params:         0       0       0       0       0       0       0       0       0       0       0       0       
      +0       0       0       0       0
  2578 ;;      Locals:         1       0       0       0       0       0       0       0       0       0       0       0       
      +0       0       0       0       0
  2579 ;;      Temps:          0       0       0       0       0       0       0       0       0       0       0       0       
      +0       0       0       0       0
  2580 ;;      Totals:         1       0       0       0       0       0       0       0       0       0       0       0       
      +0       0       0       0       0
  2581 ;;Total ram usage:        1 bytes
  2582 ;; Hardware stack levels used: 1
  2583 ;; This function calls:
  2584 ;;		Nothing
  2585 ;; This function is called by:
  2586 ;;		_InterruptManager
  2587 ;; This function uses a non-reentrant model
  2588 ;;
  2589                           
  2590                           	psect	text17
  2591   0019A2                     __ptext17:
  2592                           	callstack 0
  2593   0019A2                     _RB4_ISR:
  2594                           	callstack 26
  2595                           
  2596                           ;incstack = 0
  2597                           ;RB4_ISR@RB4_Source stored from wreg
  2598   0019A2  6E5F               	movwf	RB4_ISR@RB4_Source^0,c
  2599   0019A4                     
  2600                           ;MCAL_Layer/Interrupt/mcal_external_interrup.c: 104: void RB4_ISR(uint8 RB4_Source);MCAL
      +                          _Layer/Interrupt/mcal_external_interrup.c: 105: {;MCAL_Layer/Interrupt/mcal_external_int
      +                          errup.c: 107:     (INTCONbits.RBIF = 0);
  2601   0019A4  90F2               	bcf	242,0,c	;volatile
  2602   0019A6                     
  2603                           ;MCAL_Layer/Interrupt/mcal_external_interrup.c: 111:     if(0 == RB4_Source) {
  2604   0019A6  505F               	movf	RB4_ISR@RB4_Source^0,w,c
  2605   0019A8  A4D8               	btfss	status,2,c
  2606   0019AA  EFD9  F00C         	goto	i2u48_41
  2607   0019AE  EFDB  F00C         	goto	i2u48_40
  2608   0019B2                     i2u48_41:
  2609   0019B2  EFDD  F00C         	goto	i2l2029
  2610   0019B6                     i2u48_40:
  2611   0019B6  EFDD  F00C         	goto	i2l674
  2612   0019BA                     i2l2029:
  2613   0019BA                     i2l674:
  2614   0019BA  0012               	return		;funcret
  2615   0019BC                     __end_of_RB4_ISR:
  2616                           	callstack 0
  2617                           
  2618 ;; *************** function _INT2_ISR *****************
  2619 ;; Defined at:
  2620 ;;		line 93 in file "MCAL_Layer/Interrupt/mcal_external_interrup.c"
  2621 ;; Parameters:    Size  Location     Type
  2622 ;;		None
  2623 ;; Auto vars:     Size  Location     Type
  2624 ;;		None
  2625 ;; Return value:  Size  Location     Type
  2626 ;;                  1    wreg      void 
  2627 ;; Registers used:
  2628 ;;		None
  2629 ;; Tracked objects:
  2630 ;;		On entry : 0/0
  2631 ;;		On exit  : 0/0
  2632 ;;		Unchanged: 0/0
  2633 ;; Data sizes:     COMRAM   BANK0   BANK1   BANK2   BANK3   BANK4   BANK5   BANK6   BANK7   BANK8   BANK9  BANK10  BANK1
      +1  BANK12  BANK13  BANK14  BANK15
  2634 ;;      Params:         0       0       0       0       0       0       0       0       0       0       0       0       
      +0       0       0       0       0
  2635 ;;      Locals:         0       0       0       0       0       0       0       0       0       0       0       0       
      +0       0       0       0       0
  2636 ;;      Temps:          0       0       0       0       0       0       0       0       0       0       0       0       
      +0       0       0       0       0
  2637 ;;      Totals:         0       0       0       0       0       0       0       0       0       0       0       0       
      +0       0       0       0       0
  2638 ;;Total ram usage:        0 bytes
  2639 ;; Hardware stack levels used: 1
  2640 ;; This function calls:
  2641 ;;		Nothing
  2642 ;; This function is called by:
  2643 ;;		_InterruptManager
  2644 ;; This function uses a non-reentrant model
  2645 ;;
  2646                           
  2647                           	psect	text18
  2648   0019C6                     __ptext18:
  2649                           	callstack 0
  2650   0019C6                     _INT2_ISR:
  2651                           	callstack 26
  2652   0019C6                     
  2653                           ;MCAL_Layer/Interrupt/mcal_external_interrup.c: 96:     (INTCON3bits.INT2IF = 0);
  2654   0019C6  92F0               	bcf	240,1,c	;volatile
  2655   0019C8  0012               	return		;funcret
  2656   0019CA                     __end_of_INT2_ISR:
  2657                           	callstack 0
  2658                           
  2659 ;; *************** function _INT1_ISR *****************
  2660 ;; Defined at:
  2661 ;;		line 81 in file "MCAL_Layer/Interrupt/mcal_external_interrup.c"
  2662 ;; Parameters:    Size  Location     Type
  2663 ;;		None
  2664 ;; Auto vars:     Size  Location     Type
  2665 ;;		None
  2666 ;; Return value:  Size  Location     Type
  2667 ;;                  1    wreg      void 
  2668 ;; Registers used:
  2669 ;;		None
  2670 ;; Tracked objects:
  2671 ;;		On entry : 0/0
  2672 ;;		On exit  : 0/0
  2673 ;;		Unchanged: 0/0
  2674 ;; Data sizes:     COMRAM   BANK0   BANK1   BANK2   BANK3   BANK4   BANK5   BANK6   BANK7   BANK8   BANK9  BANK10  BANK1
      +1  BANK12  BANK13  BANK14  BANK15
  2675 ;;      Params:         0       0       0       0       0       0       0       0       0       0       0       0       
      +0       0       0       0       0
  2676 ;;      Locals:         0       0       0       0       0       0       0       0       0       0       0       0       
      +0       0       0       0       0
  2677 ;;      Temps:          0       0       0       0       0       0       0       0       0       0       0       0       
      +0       0       0       0       0
  2678 ;;      Totals:         0       0       0       0       0       0       0       0       0       0       0       0       
      +0       0       0       0       0
  2679 ;;Total ram usage:        0 bytes
  2680 ;; Hardware stack levels used: 1
  2681 ;; This function calls:
  2682 ;;		Nothing
  2683 ;; This function is called by:
  2684 ;;		_InterruptManager
  2685 ;; This function uses a non-reentrant model
  2686 ;;
  2687                           
  2688                           	psect	text19
  2689   0019CA                     __ptext19:
  2690                           	callstack 0
  2691   0019CA                     _INT1_ISR:
  2692                           	callstack 26
  2693   0019CA                     
  2694                           ;MCAL_Layer/Interrupt/mcal_external_interrup.c: 84:     (INTCON3bits.INT1IF = 0);
  2695   0019CA  90F0               	bcf	240,0,c	;volatile
  2696   0019CC  0012               	return		;funcret
  2697   0019CE                     __end_of_INT1_ISR:
  2698                           	callstack 0
  2699                           
  2700 ;; *************** function _INT0_ISR *****************
  2701 ;; Defined at:
  2702 ;;		line 70 in file "MCAL_Layer/Interrupt/mcal_external_interrup.c"
  2703 ;; Parameters:    Size  Location     Type
  2704 ;;		None
  2705 ;; Auto vars:     Size  Location     Type
  2706 ;;		None
  2707 ;; Return value:  Size  Location     Type
  2708 ;;                  1    wreg      void 
  2709 ;; Registers used:
  2710 ;;		None
  2711 ;; Tracked objects:
  2712 ;;		On entry : 0/0
  2713 ;;		On exit  : 0/0
  2714 ;;		Unchanged: 0/0
  2715 ;; Data sizes:     COMRAM   BANK0   BANK1   BANK2   BANK3   BANK4   BANK5   BANK6   BANK7   BANK8   BANK9  BANK10  BANK1
      +1  BANK12  BANK13  BANK14  BANK15
  2716 ;;      Params:         0       0       0       0       0       0       0       0       0       0       0       0       
      +0       0       0       0       0
  2717 ;;      Locals:         0       0       0       0       0       0       0       0       0       0       0       0       
      +0       0       0       0       0
  2718 ;;      Temps:          0       0       0       0       0       0       0       0       0       0       0       0       
      +0       0       0       0       0
  2719 ;;      Totals:         0       0       0       0       0       0       0       0       0       0       0       0       
      +0       0       0       0       0
  2720 ;;Total ram usage:        0 bytes
  2721 ;; Hardware stack levels used: 1
  2722 ;; This function calls:
  2723 ;;		Nothing
  2724 ;; This function is called by:
  2725 ;;		_InterruptManager
  2726 ;; This function uses a non-reentrant model
  2727 ;;
  2728                           
  2729                           	psect	text20
  2730   0019CE                     __ptext20:
  2731                           	callstack 0
  2732   0019CE                     _INT0_ISR:
  2733                           	callstack 26
  2734   0019CE                     
  2735                           ;MCAL_Layer/Interrupt/mcal_external_interrup.c: 73:     (INTCONbits.INT0IF = 0);
  2736   0019CE  92F2               	bcf	242,1,c	;volatile
  2737   0019D0  0012               	return		;funcret
  2738   0019D2                     __end_of_INT0_ISR:
  2739                           	callstack 0
  2740                           
  2741 ;; *************** function _ADC_ISR *****************
  2742 ;; Defined at:
  2743 ;;		line 269 in file "MCAL_Layer/ADC/hal_adc.c"
  2744 ;; Parameters:    Size  Location     Type
  2745 ;;		None
  2746 ;; Auto vars:     Size  Location     Type
  2747 ;;		None
  2748 ;; Return value:  Size  Location     Type
  2749 ;;                  1    wreg      void 
  2750 ;; Registers used:
  2751 ;;		None
  2752 ;; Tracked objects:
  2753 ;;		On entry : 0/0
  2754 ;;		On exit  : 0/0
  2755 ;;		Unchanged: 0/0
  2756 ;; Data sizes:     COMRAM   BANK0   BANK1   BANK2   BANK3   BANK4   BANK5   BANK6   BANK7   BANK8   BANK9  BANK10  BANK1
      +1  BANK12  BANK13  BANK14  BANK15
  2757 ;;      Params:         0       0       0       0       0       0       0       0       0       0       0       0       
      +0       0       0       0       0
  2758 ;;      Locals:         0       0       0       0       0       0       0       0       0       0       0       0       
      +0       0       0       0       0
  2759 ;;      Temps:          0       0       0       0       0       0       0       0       0       0       0       0       
      +0       0       0       0       0
  2760 ;;      Totals:         0       0       0       0       0       0       0       0       0       0       0       0       
      +0       0       0       0       0
  2761 ;;Total ram usage:        0 bytes
  2762 ;; Hardware stack levels used: 1
  2763 ;; This function calls:
  2764 ;;		Nothing
  2765 ;; This function is called by:
  2766 ;;		_InterruptManager
  2767 ;; This function uses a non-reentrant model
  2768 ;;
  2769                           
  2770                           	psect	text21
  2771   0019D2                     __ptext21:
  2772                           	callstack 0
  2773   0019D2                     _ADC_ISR:
  2774                           	callstack 26
  2775   0019D2                     
  2776                           ;MCAL_Layer/ADC/hal_adc.c: 271:     (PIR1bits.ADIF = 0);
  2777   0019D2  9C9E               	bcf	158,6,c	;volatile
  2778   0019D4  0012               	return		;funcret
  2779   0019D6                     __end_of_ADC_ISR:
  2780                           	callstack 0
  2781                           
  2782                           	psect	text22
  2783   000000                     __ptext22:
  2784                           	callstack 0
  2785   000000                     
  2786                           	psect	rparam
  2787   000000                     
  2788                           	psect	temp
  2789   000071                     btemp:
  2790                           	callstack 0
  2791   000071                     	ds	1
  2792   000000                     int$flags	set	btemp
  2793   000000                     wtemp8	set	btemp+1
  2794   000000                     ttemp5	set	btemp+1
  2795   000000                     ttemp6	set	btemp+4
  2796   000000                     ttemp7	set	btemp+8
  2797                           
  2798                           	psect	config
  2799                           
  2800                           ; Padding undefined space
  2801   300000                     	org	3145728
  2802   300000  FF                 	db	255
  2803                           
  2804                           ;Config register CONFIG1H @ 0x300001
  2805                           ;	Oscillator Selection bits
  2806                           ;	OSC = HS, HS oscillator
  2807                           ;	Fail-Safe Clock Monitor Enable bit
  2808                           ;	FCMEN = OFF, Fail-Safe Clock Monitor disabled
  2809                           ;	Internal/External Oscillator Switchover bit
  2810                           ;	IESO = OFF, Oscillator Switchover mode disabled
  2811   300001                     	org	3145729
  2812   300001  02                 	db	2
  2813                           
  2814                           ;Config register CONFIG2L @ 0x300002
  2815                           ;	Power-up Timer Enable bit
  2816                           ;	PWRT = OFF, PWRT disabled
  2817                           ;	Brown-out Reset Enable bits
  2818                           ;	BOREN = OFF, Brown-out Reset disabled in hardware and software
  2819                           ;	Brown Out Reset Voltage bits
  2820                           ;	BORV = 1, 
  2821   300002                     	org	3145730
  2822   300002  09                 	db	9
  2823                           
  2824                           ;Config register CONFIG2H @ 0x300003
  2825                           ;	Watchdog Timer Enable bit
  2826                           ;	WDT = OFF, WDT disabled (control is placed on the SWDTEN bit)
  2827                           ;	Watchdog Timer Postscale Select bits
  2828                           ;	WDTPS = 32768, 1:32768
  2829   300003                     	org	3145731
  2830   300003  1E                 	db	30
  2831                           
  2832                           ; Padding undefined space
  2833   300004                     	org	3145732
  2834   300004  FF                 	db	255
  2835                           
  2836                           ;Config register CONFIG3H @ 0x300005
  2837                           ;	CCP2 MUX bit
  2838                           ;	CCP2MX = PORTC, CCP2 input/output is multiplexed with RC1
  2839                           ;	PORTB A/D Enable bit
  2840                           ;	PBADEN = OFF, PORTB<4:0> pins are configured as digital I/O on Reset
  2841                           ;	Low-Power Timer1 Oscillator Enable bit
  2842                           ;	LPT1OSC = OFF, Timer1 configured for higher power operation
  2843                           ;	MCLR Pin Enable bit
  2844                           ;	MCLRE = ON, MCLR pin enabled; RE3 input pin disabled
  2845   300005                     	org	3145733
  2846   300005  81                 	db	129
  2847                           
  2848                           ;Config register CONFIG4L @ 0x300006
  2849                           ;	Stack Full/Underflow Reset Enable bit
  2850                           ;	STVREN = ON, Stack full/underflow will cause Reset
  2851                           ;	Single-Supply ICSP Enable bit
  2852                           ;	LVP = OFF, Single-Supply ICSP disabled
  2853                           ;	Extended Instruction Set Enable bit
  2854                           ;	XINST = OFF, Instruction set extension and Indexed Addressing mode disabled (Legacy mo
      +                          de)
  2855                           ;	Background Debugger Enable bit
  2856                           ;	DEBUG = 0x1, unprogrammed default
  2857   300006                     	org	3145734
  2858   300006  81                 	db	129
  2859                           
  2860                           ; Padding undefined space
  2861   300007                     	org	3145735
  2862   300007  FF                 	db	255
  2863                           
  2864                           ;Config register CONFIG5L @ 0x300008
  2865                           ;	Code Protection bit
  2866                           ;	CP0 = OFF, Block 0 (000800-003FFFh) not code-protected
  2867                           ;	Code Protection bit
  2868                           ;	CP1 = OFF, Block 1 (004000-007FFFh) not code-protected
  2869                           ;	Code Protection bit
  2870                           ;	CP2 = OFF, Block 2 (008000-00BFFFh) not code-protected
  2871                           ;	Code Protection bit
  2872                           ;	CP3 = OFF, Block 3 (00C000-00FFFFh) not code-protected
  2873   300008                     	org	3145736
  2874   300008  0F                 	db	15
  2875                           
  2876                           ;Config register CONFIG5H @ 0x300009
  2877                           ;	Boot Block Code Protection bit
  2878                           ;	CPB = OFF, Boot block (000000-0007FFh) not code-protected
  2879                           ;	Data EEPROM Code Protection bit
  2880                           ;	CPD = OFF, Data EEPROM not code-protected
  2881   300009                     	org	3145737
  2882   300009  C0                 	db	192
  2883                           
  2884                           ;Config register CONFIG6L @ 0x30000A
  2885                           ;	Write Protection bit
  2886                           ;	WRT0 = OFF, Block 0 (000800-003FFFh) not write-protected
  2887                           ;	Write Protection bit
  2888                           ;	WRT1 = OFF, Block 1 (004000-007FFFh) not write-protected
  2889                           ;	Write Protection bit
  2890                           ;	WRT2 = OFF, Block 2 (008000-00BFFFh) not write-protected
  2891                           ;	Write Protection bit
  2892                           ;	WRT3 = OFF, Block 3 (00C000-00FFFFh) not write-protected
  2893   30000A                     	org	3145738
  2894   30000A  0F                 	db	15
  2895                           
  2896                           ;Config register CONFIG6H @ 0x30000B
  2897                           ;	Configuration Register Write Protection bit
  2898                           ;	WRTC = OFF, Configuration registers (300000-3000FFh) not write-protected
  2899                           ;	Boot Block Write Protection bit
  2900                           ;	WRTB = OFF, Boot Block (000000-0007FFh) not write-protected
  2901                           ;	Data EEPROM Write Protection bit
  2902                           ;	WRTD = OFF, Data EEPROM not write-protected
  2903   30000B                     	org	3145739
  2904   30000B  E0                 	db	224
  2905                           
  2906                           ;Config register CONFIG7L @ 0x30000C
  2907                           ;	Table Read Protection bit
  2908                           ;	EBTR0 = OFF, Block 0 (000800-003FFFh) not protected from table reads executed in other
      +                           blocks
  2909                           ;	Table Read Protection bit
  2910                           ;	EBTR1 = OFF, Block 1 (004000-007FFFh) not protected from table reads executed in other
      +                           blocks
  2911                           ;	Table Read Protection bit
  2912                           ;	EBTR2 = OFF, Block 2 (008000-00BFFFh) not protected from table reads executed in other
      +                           blocks
  2913                           ;	Table Read Protection bit
  2914                           ;	EBTR3 = OFF, Block 3 (00C000-00FFFFh) not protected from table reads executed in other
      +                           blocks
  2915   30000C                     	org	3145740
  2916   30000C  0F                 	db	15
  2917                           
  2918                           ;Config register CONFIG7H @ 0x30000D
  2919                           ;	Boot Block Table Read Protection bit
  2920                           ;	EBTRB = OFF, Boot Block (000000-0007FFh) not protected from table reads executed in ot
      +                          her blocks
  2921   30000D                     	org	3145741
  2922   30000D  40                 	db	64
  2923                           tosu	equ	0xFFF
  2924                           tosh	equ	0xFFE
  2925                           tosl	equ	0xFFD
  2926                           stkptr	equ	0xFFC
  2927                           pclatu	equ	0xFFB
  2928                           pclath	equ	0xFFA
  2929                           pcl	equ	0xFF9
  2930                           tblptru	equ	0xFF8
  2931                           tblptrh	equ	0xFF7
  2932                           tblptrl	equ	0xFF6
  2933                           tablat	equ	0xFF5
  2934                           prodh	equ	0xFF4
  2935                           prodl	equ	0xFF3
  2936                           indf0	equ	0xFEF
  2937                           postinc0	equ	0xFEE
  2938                           postdec0	equ	0xFED
  2939                           preinc0	equ	0xFEC
  2940                           plusw0	equ	0xFEB
  2941                           fsr0h	equ	0xFEA
  2942                           fsr0l	equ	0xFE9
  2943                           wreg	equ	0xFE8
  2944                           indf1	equ	0xFE7
  2945                           postinc1	equ	0xFE6
  2946                           postdec1	equ	0xFE5
  2947                           preinc1	equ	0xFE4
  2948                           plusw1	equ	0xFE3
  2949                           fsr1h	equ	0xFE2
  2950                           fsr1l	equ	0xFE1
  2951                           bsr	equ	0xFE0
  2952                           indf2	equ	0xFDF
  2953                           postinc2	equ	0xFDE
  2954                           postdec2	equ	0xFDD
  2955                           preinc2	equ	0xFDC
  2956                           plusw2	equ	0xFDB
  2957                           fsr2h	equ	0xFDA
  2958                           fsr2l	equ	0xFD9
  2959                           status	equ	0xFD8

Data Sizes:
    Strings     3
    Constant    16
    Data        49
    BSS         45
    Persistent  0
    Stack       0

Auto Spaces:
    Space          Size  Autos    Used
    COMRAM          126     18     112
    BANK0           128     11      11
    BANK1           256      0       0
    BANK2           256      0       0
    BANK3           256      0       0
    BANK4           256      0       0
    BANK5           256      0       0
    BANK6           256      0       0
    BANK7           256      0       0
    BANK8           256      0       0
    BANK9           256      0       0
    BANK10          256      0       0
    BANK11          256      0       0
    BANK12          256      0       0
    BANK13          256      0       0
    BANK14          256      0       0
    BANK15          128      0       0

Pointer List with Targets:

    ADC_GetConversionResult@_adc$ADC_InterruptHandler	PTR FTN()void  size(2) Largest target is 0

    ADC_Init@_adc$ADC_InterruptHandler	PTR FTN()void  size(2) Largest target is 0

    ADC_InterruptHandler	PTR FTN()void  size(2) Largest target is 1
		 -> NULL(), 

    configure_voltage_reference@_adc$ADC_InterruptHandler	PTR FTN()void  size(2) Largest target is 0

    f$.$buffer	PTR unsigned char  size(2) Largest target is 0

    f$.$source	PTR const unsigned char  size(2) Largest target is 0

    gpio_pin_direction_initialize@_pin_config	PTR struct . size(1) Largest target is 1
		 -> led_initialize@pin_obj(BANK0[1]), relay_initialize@pin_obj(COMRAM[1]), 

    gpio_pin_initialize@_pin_config	PTR struct . size(1) Largest target is 1
		 -> led_initialize@pin_obj(BANK0[1]), 

    gpio_pin_toggle_logic@_pin_config	PTR struct . size(1) Largest target is 1
		 -> led_turn_toggle@pin_obj(COMRAM[1]), 

    gpio_pin_write_logic@_pin_config	PTR struct . size(1) Largest target is 1
		 -> led_initialize@pin_obj(BANK0[1]), led_turn_off@pin_obj(COMRAM[1]), led_turn_on@pin_obj(COMRAM[1]), relay_turn_off@pin_obj(COMRAM[1]), 
		 -> relay_turn_on@pin_obj(COMRAM[1]), 

    INT0_InterruptHandler	PTR FTN()void  size(2) Largest target is 1
		 -> NULL(), 

    INT1_InterruptHandler	PTR FTN()void  size(2) Largest target is 1
		 -> NULL(), 

    INT2_InterruptHandler	PTR FTN()void  size(2) Largest target is 1
		 -> NULL(), 

    Interrupt_INTx_Clear_Flag@int_obj$EXT_InterruptHandler	PTR FTN()void  size(2) Largest target is 0

    Interrupt_INTx_Disable@int_obj$EXT_InterruptHandler	PTR FTN()void  size(2) Largest target is 0

    Interrupt_INTx_Edge_Init@int_obj$EXT_InterruptHandler	PTR FTN()void  size(2) Largest target is 0

    Interrupt_INTx_Enable@int_obj$EXT_InterruptHandler	PTR FTN()void  size(2) Largest target is 0

    Interrupt_INTx_Pin_Init@int_obj$EXT_InterruptHandler	PTR FTN()void  size(2) Largest target is 0

    Interrupt_INTx_SetInterruptHandler@int_obj$EXT_InterruptHandler	PTR FTN()void  size(2) Largest target is 0

    Interrupt_RBx_Init@int_obj$EXT_InterruptHandler_HIGH	PTR FTN()void  size(2) Largest target is 0

    Interrupt_RBx_Init@int_obj$EXT_InterruptHandler_LOW	PTR FTN()void  size(2) Largest target is 0

    lat_registers	PTR volatile unsigned char [5] size(2) Largest target is 1
		 -> LATA(BITBIGSFRllll[1]), LATB(BITBIGSFRlllh[1]), LATC(BITBIGSFRlllh[1]), LATD(BITBIGSFRlllh[1]), 
		 -> LATE(BITBIGSFRlllh[1]), 

    led_initialize@led	PTR const struct . size(1) Largest target is 1
		 -> ld1(COMRAM[1]), 

    led_turn_toggle@led	PTR const struct . size(1) Largest target is 1
		 -> ld1(COMRAM[1]), 

    port_registers	PTR volatile unsigned char [5] size(2) Largest target is 1
		 -> PORTA(BITBIGSFRllll[1]), PORTB(BITBIGSFRllll[1]), PORTC(BITBIGSFRllll[1]), PORTD(BITBIGSFRllll[1]), 
		 -> PORTE(BITBIGSFRllll[1]), 

    RB4_InterruptHandler_HIGH	PTR FTN()void  size(2) Largest target is 1
		 -> NULL(), 

    RB4_InterruptHandler_LOW	PTR FTN()void  size(2) Largest target is 1
		 -> NULL(), 

    RB5_InterruptHandler_HIGH	PTR FTN()void  size(2) Largest target is 1
		 -> NULL(), 

    RB5_InterruptHandler_LOW	PTR FTN()void  size(2) Largest target is 1
		 -> NULL(), 

    RB6_InterruptHandler_HIGH	PTR FTN()void  size(2) Largest target is 1
		 -> NULL(), 

    RB6_InterruptHandler_LOW	PTR FTN()void  size(2) Largest target is 1
		 -> NULL(), 

    RB7_InterruptHandler_HIGH	PTR FTN()void  size(2) Largest target is 1
		 -> NULL(), 

    RB7_InterruptHandler_LOW	PTR FTN()void  size(2) Largest target is 1
		 -> NULL(), 

    S1270$EXT_InterruptHandler	PTR FTN()void  size(2) Largest target is 0

    S1386$EXT_InterruptHandler_HIGH	PTR FTN()void  size(2) Largest target is 0

    S1386$EXT_InterruptHandler_LOW	PTR FTN()void  size(2) Largest target is 0

    S1839$TMR0_InterruptHandler	PTR FTN()void  size(2) Largest target is 1
		 -> timer0_defaulthandler(), 

    S2504$buffer	PTR unsigned char  size(2) Largest target is 0

    S2504$source	PTR const unsigned char  size(2) Largest target is 0

    S658$ADC_InterruptHandler	PTR FTN()void  size(2) Largest target is 0

    select_result_format@_adc$ADC_InterruptHandler	PTR FTN()void  size(2) Largest target is 0

    sp__memset	PTR void  size(2) Largest target is 0

    timer0_counter_obj$TMR0_InterruptHandler	PTR FTN()void  size(2) Largest target is 1
		 -> timer0_defaulthandler(), 

    TIMER0_Init@_timer0	PTR const struct . size(1) Largest target is 7
		 -> timer0_obj(COMRAM[7]), 

    TIMER0_Init@_timer0$TMR0_InterruptHandler	PTR FTN()void  size(2) Largest target is 1
		 -> timer0_defaulthandler(), 

    Timer0_Mode_Select@_timer0	PTR const struct . size(1) Largest target is 7
		 -> timer0_obj(COMRAM[7]), 

    Timer0_Mode_Select@_timer0$TMR0_InterruptHandler	PTR FTN()void  size(2) Largest target is 1
		 -> timer0_defaulthandler(), 

    timer0_obj$TMR0_InterruptHandler	PTR FTN()void  size(2) Largest target is 1
		 -> timer0_defaulthandler(), 

    Timer0_Prescaler_Config@_timer0	PTR const struct . size(1) Largest target is 7
		 -> timer0_obj(COMRAM[7]), 

    Timer0_Prescaler_Config@_timer0$TMR0_InterruptHandler	PTR FTN()void  size(2) Largest target is 1
		 -> timer0_defaulthandler(), 

    Timer0_Register_Size_Config@_timer0	PTR const struct . size(1) Largest target is 7
		 -> timer0_obj(COMRAM[7]), 

    Timer0_Register_Size_Config@_timer0$TMR0_InterruptHandler	PTR FTN()void  size(2) Largest target is 1
		 -> timer0_defaulthandler(), 

    TMR0_InterruptHandler	PTR FTN()void  size(2) Largest target is 1
		 -> timer0_defaulthandler(), NULL(), 

    tris_registers	PTR volatile unsigned char [5] size(2) Largest target is 1
		 -> TRISA(BITBIGSFRllll[1]), TRISB(ABS[1]), TRISC(ABS[1]), TRISD(ABS[1]), 
		 -> TRISE(ABS[1]), 

    vfprintf$0	PTR struct _IO_FILE size(1) Largest target is 12
		 -> sprintf@f(COMRAM[12]), 

    vfprintf$1	PTR const unsigned char  size(1) Largest target is 3
		 -> STR_1(CODE[3]), STR_2(CODE[3]), STR_3(CODE[3]), 

    vfprintf$2	PTR PTR void  size(1) Largest target is 1
		 -> sprintf@ap(COMRAM[1]), 


Critical Paths under _main in COMRAM

    _main->_TIMER0_Init
    _led_initialize->_gpio_pin_initialize
    _gpio_pin_initialize->_gpio_pin_write_logic
    _TIMER0_Init->_Timer0_Prescaler_Config

Critical Paths under _InterruptManager in COMRAM

    _timer0_defaulthandler->_led_turn_toggle
    _led_turn_toggle->_gpio_pin_toggle_logic

Critical Paths under _main in BANK0

    _main->_led_initialize
    _led_initialize->_gpio_pin_initialize
    _gpio_pin_initialize->_gpio_pin_direction_initialize
    _gpio_pin_initialize->_gpio_pin_write_logic

Critical Paths under _InterruptManager in BANK0

    None.

Critical Paths under _main in BANK1

    None.

Critical Paths under _InterruptManager in BANK1

    None.

Critical Paths under _main in BANK2

    None.

Critical Paths under _InterruptManager in BANK2

    None.

Critical Paths under _main in BANK3

    None.

Critical Paths under _InterruptManager in BANK3

    None.

Critical Paths under _main in BANK4

    None.

Critical Paths under _InterruptManager in BANK4

    None.

Critical Paths under _main in BANK5

    None.

Critical Paths under _InterruptManager in BANK5

    None.

Critical Paths under _main in BANK6

    None.

Critical Paths under _InterruptManager in BANK6

    None.

Critical Paths under _main in BANK7

    None.

Critical Paths under _InterruptManager in BANK7

    None.

Critical Paths under _main in BANK8

    None.

Critical Paths under _InterruptManager in BANK8

    None.

Critical Paths under _main in BANK9

    None.

Critical Paths under _InterruptManager in BANK9

    None.

Critical Paths under _main in BANK10

    None.

Critical Paths under _InterruptManager in BANK10

    None.

Critical Paths under _main in BANK11

    None.

Critical Paths under _InterruptManager in BANK11

    None.

Critical Paths under _main in BANK12

    None.

Critical Paths under _InterruptManager in BANK12

    None.

Critical Paths under _main in BANK13

    None.

Critical Paths under _InterruptManager in BANK13

    None.

Critical Paths under _main in BANK14

    None.

Critical Paths under _InterruptManager in BANK14

    None.

Critical Paths under _main in BANK15

    None.

Critical Paths under _InterruptManager in BANK15

    None.

Call Graph Tables:

 ---------------------------------------------------------------------------------
 (Depth) Function   	        Calls       Base Space   Used Autos Params    Refs
 ---------------------------------------------------------------------------------
 (0) _main                                                 1     1      0    9207
                        _TIMER0_Init
                     _led_initialize
 ---------------------------------------------------------------------------------
 (1) _led_initialize                                       4     3      1    8394
                                              7 BANK0      4     3      1
                _gpio_pin_initialize
 ---------------------------------------------------------------------------------
 (2) _gpio_pin_initialize                                  3     2      1    8061
                                             17 COMRAM     1     0      1
                                              5 BANK0      2     2      0
      _gpio_pin_direction_initialize
               _gpio_pin_write_logic
 ---------------------------------------------------------------------------------
 (3) _gpio_pin_write_logic                                 8     6      2    5837
                                             14 COMRAM     3     1      2
                                              0 BANK0      5     5      0
 ---------------------------------------------------------------------------------
 (3) _gpio_pin_direction_initialize                        7     6      1    1337
                                             14 COMRAM     2     1      1
                                              0 BANK0      5     5      0
 ---------------------------------------------------------------------------------
 (1) _TIMER0_Init                                          4     3      1     804
                                             16 COMRAM     2     1      1
                                              0 BANK0      2     2      0
                 _Timer0_Mode_Select
            _Timer0_Prescaler_Config
        _Timer0_Register_Size_Config
 ---------------------------------------------------------------------------------
 (2) _Timer0_Register_Size_Config                          1     0      1     120
                                             14 COMRAM     1     0      1
 ---------------------------------------------------------------------------------
 (2) _Timer0_Prescaler_Config                              2     1      1     142
                                             14 COMRAM     2     1      1
 ---------------------------------------------------------------------------------
 (2) _Timer0_Mode_Select                                   1     0      1     164
                                             14 COMRAM     1     0      1
 ---------------------------------------------------------------------------------
 Estimated maximum stack depth 3
 ---------------------------------------------------------------------------------
 (Depth) Function   	        Calls       Base Space   Used Autos Params    Refs
 ---------------------------------------------------------------------------------
 (4) _InterruptManager                                     6     6      0     494
                                              8 COMRAM     6     6      0
                            _ADC_ISR
                           _INT0_ISR
                           _INT1_ISR
                           _INT2_ISR
                            _RB4_ISR
                            _RB5_ISR
                            _RB6_ISR
                            _RB7_ISR
                           _TMR0_ISR
 ---------------------------------------------------------------------------------
 (5) _TMR0_ISR                                             0     0      0     374
                                NULL *
              _timer0_defaulthandler *
 ---------------------------------------------------------------------------------
 (6) _timer0_defaulthandler                                0     0      0     374
                    _led_turn_toggle
 ---------------------------------------------------------------------------------
 (7) _led_turn_toggle                                      4     3      1     374
                                              5 COMRAM     3     2      1
              _gpio_pin_toggle_logic
 ---------------------------------------------------------------------------------
 (8) _gpio_pin_toggle_logic                                6     5      1     172
                                              0 COMRAM     5     4      1
 ---------------------------------------------------------------------------------
 (6) NULL(Fake)                                            0     0      0       0
 ---------------------------------------------------------------------------------
 (5) _RB7_ISR                                              1     1      0      30
                                              0 COMRAM     1     1      0
 ---------------------------------------------------------------------------------
 (5) _RB6_ISR                                              1     1      0      30
                                              0 COMRAM     1     1      0
 ---------------------------------------------------------------------------------
 (5) _RB5_ISR                                              1     1      0      30
                                              0 COMRAM     1     1      0
 ---------------------------------------------------------------------------------
 (5) _RB4_ISR                                              1     1      0      30
                                              0 COMRAM     1     1      0
 ---------------------------------------------------------------------------------
 (5) _INT2_ISR                                             0     0      0       0
 ---------------------------------------------------------------------------------
 (5) _INT1_ISR                                             0     0      0       0
 ---------------------------------------------------------------------------------
 (5) _INT0_ISR                                             0     0      0       0
 ---------------------------------------------------------------------------------
 (5) _ADC_ISR                                              0     0      0       0
 ---------------------------------------------------------------------------------
 Estimated maximum stack depth 8
 ---------------------------------------------------------------------------------

 Call Graph Graphs:

 _main (ROOT)
   _TIMER0_Init
     _Timer0_Mode_Select
     _Timer0_Prescaler_Config
     _Timer0_Register_Size_Config
   _led_initialize
     _gpio_pin_initialize
       _gpio_pin_direction_initialize
       _gpio_pin_write_logic

 _InterruptManager (ROOT)
   _ADC_ISR
   _INT0_ISR
   _INT1_ISR
   _INT2_ISR
   _RB4_ISR
   _RB5_ISR
   _RB6_ISR
   _RB7_ISR
   _TMR0_ISR
     NULL(Fake) *
     _timer0_defaulthandler *
       _led_turn_toggle
         _gpio_pin_toggle_logic

 Address spaces:
Name               Size   Autos  Total    Cost      Usage
BIGRAM             F7F      0       0      45        0.0%
EEDATA             400      0       0       0        0.0%
BITBANK14          100      0       0      32        0.0%
BANK14             100      0       0      33        0.0%
BITBANK13          100      0       0      30        0.0%
BANK13             100      0       0      31        0.0%
BITBANK12          100      0       0      28        0.0%
BANK12             100      0       0      29        0.0%
BITBANK11          100      0       0      26        0.0%
BANK11             100      0       0      27        0.0%
BITBANK10          100      0       0      24        0.0%
BANK10             100      0       0      25        0.0%
BITBANK9           100      0       0      22        0.0%
BANK9              100      0       0      23        0.0%
BITBANK8           100      0       0      20        0.0%
BANK8              100      0       0      21        0.0%
BITBANK7           100      0       0      18        0.0%
BANK7              100      0       0      19        0.0%
BITBANK6           100      0       0      16        0.0%
BANK6              100      0       0      17        0.0%
BITBANK5           100      0       0      14        0.0%
BANK5              100      0       0      15        0.0%
BITBANK4           100      0       0      12        0.0%
BANK4              100      0       0      13        0.0%
BITBANK3           100      0       0      10        0.0%
BANK3              100      0       0      11        0.0%
BITBANK2           100      0       0       8        0.0%
BANK2              100      0       0       9        0.0%
BITBANK1           100      0       0       6        0.0%
BANK1              100      0       0       7        0.0%
BITBANK15           80      0       0      34        0.0%
BANK15              80      0       0      35        0.0%
BITBANK0            80      0       0       4        0.0%
BANK0               80      B       B       5        8.6%
BITCOMRAM           7E      0       0       0        0.0%
COMRAM              7E     12      70       1       88.9%
BITBIGSFRhlhlh      18      0       0      37        0.0%
BITBIGSFRlhh        15      0       0      39        0.0%
BITBIGSFRhlhll      10      0       0      38        0.0%
BITBIGSFRhh          D      0       0      36        0.0%
BITBIGSFRlhll        7      0       0      40        0.0%
BITBIGSFRllhh        6      0       0      41        0.0%
BITBIGSFRlllh        4      0       0      42        0.0%
BITBIGSFRllll        4      0       0      43        0.0%
BIGSFR               0      0       0     200        0.0%
BITSFR               0      0       0     200        0.0%
SFR                  0      0       0     200        0.0%
STACK                0      0       0       2        0.0%
NULL                 0      0       0       0        0.0%
ABS                  0      0      7B      44        0.0%
DATA                 0      0      7B       3        0.0%
CODE                 0      0       0       0        0.0%


Microchip Technology PIC18 Macro Assembler V2.45 build 20230818022343 
Symbol Table                                                                                   Wed Mar 06 00:01:10 2024

          Timer0_Prescaler_Config@_timer0 006D                        ??_InterruptManager 0067  
      Timer0_Register_Size_Config@_timer0 006D                         ??_led_turn_toggle 0065  
                                     l283 174C                                       l532 1436  
                                     l551 154C                                       l279 16F6  
                                     l565 180E                                       l931 1566  
                                     l907 194C                                       l908 194C  
                                     l933 15DC                                       l960 1860  
                                     l970 16D6                                       l971 16D6  
                                     l978 189A                                       _ld1 0031  
                                     _cnt 003C                 _RB5_InterruptHandler_HIGH 004A  
                         __end_of_ADC_ISR 19D6                       led_initialize@F3058 005E  
                                     tosl 0FFD                     relay_initialize@F3052 005A  
                                     wreg 0FE8                           __end_of_RB4_ISR 19BC  
                         __end_of_RB5_ISR 19A2                           __end_of_RB6_ISR 1988  
                         __end_of_RB7_ISR 196E                                      l3511 1828  
                                    l3521 1678                                      l3513 182A  
                                    l4321 130C                                      l5113 193A  
                                    l3531 16B8                                      l3523 1680  
                                    l3515 1846                                      l4323 1320  
                                    l5115 193A                                      l3533 16D0  
                                    l3525 1698                                      l3517 185E  
                                    l3509 1810                                      l3541 1898  
                                    l4333 13F4                                      l4325 1342  
                                    l5117 1942                                      l3527 169A  
                                    l3519 1660                                      l3535 1862  
                                    l4327 134A                                      l4335 1434  
                                    l4351 14CE                                      l4343 1438  
                                    l3529 16B2                                      l3537 187A  
                                    l5161 141E                                      l4329 13A2  
                                    l4345 144C                                      l4521 16D8  
                                    l3539 1880                                      l4355 1520  
                                    l4347 146E                                      l4371 17F0  
                                    l4531 1740                                      l4523 16EE  
                                    l4541 1568                                      l4349 1476  
                                    l4357 154A                                      l4373 180C  
                                    l4365 17B4                                      l4525 16FA  
                                    l4533 1748                                      l4551 15C0  
                                    l4543 1580                                      l5159 1534  
                                    l4367 17C4                                      l4527 172C  
                                    l4561 15D6                                      l4553 15C2  
                                    l4545 158E                                      l4537 154E  
                                    l4369 17E6                                      l4529 172E  
                                    l4555 15D0                                      l4547 15AC  
                                    l4563 15DA                                      l4539 155E  
                                    l4557 15D2                                      l4549 15BE  
                                    l4559 15D4                                      STR_1 1011  
                                    u2300 185E                                      u2301 185A  
                                    _LATA 0F89                                      u2310 1678  
                                    _LATB 0F8A                                      u2311 1674  
                                    _LATC 0F8B                                      u2320 1698  
                                    _LATD 0F8C                                      u2321 1694  
                                    _LATE 0F8D                                      u2330 16B2  
                                    u2331 16AE                                      u2340 16D0  
                                    u2341 16CC                                      u2350 187A  
                                    u2351 1876                                      u2360 1898  
                                    u3400 140A                                      u2361 1894  
                                    u3401 1404                                      u2290 1828  
                                    u3410 140C                                      u2291 1824  
                                    u3420 144C                                      u3421 1448  
                                    u3430 146E                                      u3431 146A  
                                    u3360 1320                                      u3361 131C  
                                    u3370 1342                                      u3610 16EE  
                                    u3371 133E                                      u3611 16EA  
                                    u3444 1494                                      u3460 17C4  
                                    u3445 1490                                      u3461 17C0  
                                    u3630 155E                                      u3454 14EC  
                                    u3470 17E6                                      u3631 155A  
                                    u3455 14E8                                      u3471 17E2  
                                    u3384 1368                                      u3385 1364  
                                    u3625 173C                                      u3394 13C0  
                                    u3395 13BC                                      u3627 1740  
                _RB4_InterruptHandler_LOW 004C                                      _main 193A  
                _RB7_InterruptHandler_LOW 0040                                      fsr2h 0FDA  
                                    indf2 0FDF                                      fsr1l 0FE1  
                                    fsr2l 0FD9                                      btemp 0071  
                  __end_of_led_initialize 174E                                      prodh 0FF4  
                                    prodl 0FF3                                      start 000E  
                            ___param_bank 0000                    ?_gpio_pin_toggle_logic 005F  
                    _gpio_pin_write_logic 1438                          __end_of_INT0_ISR 19D2  
                        __end_of_INT1_ISR 19CE                          __end_of_INT2_ISR 19CA  
                                   ?_main 005F                                     _EEADR 0FA9  
                                   i2l300 1762                                     i2l304 17B2  
                                   i2l459 19D4                                     i2l707 196C  
                                   i2l572 165E                                     i2l653 19D0  
                                   i2l663 19C8                                     i2l658 19CC  
                                   i2l674 19BA                                     i2l860 1070  
                                   i2l685 19A0                                     i2l870 11A0  
                                   i2l862 1090                                     i2l696 1986  
                                   i2l880 12D0                                     i2l872 11E4  
                                   i2l864 10D4                                     i2l953 1906  
                                   i2l874 1228                                     i2l866 1118  
                                   i2l858 1050                                     i2l883 12F0  
                                   i2l876 126C                                     i2l868 115C  
                                   i2l878 12B0                                     i2l898 19C4  
                     relay_turn_off@F3062 0058                                     _TMR0H 0FD7  
                                   _TMR0L 0FD6                                     _PORTA 0F80  
                                   _PORTB 0F81                                     _PORTC 0F82  
                                   _PORTD 0F83                                     _PORTE 0F84  
                                   _TRISA 0F92                                     _TRISB 0F93  
                                   _TRISC 0F94                                     _TRISD 0F95  
                                   _TRISE 0F96                          __end_of_TMR0_ISR 1908  
                                   pclath 0FFA                                     pclatu 0FFB  
                                   tablat 0FF5                    ?_timer0_defaulthandler 005F  
                                   ttemp5 0072                                     ttemp6 0075  
                                   ttemp7 0079                                     status 0FD8  
                                   wtemp8 0072                           ?_led_initialize 0087  
                 _Timer0_Prescaler_Config 1810            ?_gpio_pin_direction_initialize 006D  
                         __initialization 189C                              __end_of_main 1954  
                   ?_gpio_pin_write_logic 006D                                 ??_ADC_ISR 005F  
                           _lat_registers 000B                                    ??_main 0071  
                            ?_TIMER0_Init 006F                             __activetblptr 0003  
                        led_turn_on@F3063 005D                                 ??_RB4_ISR 005F  
                               ??_RB5_ISR 005F                                 ??_RB6_ISR 005F  
                               ??_RB7_ISR 005F                                    _ADRESH 0FC4  
                                  _EEADRH 0FAA                                    _ADRESL 0FC3  
                                  _EEDATA 0FA8                                    _EECON2 0FA7  
                                  i2l2003 19CE                                    i2l2021 19A4  
                                  i2l2015 19C6                                    i2l2023 19A6  
                                  i2l2009 19CA                                    i2l2043 19A0  
                                  i2l2035 198A                                    i2l2051 1972  
                                  i2l2029 19BA                                    i2l2037 198C  
                                  i2l2071 196C                                    i2l2063 1956  
                                  i2l2057 1986                                    i2l2049 1970  
                                  i2l2065 1958                                    i2l3401 175E  
                                  i2l3403 1766                                    i2l4211 105E  
                                  i2l3405 1798                                    i2l4301 12CC  
                                  i2l4221 10AC                                    i2l4213 106C  
                                  i2l4205 1030                                    i2l3351 1612  
                                  i2l3407 179A                                    i2l4303 12DE  
                                  i2l4231 10F0                                    i2l4223 10BA  
                                  i2l4215 107E                                    i2l4207 103E  
                                  i2l3345 15DE                                    i2l3409 17AA  
                                  i2l4305 12EC                                    i2l4241 1134  
                                  i2l4233 10FE                                    i2l4225 10CA  
                                  i2l4217 108C                                    i2l4209 104C  
                                  i2l3347 15EE                                    i2l3507 19BC  
                                  i2l4251 1178                                    i2l4243 1142  
                                  i2l4235 110E                                    i2l4227 10CE  
                                  i2l4219 109E                                    i2l3349 160E  
                                  i2l3621 18D2                                    i2l4261 11BC  
                                  i2l4253 1186                                    i2l4245 1152  
                                  i2l4237 1112                                    i2l4229 10E2  
                                  i2l3623 18D8                                    i2l4271 1200  
                                  i2l4263 11CA                                    i2l4255 1196  
                                  i2l4247 1156                                    i2l4239 1126  
                                  i2l3625 18DC                                    i2l4281 1244  
                                  i2l4273 120E                                    i2l4265 11DA  
                                  i2l4257 119A                                    i2l4249 116A  
                                  i2l3627 18EE                                    i2l4291 1288  
                                  i2l4283 1252                                    i2l4275 121E  
                                  i2l4267 11DE                                    i2l4259 11AE  
                                  i2l4293 1296                                    i2l4285 1262  
                                  i2l4277 1222                                    i2l4269 11F2  
                                  i2l3399 174E                                    i2l4295 12A6  
                                  i2l4287 1266                                    i2l4279 1236  
                                  i2l4297 12AA                                    i2l4289 127A  
                                  i2l4299 12BE                                    i2l1997 19D2  
                      TIMER0_Init@_timer0 006F          gpio_pin_toggle_logic@_pin_config 005F  
            ?_Timer0_Register_Size_Config 006D                                    clear_0 18C2  
                   led_initialize@pin_obj 008A                                    isa$std 0001  
                            __pdataCOMRAM 0001                              __mediumconst 0000  
                                  tblptrh 0FF7                                    tblptrl 0FF6  
                                  tblptru 0FF8                 ??_Timer0_Prescaler_Config 006E  
                              __accesstop 0080                   __end_of__initialization 18C8  
                               ?_INT0_ISR 005F                                 ?_INT1_ISR 005F  
                               ?_INT2_ISR 005F                             ___rparam_used 0001  
                       led_initialize@led 0087                           _led_turn_toggle 174E  
                       led_initialize@ret 0089                         RB5_ISR@RB5_Source 005F  
                  ??_gpio_pin_write_logic 0080                            __pcstackCOMRAM 005F  
                               ?_TMR0_ISR 005F             ??_Timer0_Register_Size_Config 006E  
gpio_pin_direction_initialize@_pin_config 006D                     _INT0_InterruptHandler 0054  
                              ??_INT0_ISR 005F                                ??_INT1_ISR 005F  
                              ??_INT2_ISR 005F                   ??_gpio_pin_toggle_logic 0060  
                              ??_TMR0_ISR 0067                         led_turn_off@F3068 005C  
                                 _ADC_ISR 19D2                         RB7_ISR@RB7_Source 005F  
                                 _RB4_ISR 19A2                                   _RB5_ISR 1988  
                                 _RB6_ISR 196E                                   _RB7_ISR 1954  
               _RB6_InterruptHandler_HIGH 0046                      led_turn_toggle@F3073 005B  
                                 i2u50_40 1982                 Timer0_Mode_Select@_timer0 006D  
                                 i2u50_41 197E                                   i2u51_40 1968  
                                 i2u51_41 1964                                   i2u48_40 19B6  
                                 i2u48_41 19B2                                   i2u49_40 199C  
                                 i2u49_41 1998                   ??_timer0_defaulthandler 0067  
                        ??_led_initialize 0088                                _btn_values 1001  
                 __end_of_led_turn_toggle 17B4                            _tris_registers 0015  
                _RB6_InterruptHandler_LOW 0044                      _ADC_InterruptHandler 0056  
                                 __Hparam 0000                                   __Lparam 0000  
                     _gpio_pin_initialize 17B4                              __psmallconst 1000  
                                 __pcinit 189C                                   __ramtop 1000  
                                 __ptext0 193A                                   __ptext1 16D8  
                                 __ptext2 17B4                                   __ptext3 1438  
                                 __ptext4 130C                                   __ptext5 154E  
                                 __ptext6 1862                                   __ptext7 1810  
                                 __ptext8 1660                                 _T0CONbits 0FD5  
         ??_gpio_pin_direction_initialize 0080                                   _tmr0_fl 003E  
                    ?_gpio_pin_initialize 0070                            __pintcode_body 1016  
                    end_of_initialization 18C8                                   int_func 1016  
                              _timer0_obj 002A                                   postdec1 0FE5  
                                 postdec2 0FDD                                   postinc0 0FEE  
                                 postinc2 0FDE                     _INT1_InterruptHandler 0052  
                               _PORTBbits 0F81                          _InterruptManager 0008  
                   ??_gpio_pin_initialize 0085                          ?_led_turn_toggle 0064  
              __end_of_Timer0_Mode_Select 16D8                        relay_turn_on@F3057 0059  
           convert_uint16_to_string@F3228 0032                             __pidataCOMRAM 1908  
                          _timer0_preload 0038                       start_initialization 189C  
                  led_turn_toggle@pin_obj 0066     __end_of_gpio_pin_direction_initialize 1438  
           _gpio_pin_direction_initialize 130C             __end_of_gpio_pin_toggle_logic 1660  
                                ?_ADC_ISR 005F                                  ?_RB4_ISR 005F  
                                ?_RB5_ISR 005F                                  ?_RB6_ISR 005F  
                                ?_RB7_ISR 005F                               __pbssCOMRAM 0032  
                           __pcstackBANK0 0080                  ?_Timer0_Prescaler_Config 006D  
           __end_of_timer0_defaulthandler 19C6                        _timer0_counter_obj 001F  
                   _INT2_InterruptHandler 0050                     _TMR0_InterruptHandler 003A  
     __end_of_Timer0_Register_Size_Config 189C               _Timer0_Register_Size_Config 1862  
                               __pintcode 0008           gpio_pin_write_logic@_pin_config 006D  
               gpio_pin_write_logic@logic 006E                             ??_TIMER0_Init 0080  
                             __smallconst 1000                 _RB4_InterruptHandler_HIGH 004E  
               _RB7_InterruptHandler_HIGH 0042                  _RB5_InterruptHandler_LOW 0048  
                                _INT0_ISR 19CE                                  _INT1_ISR 19CA  
                                _INT2_ISR 19C6                                  _RB4_Flag 0029  
                                _RB5_Flag 0028                                  _RB6_Flag 0027  
                                _RB7_Flag 0026                         RB4_ISR@RB4_Source 005F  
                __end_of_InterruptManager 130C                                  _PIE1bits 0F9D  
                                i2u300_40 109E                                  i2u300_41 109A  
                                i2u205_40 15EE                                  i2u301_40 10AC  
                                i2u205_41 15EA                                  i2u301_41 10A8  
                                i2u206_40 160E                                  i2u310_40 1142  
                                i2u302_40 10BA                                  i2u206_41 160A  
                                i2u310_41 113E                                  i2u302_41 10B6  
                                i2u311_40 1152                                  i2u303_40 10CA  
                                i2u311_41 114E                                  i2u303_41 10C6  
                                i2u207_44 1630                                  i2u207_45 162C  
                                i2u320_40 11F2                                  i2u312_40 116A  
                                i2u304_40 10E2                                  i2u320_41 11EE  
                                i2u312_41 1166                                  i2u304_41 10DE  
                                i2u321_40 1200                                  i2u313_40 1178  
                                i2u305_40 10F0                                  i2u321_41 11FC  
                                i2u313_41 1174                                  i2u305_41 10EC  
                                i2u218_40 175E                                  i2u330_40 1296  
                                i2u322_40 120E                                  i2u314_40 1186  
                                i2u306_40 10FE                                  i2u218_41 175A  
                                i2u330_41 1292                                  i2u322_41 120A  
                                i2u314_41 1182                                  i2u306_41 10FA  
                                i2u331_40 12A6                                  i2u323_40 121E  
                                i2u315_40 1196                                  i2u307_40 110E  
                                i2u331_41 12A2                                  i2u323_41 121A  
                                i2u315_41 1192                                  i2u307_41 110A  
                                i2u219_45 17A8                                  i2u219_47 17AA  
                                i2u332_40 12BE                                  i2u324_40 1236  
                                i2u316_40 11AE                                  i2u308_40 1126  
                                i2u332_41 12BA                                  i2u324_41 1232  
                                i2u316_41 11AA                                  i2u308_41 1122  
                                i2u245_40 18EE                                  i2u333_40 12CC  
                                i2u325_40 1244                                  i2u317_40 11BC  
                                i2u309_40 1134                                  i2u245_41 18EA  
                                i2u333_41 12C8                                  i2u325_41 1240  
                                i2u317_41 11B8                                  i2u309_41 1130  
                                i2u334_40 12DE                                  i2u326_40 1252  
                                i2u318_40 11CA                                  i2u334_41 12DA  
                                i2u326_41 124E                                  i2u318_41 11C6  
                                i2u246_48 18F4                                  i2u335_40 12EC  
                                i2u327_40 1262                                  i2u319_40 11DA  
                                i2u246_49 1906                                  i2u335_41 12E8  
                                i2u327_41 125E                                  i2u319_41 11D6  
                                i2u328_40 127A                                  i2u328_41 1276  
                                i2u329_40 1288                                  i2u329_41 1284  
                                _PIR1bits 0F9E                                  i2u294_40 103E  
                                i2u294_41 103A                                  i2u295_40 104C  
                                i2u295_41 1048                                  i2u296_40 105E  
                                i2u296_41 105A                                  i2u297_40 106C  
                                i2u297_41 1068                                  i2u298_40 107E  
                                i2u298_41 107A                                  i2u299_40 108C  
                                i2u299_41 1088          gpio_pin_direction_initialize@ret 006E  
                                _TMR0_ISR 18D2                                _ADCON0bits 0FC2  
                              _ADCON1bits 0FC1                                _ADCON2bits 0FC0  
         __end_of_Timer0_Prescaler_Config 1862                            TIMER0_Init@ret 0070  
                  gpio_pin_initialize@ret 0086                       __end_of_TIMER0_Init 15DE  
                 gpio_pin_write_logic@ret 006F                               _INTCON2bits 0FF1  
                             _INTCON3bits 0FF0                                 copy_data0 18B0  
                              _EECON1bits 0FA6                                  __Hrparam 0000  
                fp__timer0_defaulthandler 0000                                  __Lrparam 0000  
                       RB6_ISR@RB6_Source 005F                        _Timer0_Mode_Select 1660  
             __end_of_gpio_pin_initialize 1810                        __end_of_btn_values 1011  
          gpio_pin_initialize@_pin_config 0070                       ?_Timer0_Mode_Select 006D  
                                __ptext10 18D2                                  __ptext11 19BC  
                                __ptext20 19CE                                  __ptext12 174E  
                                __ptext21 19D2                                  __ptext13 15DE  
                                __ptext22 0000                                  __ptext14 1954  
                                __ptext15 196E                                  __ptext16 1988  
                                __ptext17 19A2                                  __ptext18 19C6  
                                __ptext19 19CA                        led_turn_toggle@led 0064  
                    ??_Timer0_Mode_Select 006E                                  isa$xinst 0000  
                                int$flags 0071                               _TIMER0_Init 154E  
                              _INTCONbits 0FF2              __end_of_gpio_pin_write_logic 154E  
                                intlevel2 0000                     _gpio_pin_toggle_logic 15DE  
                          _port_registers 0001                     _timer0_defaulthandler 19BC  
                       ?_InterruptManager 005F                            _led_initialize 16D8  
