

Microchip MPLAB XC8 Assembler V2.45 build 20230818022343 
                                                                                               Sun Feb 25 05:02:39 2024

Microchip MPLAB XC8 C Compiler v2.45 (Free license) build 20230818022343 Og1 
     1                           	processor	18F4620
     2                           	fnconf	rparam,??,?,0
     3                           	pagewidth 120
     4                           	opt	flic
     5                           	psect	idataCOMRAM,global,class=CODE,delta=1,noexec
     6                           	psect	smallconst,global,reloc=2,class=SMALLCONST,delta=1,noexec
     7                           	psect	nvBANK0,global,class=BANK0,space=1,delta=1,lowdata,noexec
     8                           	psect	cinit,global,reloc=2,class=CODE,delta=1
     9                           	psect	bssCOMRAM,global,class=COMRAM,space=1,delta=1,lowdata,noexec
    10                           	psect	dataCOMRAM,global,class=COMRAM,space=1,delta=1,lowdata,noexec
    11                           	psect	cstackBANK0,global,class=BANK0,space=1,delta=1,lowdata,noexec
    12                           	psect	cstackCOMRAM,global,class=COMRAM,space=1,delta=1,lowdata,noexec
    13                           	psect	text0,global,reloc=2,class=CODE,delta=1
    14                           	psect	text1,global,reloc=2,class=CODE,delta=1
    15                           	psect	text2,global,reloc=2,class=CODE,delta=1
    16                           	psect	text3,global,reloc=2,class=CODE,delta=1
    17                           	psect	text4,global,reloc=2,class=CODE,delta=1
    18                           	psect	text5,global,reloc=2,class=CODE,delta=1
    19                           	psect	intcode,global,reloc=2,class=CODE,delta=1
    20                           	psect	intcode_body,global,reloc=2,class=CODE,delta=1
    21                           	psect	text7,global,reloc=2,class=CODE,delta=1
    22                           	psect	text8,global,reloc=2,class=CODE,delta=1
    23                           	psect	text9,global,reloc=2,class=CODE,delta=1
    24                           	psect	text10,global,reloc=2,class=CODE,delta=1
    25                           	psect	text11,global,reloc=2,class=CODE,delta=1
    26                           	psect	text12,global,reloc=2,class=CODE,delta=1
    27                           	psect	text13,global,reloc=2,class=CODE,delta=1
    28                           	psect	text14,global,reloc=2,class=CODE,delta=1
    29                           	psect	text15,global,reloc=2,class=CODE,delta=1
    30                           	psect	text16,global,reloc=2,class=CODE,delta=1
    31                           	psect	text17,global,reloc=2,class=CODE,delta=1
    32                           	psect	text18,global,reloc=2,class=CODE,delta=1
    33                           	psect	text19,global,reloc=2,class=CODE,delta=1
    34                           	psect	text20,global,reloc=2,class=CODE,delta=1
    35                           	psect	text21,global,reloc=2,class=CODE,delta=1
    36                           	psect	text22,global,reloc=2,class=CODE,delta=1
    37                           	psect	text23,global,reloc=2,class=CODE,delta=1
    38                           	psect	text24,global,reloc=2,class=CODE,delta=1
    39                           	psect	intsave_regs,global,class=BIGRAM,space=1,delta=1,noexec
    40                           	psect	text25,global,reloc=2,class=CODE,delta=1
    41                           	psect	rparam,global,class=COMRAM,space=1,delta=1,noexec
    42                           	psect	temp,global,ovrld,common,class=COMRAM,space=1,delta=1
    43                           	psect	config,global,abs,ovrld,class=CONFIG,space=4,delta=1,noexec
    44   000000                     
    45                           ; Generated 23/03/2023 GMT
    46                           ; 
    47                           ; Copyright © 2023, Microchip Technology Inc. and its subsidiaries ("Microchip")
    48                           ; All rights reserved.
    49                           ; 
    50                           ; This software is developed by Microchip Technology Inc. and its subsidiaries ("Microch
      +                          ip").
    51                           ; 
    52                           ; Redistribution and use in source and binary forms, with or without modification, are
    53                           ; permitted provided that the following conditions are met:
    54                           ; 
    55                           ;     1. Redistributions of source code must retain the above copyright notice, this lis
      +                          t of
    56                           ;        conditions and the following disclaimer.
    57                           ; 
    58                           ;     2. Redistributions in binary form must reproduce the above copyright notice, this 
      +                          list
    59                           ;        of conditions and the following disclaimer in the documentation and/or other
    60                           ;        materials provided with the distribution. Publication is not required when
    61                           ;        this file is used in an embedded application.
    62                           ; 
    63                           ;     3. Microchip's name may not be used to endorse or promote products derived from th
      +                          is
    64                           ;        software without specific prior written permission.
    65                           ; 
    66                           ; THIS SOFTWARE IS PROVIDED BY MICROCHIP "AS IS" AND ANY EXPRESS OR IMPLIED WARRANTIES,
    67                           ; INCLUDING, BUT NOT LIMITED TO, THE IMPLIED WARRANTIES OF MERCHANTABILITY AND FITNESS F
      +                          OR
    68                           ; PURPOSE ARE DISCLAIMED.  IN NO EVENT SHALL MICROCHIP BE LIABLE FOR ANY DIRECT, INDIREC
      +                          T,
    69                           ; INCIDENTAL, SPECIAL, EXEMPLARY, OR CONSEQUENTIAL DAMAGES (INCLUDING BUT NOT LIMITED TO
    70                           ; PROCUREMENT OF SUBSTITUTE GOODS OR SERVICES; LOSS OF USE, DATA OR PROFITS; OR BUSINESS
    71                           ; INTERRUPTION) HOWSOEVER CAUSED AND ON ANY THEORY OF LIABILITY, WHETHER IN CONTRACT, ST
      +                          RICT
    72                           ; LIABILITY, OR TORT (INCLUDING NEGLIGENCE OR OTHERWISE) ARISING IN ANY WAY OUT OF THE U
      +                          SE OF
    73                           ; THIS SOFTWARE, EVEN IF ADVISED OF THE POSSIBILITY OF SUCH DAMAGE.
    74                           ; 
    75                           ; 
    76                           ; Code-generator required, PIC18F4620 Definitions
    77                           ; 
    78                           ; SFR Addresses
    79   000000                     
    80                           	psect	idataCOMRAM
    81   001B48                     __pidataCOMRAM:
    82                           	callstack 0
    83                           
    84                           ;initializer for _port_registers
    85   001B48  80                 	db	128
    86   001B49  0F                 	db	15
    87   001B4A  81                 	db	129
    88   001B4B  0F                 	db	15
    89   001B4C  82                 	db	130
    90   001B4D  0F                 	db	15
    91   001B4E  83                 	db	131
    92   001B4F  0F                 	db	15
    93   001B50  84                 	db	132
    94   001B51  0F                 	db	15
    95                           
    96                           ;initializer for _lat_registers
    97   001B52  89                 	db	137
    98   001B53  0F                 	db	15
    99   001B54  8A                 	db	138
   100   001B55  0F                 	db	15
   101   001B56  8B                 	db	139
   102   001B57  0F                 	db	15
   103   001B58  8C                 	db	140
   104   001B59  0F                 	db	15
   105   001B5A  8D                 	db	141
   106   001B5B  0F                 	db	15
   107                           
   108                           ;initializer for _tris_registers
   109   001B5C  92                 	db	146
   110   001B5D  0F                 	db	15
   111   001B5E  93                 	db	147
   112   001B5F  0F                 	db	15
   113   001B60  94                 	db	148
   114   001B61  0F                 	db	15
   115   001B62  95                 	db	149
   116   001B63  0F                 	db	15
   117   001B64  96                 	db	150
   118   001B65  0F                 	db	15
   119                           
   120                           ;initializer for _RB7_Flag
   121   001B66  01                 	db	1
   122                           
   123                           ;initializer for _RB6_Flag
   124   001B67  01                 	db	1
   125                           
   126                           ;initializer for _RB5_Flag
   127   001B68  01                 	db	1
   128                           
   129                           ;initializer for _RB4_Flag
   130   001B69  01                 	db	1
   131                           
   132                           ;initializer for _rb7_obj
   133   001B6A  1E                 	db	low _rb7_isr_high
   134   001B6B  1C                 	db	high _rb7_isr_high
   135   001B6C  E6                 	db	low _rb7_isr_low
   136   001B6D  1B                 	db	high _rb7_isr_low
   137   001B6E  79                 	db	121
   138   001B6F  01                 	db	1
   139                           
   140                           ;initializer for _rb6_obj
   141   001B70  F4                 	db	low _rb6_isr_high
   142   001B71  1B                 	db	high _rb6_isr_high
   143   001B72  BC                 	db	low _rb6_isr_low
   144   001B73  1B                 	db	high _rb6_isr_low
   145   001B74  71                 	db	113
   146   001B75  01                 	db	1
   147                           
   148                           ;initializer for _rb5_obj
   149   001B76  02                 	db	low _rb5_isr_high
   150   001B77  1C                 	db	high _rb5_isr_high
   151   001B78  CA                 	db	low _rb5_isr_low
   152   001B79  1B                 	db	high _rb5_isr_low
   153   001B7A  69                 	db	105
   154   001B7B  01                 	db	1
   155                           
   156                           ;initializer for _rb4_obj
   157   001B7C  10                 	db	low _rb4_isr_high
   158   001B7D  1C                 	db	high _rb4_isr_high
   159   001B7E  D8                 	db	low _rb4_isr_low
   160   001B7F  1B                 	db	high _rb4_isr_low
   161   001B80  61                 	db	97
   162   001B81  01                 	db	1
   163                           
   164                           ;initializer for _ld4
   165   001B82  32                 	db	50
   166                           
   167                           ;initializer for _ld3
   168   001B83  22                 	db	34
   169                           
   170                           ;initializer for _ld2
   171   001B84  12                 	db	18
   172                           
   173                           ;initializer for _ld1
   174   001B85  02                 	db	2
   175                           
   176                           	psect	smallconst
   177   001000                     __psmallconst:
   178                           	callstack 0
   179   001000  00                 	db	0
   180   001001                     _btn_values:
   181                           	callstack 0
   182   001001  37                 	db	55
   183   001002  38                 	db	56
   184   001003  39                 	db	57
   185   001004  2F                 	db	47
   186   001005  34                 	db	52
   187   001006  35                 	db	53
   188   001007  36                 	db	54
   189   001008  2A                 	db	42
   190   001009  31                 	db	49
   191   00100A  32                 	db	50
   192   00100B  33                 	db	51
   193   00100C  2D                 	db	45
   194   00100D  23                 	db	35
   195   00100E  38                 	db	56
   196   00100F  3D                 	db	61
   197   001010  2B                 	db	43
   198   001011                     __end_of_btn_values:
   199                           	callstack 0
   200   000000                     _INTCON2bits	set	4081
   201   000000                     _EECON2	set	4007
   202   001011                     STR_1:
   203   001011  25                 	db	37
   204   001012  69                 	db	105	;'i'
   205   001013  00                 	db	0
   206   001014  00                 	db	0	; dummy byte at the end
   207   000000                     
   208                           	psect	nvBANK0
   209   00008F                     __pnvBANK0:
   210                           	callstack 0
   211   00008F                     _ret:
   212                           	callstack 0
   213   00008F                     	ds	1
   214   000000                     _PORTBbits	set	3969
   215   000000                     _EECON1bits	set	4006
   216   000000                     _EEDATA	set	4008
   217   000000                     _EEADR	set	4009
   218   000000                     _EEADRH	set	4010
   219   000000                     _INTCONbits	set	4082
   220   000000                     _PORTE	set	3972
   221   000000                     _PORTD	set	3971
   222   000000                     _PORTC	set	3970
   223   000000                     _PORTB	set	3969
   224   000000                     _PORTA	set	3968
   225   000000                     _LATA	set	3977
   226   000000                     _TRISA	set	3986
   227   000000                     _INTCON3bits	set	4080
   228   000000                     _TRISE	set	3990
   229   000000                     _TRISD	set	3989
   230   000000                     _TRISC	set	3988
   231   000000                     _TRISB	set	3987
   232   000000                     _LATE	set	3981
   233   000000                     _LATD	set	3980
   234   000000                     _LATC	set	3979
   235   000000                     _LATB	set	3978
   236                           
   237                           ; #config settings
   238                           
   239                           	psect	cinit
   240   001B86                     __pcinit:
   241                           	callstack 0
   242   001B86                     start_initialization:
   243                           	callstack 0
   244   001B86                     __initialization:
   245                           	callstack 0
   246                           
   247                           ; Initialize objects allocated to COMRAM (62 bytes)
   248                           ; load TBLPTR registers with __pidataCOMRAM
   249   001B86  0E48               	movlw	low __pidataCOMRAM
   250   001B88  6EF6               	movwf	tblptrl,c
   251   001B8A  0E1B               	movlw	high __pidataCOMRAM
   252   001B8C  6EF7               	movwf	tblptrh,c
   253   001B8E  0E00               	movlw	low (__pidataCOMRAM shr (0+16))
   254   001B90  6EF8               	movwf	tblptru,c
   255   001B92  EE00  F001         	lfsr	0,__pdataCOMRAM
   256   001B96  EE10 F03E          	lfsr	1,62
   257   001B9A                     copy_data0:
   258   001B9A  0009               	tblrd		*+
   259   001B9C  CFF5 FFEE          	movff	tablat,postinc0
   260   001BA0  50E5               	movf	postdec1,w,c
   261   001BA2  50E1               	movf	fsr1l,w,c
   262   001BA4  E1FA               	bnz	copy_data0
   263                           
   264                           ; Clear objects allocated to COMRAM (31 bytes)
   265   001BA6  EE00  F03F         	lfsr	0,__pbssCOMRAM
   266   001BAA  0E1F               	movlw	31
   267   001BAC                     clear_0:
   268   001BAC  6AEE               	clrf	postinc0,c
   269   001BAE  06E8               	decf	wreg,f,c
   270   001BB0  E1FD               	bnz	clear_0
   271   001BB2                     end_of_initialization:
   272                           	callstack 0
   273   001BB2                     __end_of__initialization:
   274                           	callstack 0
   275   001BB2  9070               	bcf	int$flags,0,c	;clear compiler interrupt flag (level 1)
   276   001BB4  9270               	bcf	int$flags,1,c	;clear compiler interrupt flag (level 2)
   277   001BB6  0100               	movlb	0
   278   001BB8  EF42  F00D         	goto	_main	;jump to C main() function
   279                           
   280                           	psect	bssCOMRAM
   281   00003F                     __pbssCOMRAM:
   282                           	callstack 0
   283   00003F                     _RB7_InterruptHandler_LOW:
   284                           	callstack 0
   285   00003F                     	ds	2
   286   000041                     _RB7_InterruptHandler_HIGH:
   287                           	callstack 0
   288   000041                     	ds	2
   289   000043                     _RB6_InterruptHandler_LOW:
   290                           	callstack 0
   291   000043                     	ds	2
   292   000045                     _RB6_InterruptHandler_HIGH:
   293                           	callstack 0
   294   000045                     	ds	2
   295   000047                     _RB5_InterruptHandler_LOW:
   296                           	callstack 0
   297   000047                     	ds	2
   298   000049                     _RB5_InterruptHandler_HIGH:
   299                           	callstack 0
   300   000049                     	ds	2
   301   00004B                     _RB4_InterruptHandler_LOW:
   302                           	callstack 0
   303   00004B                     	ds	2
   304   00004D                     _RB4_InterruptHandler_HIGH:
   305                           	callstack 0
   306   00004D                     	ds	2
   307   00004F                     _INT2_InterruptHandler:
   308                           	callstack 0
   309   00004F                     	ds	2
   310   000051                     _INT1_InterruptHandler:
   311                           	callstack 0
   312   000051                     	ds	2
   313   000053                     _INT0_InterruptHandler:
   314                           	callstack 0
   315   000053                     	ds	2
   316   000055                     _rd:
   317                           	callstack 0
   318   000055                     	ds	1
   319   000056                     _eeprom_val:
   320                           	callstack 0
   321   000056                     	ds	1
   322   000057                     relay_turn_off@F3062:
   323                           	callstack 0
   324   000057                     	ds	1
   325   000058                     relay_turn_on@F3057:
   326                           	callstack 0
   327   000058                     	ds	1
   328   000059                     relay_initialize@F3052:
   329                           	callstack 0
   330   000059                     	ds	1
   331   00005A                     led_turn_toggle@F3073:
   332                           	callstack 0
   333   00005A                     	ds	1
   334   00005B                     led_turn_off@F3068:
   335                           	callstack 0
   336   00005B                     	ds	1
   337   00005C                     led_turn_on@F3063:
   338                           	callstack 0
   339   00005C                     	ds	1
   340   00005D                     led_initialize@F3058:
   341                           	callstack 0
   342   00005D                     	ds	1
   343                           
   344                           	psect	dataCOMRAM
   345   000001                     __pdataCOMRAM:
   346                           	callstack 0
   347   000001                     _port_registers:
   348                           	callstack 0
   349   000001                     	ds	10
   350   00000B                     _lat_registers:
   351                           	callstack 0
   352   00000B                     	ds	10
   353   000015                     _tris_registers:
   354                           	callstack 0
   355   000015                     	ds	10
   356   00001F                     _RB7_Flag:
   357                           	callstack 0
   358   00001F                     	ds	1
   359   000020                     _RB6_Flag:
   360                           	callstack 0
   361   000020                     	ds	1
   362   000021                     _RB5_Flag:
   363                           	callstack 0
   364   000021                     	ds	1
   365   000022                     _RB4_Flag:
   366                           	callstack 0
   367   000022                     	ds	1
   368   000023                     _rb7_obj:
   369                           	callstack 0
   370   000023                     	ds	6
   371   000029                     _rb6_obj:
   372                           	callstack 0
   373   000029                     	ds	6
   374   00002F                     _rb5_obj:
   375                           	callstack 0
   376   00002F                     	ds	6
   377   000035                     _rb4_obj:
   378                           	callstack 0
   379   000035                     	ds	6
   380   00003B                     _ld4:
   381                           	callstack 0
   382   00003B                     	ds	1
   383   00003C                     _ld3:
   384                           	callstack 0
   385   00003C                     	ds	1
   386   00003D                     _ld2:
   387                           	callstack 0
   388   00003D                     	ds	1
   389   00003E                     _ld1:
   390                           	callstack 0
   391   00003E                     	ds	1
   392                           
   393                           	psect	cstackBANK0
   394   000080                     __pcstackBANK0:
   395                           	callstack 0
   396   000080                     gpio_pin_direction_initialize@_pin_config:
   397                           	callstack 0
   398   000080                     gpio_pin_write_logic@_pin_config:
   399                           	callstack 0
   400                           
   401                           ; 1 bytes @ 0x0
   402   000080                     	ds	1
   403   000081                     ??_gpio_pin_direction_initialize:
   404   000081                     gpio_pin_write_logic@logic:
   405                           	callstack 0
   406                           
   407                           ; 1 bytes @ 0x1
   408   000081                     	ds	1
   409   000082                     ??_gpio_pin_write_logic:
   410                           
   411                           ; 1 bytes @ 0x2
   412   000082                     	ds	4
   413   000086                     gpio_pin_direction_initialize@ret:
   414                           	callstack 0
   415                           
   416                           ; 1 bytes @ 0x6
   417   000086                     	ds	1
   418   000087                     gpio_pin_write_logic@ret:
   419                           	callstack 0
   420   000087                     Interrupt_RBx_Init@int_obj:
   421                           	callstack 0
   422                           
   423                           ; 1 bytes @ 0x7
   424   000087                     	ds	1
   425   000088                     ??_Interrupt_RBx_Init:
   426   000088                     gpio_pin_initialize@_pin_config:
   427                           	callstack 0
   428                           
   429                           ; 1 bytes @ 0x8
   430   000088                     	ds	1
   431   000089                     ??_gpio_pin_initialize:
   432                           
   433                           ; 1 bytes @ 0x9
   434   000089                     	ds	1
   435   00008A                     gpio_pin_initialize@ret:
   436                           	callstack 0
   437   00008A                     Interrupt_RBx_Init@ret:
   438                           	callstack 0
   439                           
   440                           ; 1 bytes @ 0xA
   441   00008A                     	ds	1
   442   00008B                     led_initialize@led:
   443                           	callstack 0
   444                           
   445                           ; 1 bytes @ 0xB
   446   00008B                     	ds	1
   447   00008C                     ??_led_initialize:
   448                           
   449                           ; 1 bytes @ 0xC
   450   00008C                     	ds	1
   451   00008D                     led_initialize@ret:
   452                           	callstack 0
   453                           
   454                           ; 1 bytes @ 0xD
   455   00008D                     	ds	1
   456   00008E                     led_initialize@pin_obj:
   457                           	callstack 0
   458                           
   459                           ; 1 bytes @ 0xE
   460   00008E                     	ds	1
   461   00008F                     
   462                           ; 1 bytes @ 0xF
   463                           
   464                           	psect	cstackCOMRAM
   465   00005E                     __pcstackCOMRAM:
   466                           	callstack 0
   467   00005E                     i2gpio_pin_write_logic@_pin_config:
   468                           	callstack 0
   469                           
   470                           ; 1 bytes @ 0x0
   471   00005E                     	ds	1
   472   00005F                     i2gpio_pin_write_logic@logic:
   473                           	callstack 0
   474                           
   475                           ; 1 bytes @ 0x1
   476   00005F                     	ds	1
   477   000060                     ??i2_gpio_pin_write_logic:
   478                           
   479                           ; 1 bytes @ 0x2
   480   000060                     	ds	5
   481   000065                     led_turn_on@led:
   482                           	callstack 0
   483   000065                     led_turn_off@led:
   484                           	callstack 0
   485                           
   486                           ; 1 bytes @ 0x7
   487   000065                     	ds	1
   488   000066                     ??_led_turn_on:
   489   000066                     ??_led_turn_off:
   490                           
   491                           ; 1 bytes @ 0x8
   492   000066                     	ds	1
   493   000067                     led_turn_on@ret:
   494                           	callstack 0
   495   000067                     led_turn_off@ret:
   496                           	callstack 0
   497                           
   498                           ; 1 bytes @ 0x9
   499   000067                     	ds	1
   500   000068                     led_turn_on@pin_obj:
   501                           	callstack 0
   502   000068                     led_turn_off@pin_obj:
   503                           	callstack 0
   504                           
   505                           ; 1 bytes @ 0xA
   506   000068                     	ds	1
   507   000069                     RB4_ISR@RB4_Source:
   508                           	callstack 0
   509   000069                     RB5_ISR@RB5_Source:
   510                           	callstack 0
   511   000069                     RB6_ISR@RB6_Source:
   512                           	callstack 0
   513   000069                     RB7_ISR@RB7_Source:
   514                           	callstack 0
   515                           
   516                           ; 1 bytes @ 0xB
   517   000069                     	ds	1
   518   00006A                     ??_InterruptManager:
   519                           
   520                           ; 1 bytes @ 0xC
   521   00006A                     	ds	6
   522                           
   523 ;;
   524 ;;Main: autosize = 0, tempsize = 0, incstack = 0, save=0
   525 ;;
   526 ;; *************** function _main *****************
   527 ;; Defined at:
   528 ;;		line 107 in file "appplication.c"
   529 ;; Parameters:    Size  Location     Type
   530 ;;		None
   531 ;; Auto vars:     Size  Location     Type
   532 ;;		None
   533 ;; Return value:  Size  Location     Type
   534 ;;                  2  800[None  ] int 
   535 ;; Registers used:
   536 ;;		wreg, fsr2l, fsr2h, status,2, status,0, prodl, prodh, cstack
   537 ;; Tracked objects:
   538 ;;		On entry : 0/0
   539 ;;		On exit  : 0/0
   540 ;;		Unchanged: 0/0
   541 ;; Data sizes:     COMRAM   BANK0   BANK1   BANK2   BANK3   BANK4   BANK5   BANK6   BANK7   BANK8   BANK9  BANK10  BANK1
      +1  BANK12  BANK13  BANK14  BANK15
   542 ;;      Params:         0       0       0       0       0       0       0       0       0       0       0       0       
      +0       0       0       0       0
   543 ;;      Locals:         0       0       0       0       0       0       0       0       0       0       0       0       
      +0       0       0       0       0
   544 ;;      Temps:          0       0       0       0       0       0       0       0       0       0       0       0       
      +0       0       0       0       0
   545 ;;      Totals:         0       0       0       0       0       0       0       0       0       0       0       0       
      +0       0       0       0       0
   546 ;;Total ram usage:        0 bytes
   547 ;; Hardware stack levels required when called: 8
   548 ;; This function calls:
   549 ;;		_Interrupt_RBx_Init
   550 ;;		_led_initialize
   551 ;; This function is called by:
   552 ;;		Startup code after reset
   553 ;; This function uses a non-reentrant model
   554 ;;
   555                           
   556                           	psect	text0
   557   001A84                     __ptext0:
   558                           	callstack 0
   559   001A84                     _main:
   560                           	callstack 23
   561   001A84                     
   562                           ;appplication.c: 109:     ret = led_initialize(&ld1);
   563   001A84  0E3E               	movlw	low _ld1
   564   001A86  0100               	movlb	0	; () banked
   565   001A88  6F8B               	movwf	led_initialize@led& (0+255),b
   566   001A8A  EC93  F00C         	call	_led_initialize	;wreg free
   567   001A8E  0100               	movlb	0	; () banked
   568   001A90  6F8F               	movwf	_ret& (0+255),b
   569                           
   570                           ;appplication.c: 110:     ret = led_initialize(&ld2);
   571   001A92  0E3D               	movlw	low _ld2
   572   001A94  6F8B               	movwf	led_initialize@led& (0+255),b
   573   001A96  EC93  F00C         	call	_led_initialize	;wreg free
   574   001A9A  0100               	movlb	0	; () banked
   575   001A9C  6F8F               	movwf	_ret& (0+255),b
   576                           
   577                           ;appplication.c: 111:     ret = led_initialize(&ld3);
   578   001A9E  0E3C               	movlw	low _ld3
   579   001AA0  6F8B               	movwf	led_initialize@led& (0+255),b
   580   001AA2  EC93  F00C         	call	_led_initialize	;wreg free
   581   001AA6  0100               	movlb	0	; () banked
   582   001AA8  6F8F               	movwf	_ret& (0+255),b
   583                           
   584                           ;appplication.c: 112:     ret = led_initialize(&ld4);
   585   001AAA  0E3B               	movlw	low _ld4
   586   001AAC  6F8B               	movwf	led_initialize@led& (0+255),b
   587   001AAE  EC93  F00C         	call	_led_initialize	;wreg free
   588   001AB2  0100               	movlb	0	; () banked
   589   001AB4  6F8F               	movwf	_ret& (0+255),b
   590                           
   591                           ;appplication.c: 113:     ret = Interrupt_RBx_Init(&rb4_obj);
   592   001AB6  0E35               	movlw	low _rb4_obj
   593   001AB8  6F87               	movwf	Interrupt_RBx_Init@int_obj& (0+255),b
   594   001ABA  ECFC  F009         	call	_Interrupt_RBx_Init	;wreg free
   595   001ABE  0100               	movlb	0	; () banked
   596   001AC0  6F8F               	movwf	_ret& (0+255),b
   597                           
   598                           ;appplication.c: 114:     ret = Interrupt_RBx_Init(&rb5_obj);
   599   001AC2  0E2F               	movlw	low _rb5_obj
   600   001AC4  6F87               	movwf	Interrupt_RBx_Init@int_obj& (0+255),b
   601   001AC6  ECFC  F009         	call	_Interrupt_RBx_Init	;wreg free
   602   001ACA  0100               	movlb	0	; () banked
   603   001ACC  6F8F               	movwf	_ret& (0+255),b
   604                           
   605                           ;appplication.c: 115:     ret = Interrupt_RBx_Init(&rb6_obj);
   606   001ACE  0E29               	movlw	low _rb6_obj
   607   001AD0  6F87               	movwf	Interrupt_RBx_Init@int_obj& (0+255),b
   608   001AD2  ECFC  F009         	call	_Interrupt_RBx_Init	;wreg free
   609   001AD6  0100               	movlb	0	; () banked
   610   001AD8  6F8F               	movwf	_ret& (0+255),b
   611                           
   612                           ;appplication.c: 116:     ret = Interrupt_RBx_Init(&rb7_obj);
   613   001ADA  0E23               	movlw	low _rb7_obj
   614   001ADC  6F87               	movwf	Interrupt_RBx_Init@int_obj& (0+255),b
   615   001ADE  ECFC  F009         	call	_Interrupt_RBx_Init	;wreg free
   616   001AE2  0100               	movlb	0	; () banked
   617   001AE4  6F8F               	movwf	_ret& (0+255),b
   618   001AE6                     l801:
   619   001AE6  EF73  F00D         	goto	l801
   620   001AEA  EF07  F000         	goto	start
   621   001AEE                     __end_of_main:
   622                           	callstack 0
   623                           
   624 ;; *************** function _led_initialize *****************
   625 ;; Defined at:
   626 ;;		line 17 in file "ECU_Layer/LED/ecu_led.c"
   627 ;; Parameters:    Size  Location     Type
   628 ;;  led             1   11[BANK0 ] PTR const struct .
   629 ;;		 -> ld4(1), ld3(1), ld2(1), ld1(1), 
   630 ;; Auto vars:     Size  Location     Type
   631 ;;  pin_obj         1   14[BANK0 ] struct .
   632 ;;  ret             1   13[BANK0 ] unsigned char 
   633 ;; Return value:  Size  Location     Type
   634 ;;                  1    wreg      unsigned char 
   635 ;; Registers used:
   636 ;;		wreg, fsr2l, fsr2h, status,2, status,0, prodl, prodh, cstack
   637 ;; Tracked objects:
   638 ;;		On entry : 0/0
   639 ;;		On exit  : 0/0
   640 ;;		Unchanged: 0/0
   641 ;; Data sizes:     COMRAM   BANK0   BANK1   BANK2   BANK3   BANK4   BANK5   BANK6   BANK7   BANK8   BANK9  BANK10  BANK1
      +1  BANK12  BANK13  BANK14  BANK15
   642 ;;      Params:         0       1       0       0       0       0       0       0       0       0       0       0       
      +0       0       0       0       0
   643 ;;      Locals:         0       2       0       0       0       0       0       0       0       0       0       0       
      +0       0       0       0       0
   644 ;;      Temps:          0       1       0       0       0       0       0       0       0       0       0       0       
      +0       0       0       0       0
   645 ;;      Totals:         0       4       0       0       0       0       0       0       0       0       0       0       
      +0       0       0       0       0
   646 ;;Total ram usage:        4 bytes
   647 ;; Hardware stack levels used: 1
   648 ;; Hardware stack levels required when called: 7
   649 ;; This function calls:
   650 ;;		_gpio_pin_initialize
   651 ;; This function is called by:
   652 ;;		_main
   653 ;; This function uses a non-reentrant model
   654 ;;
   655                           
   656                           	psect	text1
   657   001926                     __ptext1:
   658                           	callstack 0
   659   001926                     _led_initialize:
   660                           	callstack 23
   661   001926                     
   662                           ;ECU_Layer/LED/ecu_led.c: 18:     Std_ReturnType ret = (Std_ReturnType)0x01 ;
   663   001926  0E01               	movlw	1
   664   001928  0100               	movlb	0	; () banked
   665   00192A  6F8D               	movwf	led_initialize@ret& (0+255),b
   666                           
   667                           ;ECU_Layer/LED/ecu_led.c: 19:     if(((void*)0) == led)
   668   00192C  518B               	movf	led_initialize@led& (0+255),w,b
   669   00192E  A4D8               	btfss	status,2,c
   670   001930  EF9C  F00C         	goto	u3601
   671   001934  EF9E  F00C         	goto	u3600
   672   001938                     u3601:
   673   001938  EFA2  F00C         	goto	l274
   674   00193C                     u3600:
   675   00193C                     
   676                           ; BSR set to: 0
   677                           ;ECU_Layer/LED/ecu_led.c: 20:     {;ECU_Layer/LED/ecu_led.c: 21:         ret = (Std_Retu
      +                          rnType)0x00;
   678   00193C  0E00               	movlw	0
   679   00193E  6F8D               	movwf	led_initialize@ret& (0+255),b
   680                           
   681                           ;ECU_Layer/LED/ecu_led.c: 22:     }
   682   001940  EFCB  F00C         	goto	l4187
   683   001944                     l274:
   684                           
   685                           ; BSR set to: 0
   686                           ;ECU_Layer/LED/ecu_led.c: 24:     {;ECU_Layer/LED/ecu_led.c: 25:         pin_config_t pi
      +                          n_obj = { .port = led->port_name, .pin = led->pin ,
   687   001944  C05D  F08E         	movff	led_initialize@F3058,led_initialize@pin_obj
   688   001948                     
   689                           ; BSR set to: 0
   690   001948  518B               	movf	led_initialize@led& (0+255),w,b
   691   00194A  6ED9               	movwf	fsr2l,c
   692   00194C  6ADA               	clrf	fsr2h,c
   693   00194E  50DF               	movf	223,w,c
   694   001950  0B0F               	andlw	15
   695   001952  6F8C               	movwf	??_led_initialize& (0+255),b
   696   001954  518E               	movf	led_initialize@pin_obj& (0+255),w,b
   697   001956  198C               	xorwf	??_led_initialize& (0+255),w,b
   698   001958  0BF8               	andlw	-8
   699   00195A  198C               	xorwf	??_led_initialize& (0+255),w,b
   700   00195C  6F8E               	movwf	led_initialize@pin_obj& (0+255),b
   701   00195E  518B               	movf	led_initialize@led& (0+255),w,b
   702   001960  6ED9               	movwf	fsr2l,c
   703   001962  6ADA               	clrf	fsr2h,c
   704   001964  38DF               	swapf	223,w,c
   705   001966  0B07               	andlw	7
   706   001968  6F8C               	movwf	??_led_initialize& (0+255),b
   707   00196A  478C               	rlncf	??_led_initialize& (0+255),f,b
   708   00196C  478C               	rlncf	??_led_initialize& (0+255),f,b
   709   00196E  478C               	rlncf	??_led_initialize& (0+255),f,b
   710   001970  518E               	movf	led_initialize@pin_obj& (0+255),w,b
   711   001972  198C               	xorwf	??_led_initialize& (0+255),w,b
   712   001974  0BC7               	andlw	-57
   713   001976  198C               	xorwf	??_led_initialize& (0+255),w,b
   714   001978  6F8E               	movwf	led_initialize@pin_obj& (0+255),b
   715   00197A                     
   716                           ; BSR set to: 0
   717   00197A  9D8E               	bcf	led_initialize@pin_obj& (0+255),6,b
   718   00197C                     
   719                           ; BSR set to: 0
   720   00197C  518B               	movf	led_initialize@led& (0+255),w,b
   721   00197E  6ED9               	movwf	fsr2l,c
   722   001980  6ADA               	clrf	fsr2h,c
   723   001982  AEDF               	btfss	indf2,7,c
   724   001984  D002               	bra	u3615
   725   001986  8F8E               	bsf	led_initialize@pin_obj& (0+255),7,b
   726   001988  D002               	bra	u3617
   727   00198A                     u3615:
   728   00198A  0100               	movlb	0	; () banked
   729   00198C  9F8E               	bcf	led_initialize@pin_obj& (0+255),7,b
   730   00198E                     u3617:
   731   00198E                     
   732                           ; BSR set to: 0
   733                           ;ECU_Layer/LED/ecu_led.c: 28:         gpio_pin_initialize(&pin_obj);
   734   00198E  0E8E               	movlw	low led_initialize@pin_obj
   735   001990  6F88               	movwf	gpio_pin_initialize@_pin_config& (0+255),b
   736   001992  EC77  F00D         	call	_gpio_pin_initialize	;wreg free
   737   001996                     l4187:
   738                           
   739                           ;ECU_Layer/LED/ecu_led.c: 30:     return ret;
   740   001996  0100               	movlb	0	; () banked
   741   001998  518D               	movf	led_initialize@ret& (0+255),w,b
   742   00199A                     
   743                           ; BSR set to: 0
   744   00199A  0012               	return		;funcret
   745   00199C                     __end_of_led_initialize:
   746                           	callstack 0
   747                           
   748 ;; *************** function _gpio_pin_initialize *****************
   749 ;; Defined at:
   750 ;;		line 134 in file "MCAL_Layer/GPIO/hal_gpio.c"
   751 ;; Parameters:    Size  Location     Type
   752 ;;  _pin_config     1    8[BANK0 ] PTR struct .
   753 ;;		 -> led_initialize@pin_obj(1), 
   754 ;; Auto vars:     Size  Location     Type
   755 ;;  ret             1   10[BANK0 ] unsigned char 
   756 ;; Return value:  Size  Location     Type
   757 ;;                  1    wreg      unsigned char 
   758 ;; Registers used:
   759 ;;		wreg, fsr2l, fsr2h, status,2, status,0, prodl, prodh, cstack
   760 ;; Tracked objects:
   761 ;;		On entry : 0/0
   762 ;;		On exit  : 0/0
   763 ;;		Unchanged: 0/0
   764 ;; Data sizes:     COMRAM   BANK0   BANK1   BANK2   BANK3   BANK4   BANK5   BANK6   BANK7   BANK8   BANK9  BANK10  BANK1
      +1  BANK12  BANK13  BANK14  BANK15
   765 ;;      Params:         0       1       0       0       0       0       0       0       0       0       0       0       
      +0       0       0       0       0
   766 ;;      Locals:         0       1       0       0       0       0       0       0       0       0       0       0       
      +0       0       0       0       0
   767 ;;      Temps:          0       1       0       0       0       0       0       0       0       0       0       0       
      +0       0       0       0       0
   768 ;;      Totals:         0       3       0       0       0       0       0       0       0       0       0       0       
      +0       0       0       0       0
   769 ;;Total ram usage:        3 bytes
   770 ;; Hardware stack levels used: 1
   771 ;; Hardware stack levels required when called: 6
   772 ;; This function calls:
   773 ;;		_gpio_pin_direction_initialize
   774 ;;		_gpio_pin_write_logic
   775 ;; This function is called by:
   776 ;;		_led_initialize
   777 ;;		_lcd_4bit_initialize
   778 ;;		_lcd_8bit_initialize
   779 ;;		_keypad_initialize
   780 ;; This function uses a non-reentrant model
   781 ;;
   782                           
   783                           	psect	text2
   784   001AEE                     __ptext2:
   785                           	callstack 0
   786   001AEE                     _gpio_pin_initialize:
   787                           	callstack 23
   788   001AEE                     
   789                           ;MCAL_Layer/GPIO/hal_gpio.c: 136:     if(((void*)0) == _pin_config || _pin_config->pin >
      +                           (8 - 1))
   790   001AEE  0100               	movlb	0	; () banked
   791   001AF0  5188               	movf	gpio_pin_initialize@_pin_config& (0+255),w,b
   792   001AF2  B4D8               	btfsc	status,2,c
   793   001AF4  EF7E  F00D         	goto	u3451
   794   001AF8  EF80  F00D         	goto	u3450
   795   001AFC                     u3451:
   796   001AFC  EF90  F00D         	goto	l4011
   797   001B00                     u3450:
   798   001B00                     
   799                           ; BSR set to: 0
   800   001B00  5188               	movf	gpio_pin_initialize@_pin_config& (0+255),w,b
   801   001B02  6ED9               	movwf	fsr2l,c
   802   001B04  6ADA               	clrf	fsr2h,c
   803   001B06  30DF               	rrcf	223,w,c
   804   001B08  32E8               	rrcf	wreg,f,c
   805   001B0A  32E8               	rrcf	wreg,f,c
   806   001B0C  0B07               	andlw	7
   807   001B0E  6F89               	movwf	??_gpio_pin_initialize& (0+255),b
   808   001B10  0E07               	movlw	7
   809   001B12  6589               	cpfsgt	??_gpio_pin_initialize& (0+255),b
   810   001B14  EF8E  F00D         	goto	u3461
   811   001B18  EF90  F00D         	goto	u3460
   812   001B1C                     u3461:
   813   001B1C  EF94  F00D         	goto	l4013
   814   001B20                     u3460:
   815   001B20                     l4011:
   816                           
   817                           ; BSR set to: 0
   818                           ;MCAL_Layer/GPIO/hal_gpio.c: 137:     {;MCAL_Layer/GPIO/hal_gpio.c: 138:         ret = (
      +                          Std_ReturnType)0x00;
   819   001B20  0E00               	movlw	0
   820   001B22  6F8A               	movwf	gpio_pin_initialize@ret& (0+255),b
   821                           
   822                           ;MCAL_Layer/GPIO/hal_gpio.c: 139:     }
   823   001B24  EFA2  F00D         	goto	l4015
   824   001B28                     l4013:
   825                           
   826                           ; BSR set to: 0
   827                           ;MCAL_Layer/GPIO/hal_gpio.c: 141:     {;MCAL_Layer/GPIO/hal_gpio.c: 142:         ret = g
      +                          pio_pin_direction_initialize(_pin_config);
   828   001B28  C088  F080         	movff	gpio_pin_initialize@_pin_config,gpio_pin_direction_initialize@_pin_config
   829   001B2C  EC66  F009         	call	_gpio_pin_direction_initialize	;wreg free
   830   001B30  0100               	movlb	0	; () banked
   831   001B32  6F8A               	movwf	gpio_pin_initialize@ret& (0+255),b
   832                           
   833                           ;MCAL_Layer/GPIO/hal_gpio.c: 143:         ret = gpio_pin_write_logic(_pin_config, GPIO_L
      +                          OW);
   834   001B34  C088  F080         	movff	gpio_pin_initialize@_pin_config,gpio_pin_write_logic@_pin_config
   835   001B38  0E00               	movlw	0
   836   001B3A  6F81               	movwf	gpio_pin_write_logic@logic& (0+255),b
   837   001B3C  EC89  F00A         	call	_gpio_pin_write_logic	;wreg free
   838   001B40  0100               	movlb	0	; () banked
   839   001B42  6F8A               	movwf	gpio_pin_initialize@ret& (0+255),b
   840   001B44                     l4015:
   841                           
   842                           ; BSR set to: 0
   843                           ;MCAL_Layer/GPIO/hal_gpio.c: 145:     return ret;
   844   001B44  518A               	movf	gpio_pin_initialize@ret& (0+255),w,b
   845   001B46                     
   846                           ; BSR set to: 0
   847   001B46  0012               	return		;funcret
   848   001B48                     __end_of_gpio_pin_initialize:
   849                           	callstack 0
   850                           
   851 ;; *************** function _gpio_pin_write_logic *****************
   852 ;; Defined at:
   853 ;;		line 78 in file "MCAL_Layer/GPIO/hal_gpio.c"
   854 ;; Parameters:    Size  Location     Type
   855 ;;  _pin_config     1    0[BANK0 ] PTR struct .
   856 ;;		 -> relay_turn_off@pin_obj(1), relay_turn_on@pin_obj(1), led_turn_off@pin_obj(1), led_turn_on@pin_obj(1), 
   857 ;;		 -> led_initialize@pin_obj(1), 
   858 ;;  logic           1    1[BANK0 ] enum E2978
   859 ;; Auto vars:     Size  Location     Type
   860 ;;  ret             1    7[BANK0 ] unsigned char 
   861 ;; Return value:  Size  Location     Type
   862 ;;                  1    wreg      unsigned char 
   863 ;; Registers used:
   864 ;;		wreg, fsr2l, fsr2h, status,2, status,0, prodl, prodh
   865 ;; Tracked objects:
   866 ;;		On entry : 0/0
   867 ;;		On exit  : 0/0
   868 ;;		Unchanged: 0/0
   869 ;; Data sizes:     COMRAM   BANK0   BANK1   BANK2   BANK3   BANK4   BANK5   BANK6   BANK7   BANK8   BANK9  BANK10  BANK1
      +1  BANK12  BANK13  BANK14  BANK15
   870 ;;      Params:         0       2       0       0       0       0       0       0       0       0       0       0       
      +0       0       0       0       0
   871 ;;      Locals:         0       1       0       0       0       0       0       0       0       0       0       0       
      +0       0       0       0       0
   872 ;;      Temps:          0       5       0       0       0       0       0       0       0       0       0       0       
      +0       0       0       0       0
   873 ;;      Totals:         0       8       0       0       0       0       0       0       0       0       0       0       
      +0       0       0       0       0
   874 ;;Total ram usage:        8 bytes
   875 ;; Hardware stack levels used: 1
   876 ;; Hardware stack levels required when called: 5
   877 ;; This function calls:
   878 ;;		Nothing
   879 ;; This function is called by:
   880 ;;		_gpio_pin_initialize
   881 ;;		_seven_segment_write_number
   882 ;;		_lcd_4bit_send_command
   883 ;;		_lcd_4bit_send_char_data
   884 ;;		_lcd_8bit_send_command
   885 ;;		_lcd_8bit_send_char_data
   886 ;;		_lcd_send_4bits
   887 ;;		_lcd_4bit_send_enable_signal
   888 ;;		_lcd_8bit_send_enable_signal
   889 ;;		_dc_motor_move_right
   890 ;;		_dc_motor_move_left
   891 ;;		_dc_motor_stop
   892 ;;		_keypad_get_value
   893 ;;		_relay_turn_on
   894 ;;		_relay_turn_off
   895 ;; This function uses a non-reentrant model
   896 ;;
   897                           
   898                           	psect	text3
   899   001512                     __ptext3:
   900                           	callstack 0
   901   001512                     _gpio_pin_write_logic:
   902                           	callstack 23
   903   001512                     
   904                           ;MCAL_Layer/GPIO/hal_gpio.c: 79:     Std_ReturnType ret = (Std_ReturnType)0x01 ;
   905   001512  0E01               	movlw	1
   906   001514  0100               	movlb	0	; () banked
   907   001516  6F87               	movwf	gpio_pin_write_logic@ret& (0+255),b
   908                           
   909                           ;MCAL_Layer/GPIO/hal_gpio.c: 80:     if(((void*)0) == _pin_config || _pin_config->pin > 
      +                          (8 - 1))
   910   001518  5180               	movf	gpio_pin_write_logic@_pin_config& (0+255),w,b
   911   00151A  B4D8               	btfsc	status,2,c
   912   00151C  EF92  F00A         	goto	u3371
   913   001520  EF94  F00A         	goto	u3370
   914   001524                     u3371:
   915   001524  EFA4  F00A         	goto	l3957
   916   001528                     u3370:
   917   001528                     
   918                           ; BSR set to: 0
   919   001528  5180               	movf	gpio_pin_write_logic@_pin_config& (0+255),w,b
   920   00152A  6ED9               	movwf	fsr2l,c
   921   00152C  6ADA               	clrf	fsr2h,c
   922   00152E  30DF               	rrcf	223,w,c
   923   001530  32E8               	rrcf	wreg,f,c
   924   001532  32E8               	rrcf	wreg,f,c
   925   001534  0B07               	andlw	7
   926   001536  6F82               	movwf	??_gpio_pin_write_logic& (0+255),b
   927   001538  0E07               	movlw	7
   928   00153A  6582               	cpfsgt	??_gpio_pin_write_logic& (0+255),b
   929   00153C  EFA2  F00A         	goto	u3381
   930   001540  EFA4  F00A         	goto	u3380
   931   001544                     u3381:
   932   001544  EFFD  F00A         	goto	l3965
   933   001548                     u3380:
   934   001548                     l3957:
   935                           
   936                           ; BSR set to: 0
   937                           ;MCAL_Layer/GPIO/hal_gpio.c: 81:     {;MCAL_Layer/GPIO/hal_gpio.c: 82:         ret = (St
      +                          d_ReturnType)0x00;
   938   001548  0E00               	movlw	0
   939   00154A  6F87               	movwf	gpio_pin_write_logic@ret& (0+255),b
   940                           
   941                           ;MCAL_Layer/GPIO/hal_gpio.c: 83:     }
   942   00154C  EF12  F00B         	goto	l3967
   943   001550                     l3959:
   944                           
   945                           ; BSR set to: 0
   946                           ;MCAL_Layer/GPIO/hal_gpio.c: 89:                 (*lat_registers[_pin_config->port] &= ~
      +                          (((uint8)1) << _pin_config->pin));
   947   001550  5180               	movf	gpio_pin_write_logic@_pin_config& (0+255),w,b
   948   001552  6ED9               	movwf	fsr2l,c
   949   001554  6ADA               	clrf	fsr2h,c
   950   001556  30DF               	rrcf	223,w,c
   951   001558  32E8               	rrcf	wreg,f,c
   952   00155A  32E8               	rrcf	wreg,f,c
   953   00155C  0B07               	andlw	7
   954   00155E  6F82               	movwf	??_gpio_pin_write_logic& (0+255),b
   955   001560  0E01               	movlw	1
   956   001562  6F83               	movwf	(??_gpio_pin_write_logic+1)& (0+255),b
   957   001564  2B82               	incf	??_gpio_pin_write_logic& (0+255),f,b
   958   001566  EFB7  F00A         	goto	u3394
   959   00156A                     u3395:
   960   00156A  90D8               	bcf	status,0,c
   961   00156C  3783               	rlcf	(??_gpio_pin_write_logic+1)& (0+255),f,b
   962   00156E                     u3394:
   963   00156E  2F82               	decfsz	??_gpio_pin_write_logic& (0+255),f,b
   964   001570  EFB5  F00A         	goto	u3395
   965   001574  0100               	movlb	0	; () banked
   966   001576  5183               	movf	(??_gpio_pin_write_logic+1)& (0+255),w,b
   967   001578  0AFF               	xorlw	255
   968   00157A  6F84               	movwf	(??_gpio_pin_write_logic+2)& (0+255),b
   969   00157C  5180               	movf	gpio_pin_write_logic@_pin_config& (0+255),w,b
   970   00157E  6ED9               	movwf	fsr2l,c
   971   001580  6ADA               	clrf	fsr2h,c
   972   001582  50DF               	movf	223,w,c
   973   001584  0B07               	andlw	7
   974   001586  0D02               	mullw	2
   975   001588  50F3               	movf	243,w,c
   976   00158A  0F0B               	addlw	low _lat_registers
   977   00158C  6ED9               	movwf	fsr2l,c
   978   00158E  6ADA               	clrf	fsr2h,c
   979   001590  CFDE F085          	movff	postinc2,??_gpio_pin_write_logic+3
   980   001594  CFDD F086          	movff	postdec2,??_gpio_pin_write_logic+4
   981   001598  C085  FFD9         	movff	??_gpio_pin_write_logic+3,fsr2l
   982   00159C  C086  FFDA         	movff	??_gpio_pin_write_logic+4,fsr2h
   983   0015A0  5184               	movf	(??_gpio_pin_write_logic+2)& (0+255),w,b
   984   0015A2  16DF               	andwf	indf2,f,c
   985                           
   986                           ;MCAL_Layer/GPIO/hal_gpio.c: 90:                 break;
   987   0015A4  EF12  F00B         	goto	l3967
   988   0015A8                     l3961:
   989                           
   990                           ; BSR set to: 0
   991                           ;MCAL_Layer/GPIO/hal_gpio.c: 92:                 (*lat_registers[_pin_config->port] |= (
      +                          ((uint8)1) << _pin_config->pin));
   992   0015A8  5180               	movf	gpio_pin_write_logic@_pin_config& (0+255),w,b
   993   0015AA  6ED9               	movwf	fsr2l,c
   994   0015AC  6ADA               	clrf	fsr2h,c
   995   0015AE  30DF               	rrcf	223,w,c
   996   0015B0  32E8               	rrcf	wreg,f,c
   997   0015B2  32E8               	rrcf	wreg,f,c
   998   0015B4  0B07               	andlw	7
   999   0015B6  6F82               	movwf	??_gpio_pin_write_logic& (0+255),b
  1000   0015B8  0E01               	movlw	1
  1001   0015BA  6F83               	movwf	(??_gpio_pin_write_logic+1)& (0+255),b
  1002   0015BC  2B82               	incf	??_gpio_pin_write_logic& (0+255),f,b
  1003   0015BE  EFE3  F00A         	goto	u3404
  1004   0015C2                     u3405:
  1005   0015C2  90D8               	bcf	status,0,c
  1006   0015C4  3783               	rlcf	(??_gpio_pin_write_logic+1)& (0+255),f,b
  1007   0015C6                     u3404:
  1008   0015C6  2F82               	decfsz	??_gpio_pin_write_logic& (0+255),f,b
  1009   0015C8  EFE1  F00A         	goto	u3405
  1010   0015CC  0100               	movlb	0	; () banked
  1011   0015CE  5180               	movf	gpio_pin_write_logic@_pin_config& (0+255),w,b
  1012   0015D0  6ED9               	movwf	fsr2l,c
  1013   0015D2  6ADA               	clrf	fsr2h,c
  1014   0015D4  50DF               	movf	223,w,c
  1015   0015D6  0B07               	andlw	7
  1016   0015D8  0D02               	mullw	2
  1017   0015DA  50F3               	movf	243,w,c
  1018   0015DC  0F0B               	addlw	low _lat_registers
  1019   0015DE  6ED9               	movwf	fsr2l,c
  1020   0015E0  6ADA               	clrf	fsr2h,c
  1021   0015E2  CFDE F084          	movff	postinc2,??_gpio_pin_write_logic+2
  1022   0015E6  CFDD F085          	movff	postdec2,??_gpio_pin_write_logic+3
  1023   0015EA  C084  FFD9         	movff	??_gpio_pin_write_logic+2,fsr2l
  1024   0015EE  C085  FFDA         	movff	??_gpio_pin_write_logic+3,fsr2h
  1025   0015F2  5183               	movf	(??_gpio_pin_write_logic+1)& (0+255),w,b
  1026   0015F4  12DF               	iorwf	indf2,f,c
  1027                           
  1028                           ;MCAL_Layer/GPIO/hal_gpio.c: 93:                 break;
  1029   0015F6  EF12  F00B         	goto	l3967
  1030   0015FA                     l3965:
  1031                           
  1032                           ; BSR set to: 0
  1033   0015FA  5181               	movf	gpio_pin_write_logic@logic& (0+255),w,b
  1034   0015FC  6F82               	movwf	??_gpio_pin_write_logic& (0+255),b
  1035   0015FE  6B83               	clrf	(??_gpio_pin_write_logic+1)& (0+255),b
  1036                           
  1037                           ; Switch on 2 bytes has been partitioned into a top level switch of size 1, and 1 sub-sw
      +                          itches
  1038                           ; Switch size 1, requested type "simple"
  1039                           ; Number of cases is 1, Range of values is 0 to 0
  1040                           ; switch strategies available:
  1041                           ; Name         Instructions Cycles
  1042                           ; simple_byte            4     3 (average)
  1043                           ;	Chosen strategy is simple_byte
  1044   001600  5183               	movf	(??_gpio_pin_write_logic+1)& (0+255),w,b
  1045   001602  0A00               	xorlw	0	; case 0
  1046   001604  B4D8               	btfsc	status,2,c
  1047   001606  EF07  F00B         	goto	l4949
  1048   00160A  EFA4  F00A         	goto	l3957
  1049   00160E                     l4949:
  1050                           
  1051                           ; BSR set to: 0
  1052                           ; Switch size 1, requested type "simple"
  1053                           ; Number of cases is 2, Range of values is 0 to 1
  1054                           ; switch strategies available:
  1055                           ; Name         Instructions Cycles
  1056                           ; simple_byte            7     4 (average)
  1057                           ;	Chosen strategy is simple_byte
  1058   00160E  5182               	movf	??_gpio_pin_write_logic& (0+255),w,b
  1059   001610  0A00               	xorlw	0	; case 0
  1060   001612  B4D8               	btfsc	status,2,c
  1061   001614  EFA8  F00A         	goto	l3959
  1062   001618  0A01               	xorlw	1	; case 1
  1063   00161A  B4D8               	btfsc	status,2,c
  1064   00161C  EFD4  F00A         	goto	l3961
  1065   001620  EFA4  F00A         	goto	l3957
  1066   001624                     l3967:
  1067                           
  1068                           ; BSR set to: 0
  1069                           ;MCAL_Layer/GPIO/hal_gpio.c: 99:     return ret;
  1070   001624  5187               	movf	gpio_pin_write_logic@ret& (0+255),w,b
  1071   001626                     
  1072                           ; BSR set to: 0
  1073   001626  0012               	return		;funcret
  1074   001628                     __end_of_gpio_pin_write_logic:
  1075                           	callstack 0
  1076                           
  1077 ;; *************** function _Interrupt_RBx_Init *****************
  1078 ;; Defined at:
  1079 ;;		line 191 in file "MCAL_Layer/Interrupt/mcal_external_interrup.c"
  1080 ;; Parameters:    Size  Location     Type
  1081 ;;  int_obj         1    7[BANK0 ] PTR const struct .
  1082 ;;		 -> rb7_obj(6), rb6_obj(6), rb5_obj(6), rb4_obj(6), 
  1083 ;; Auto vars:     Size  Location     Type
  1084 ;;  ret             1   10[BANK0 ] unsigned char 
  1085 ;; Return value:  Size  Location     Type
  1086 ;;                  1    wreg      unsigned char 
  1087 ;; Registers used:
  1088 ;;		wreg, fsr2l, fsr2h, status,2, status,0, prodl, prodh, cstack
  1089 ;; Tracked objects:
  1090 ;;		On entry : 0/0
  1091 ;;		On exit  : 0/0
  1092 ;;		Unchanged: 0/0
  1093 ;; Data sizes:     COMRAM   BANK0   BANK1   BANK2   BANK3   BANK4   BANK5   BANK6   BANK7   BANK8   BANK9  BANK10  BANK1
      +1  BANK12  BANK13  BANK14  BANK15
  1094 ;;      Params:         0       1       0       0       0       0       0       0       0       0       0       0       
      +0       0       0       0       0
  1095 ;;      Locals:         0       1       0       0       0       0       0       0       0       0       0       0       
      +0       0       0       0       0
  1096 ;;      Temps:          0       2       0       0       0       0       0       0       0       0       0       0       
      +0       0       0       0       0
  1097 ;;      Totals:         0       4       0       0       0       0       0       0       0       0       0       0       
      +0       0       0       0       0
  1098 ;;Total ram usage:        4 bytes
  1099 ;; Hardware stack levels used: 1
  1100 ;; Hardware stack levels required when called: 6
  1101 ;; This function calls:
  1102 ;;		_gpio_pin_direction_initialize
  1103 ;; This function is called by:
  1104 ;;		_main
  1105 ;; This function uses a non-reentrant model
  1106 ;;
  1107                           
  1108                           	psect	text4
  1109   0013F8                     __ptext4:
  1110                           	callstack 0
  1111   0013F8                     _Interrupt_RBx_Init:
  1112                           	callstack 24
  1113   0013F8                     
  1114                           ;MCAL_Layer/Interrupt/mcal_external_interrup.c: 194:     if(((void*)0) == int_obj){
  1115   0013F8  0100               	movlb	0	; () banked
  1116   0013FA  5187               	movf	Interrupt_RBx_Init@int_obj& (0+255),w,b
  1117   0013FC  A4D8               	btfss	status,2,c
  1118   0013FE  EF03  F00A         	goto	u3861
  1119   001402  EF05  F00A         	goto	u3860
  1120   001406                     u3861:
  1121   001406  EF09  F00A         	goto	l583
  1122   00140A                     u3860:
  1123   00140A                     
  1124                           ; BSR set to: 0
  1125                           ;MCAL_Layer/Interrupt/mcal_external_interrup.c: 195:         ret = (Std_ReturnType)0x00;
  1126   00140A  0E00               	movlw	0
  1127   00140C  6F8A               	movwf	Interrupt_RBx_Init@ret& (0+255),b
  1128                           
  1129                           ;MCAL_Layer/Interrupt/mcal_external_interrup.c: 196:     }
  1130   00140E  EF87  F00A         	goto	l584
  1131   001412                     l583:
  1132                           
  1133                           ; BSR set to: 0
  1134                           ;MCAL_Layer/Interrupt/mcal_external_interrup.c: 198:         (INTCONbits.RBIE = 0);
  1135   001412  96F2               	bcf	242,3,c	;volatile
  1136                           
  1137                           ;MCAL_Layer/Interrupt/mcal_external_interrup.c: 200:         (INTCONbits.RBIF = 0);
  1138   001414  90F2               	bcf	242,0,c	;volatile
  1139                           
  1140                           ;MCAL_Layer/Interrupt/mcal_external_interrup.c: 218:         (INTCONbits.GIE = 1);
  1141   001416  8EF2               	bsf	242,7,c	;volatile
  1142                           
  1143                           ;MCAL_Layer/Interrupt/mcal_external_interrup.c: 219:         (INTCONbits.PEIE = 1);
  1144   001418  8CF2               	bsf	242,6,c	;volatile
  1145   00141A                     
  1146                           ; BSR set to: 0
  1147   00141A  5187               	movf	Interrupt_RBx_Init@int_obj& (0+255),w,b
  1148   00141C  0F04               	addlw	4
  1149   00141E  6F80               	movwf	gpio_pin_direction_initialize@_pin_config& (0+255),b
  1150   001420  EC66  F009         	call	_gpio_pin_direction_initialize	;wreg free
  1151                           
  1152                           ;MCAL_Layer/Interrupt/mcal_external_interrup.c: 222:         switch(int_obj->mcu_pin.pin
      +                          )
  1153   001424  EF5E  F00A         	goto	l4271
  1154   001428                     l4253:
  1155                           
  1156                           ; BSR set to: 0
  1157                           ;MCAL_Layer/Interrupt/mcal_external_interrup.c: 225:                 RB4_InterruptHandle
      +                          r_HIGH = int_obj->EXT_InterruptHandler_HIGH;
  1158   001428  5187               	movf	Interrupt_RBx_Init@int_obj& (0+255),w,b
  1159   00142A  6ED9               	movwf	fsr2l,c
  1160   00142C  6ADA               	clrf	fsr2h,c
  1161   00142E  CFDE F04D          	movff	postinc2,_RB4_InterruptHandler_HIGH
  1162   001432  CFDD F04E          	movff	postdec2,_RB4_InterruptHandler_HIGH+1
  1163   001436                     
  1164                           ; BSR set to: 0
  1165                           ;MCAL_Layer/Interrupt/mcal_external_interrup.c: 226:                 RB4_InterruptHandle
      +                          r_LOW = int_obj->EXT_InterruptHandler_LOW;
  1166   001436  5187               	movf	Interrupt_RBx_Init@int_obj& (0+255),w,b
  1167   001438  6ED9               	movwf	fsr2l,c
  1168   00143A  6ADA               	clrf	fsr2h,c
  1169   00143C  0E02               	movlw	2
  1170   00143E  26D9               	addwf	fsr2l,f,c
  1171   001440  CFDE F04B          	movff	postinc2,_RB4_InterruptHandler_LOW
  1172   001444  CFDD F04C          	movff	postdec2,_RB4_InterruptHandler_LOW+1
  1173                           
  1174                           ;MCAL_Layer/Interrupt/mcal_external_interrup.c: 227:                 break;
  1175   001448  EF84  F00A         	goto	l587
  1176   00144C                     l4257:
  1177                           
  1178                           ; BSR set to: 0
  1179                           ;MCAL_Layer/Interrupt/mcal_external_interrup.c: 229:                 RB5_InterruptHandle
      +                          r_HIGH = int_obj->EXT_InterruptHandler_HIGH;
  1180   00144C  5187               	movf	Interrupt_RBx_Init@int_obj& (0+255),w,b
  1181   00144E  6ED9               	movwf	fsr2l,c
  1182   001450  6ADA               	clrf	fsr2h,c
  1183   001452  CFDE F049          	movff	postinc2,_RB5_InterruptHandler_HIGH
  1184   001456  CFDD F04A          	movff	postdec2,_RB5_InterruptHandler_HIGH+1
  1185   00145A                     
  1186                           ; BSR set to: 0
  1187                           ;MCAL_Layer/Interrupt/mcal_external_interrup.c: 230:                 RB5_InterruptHandle
      +                          r_LOW = int_obj->EXT_InterruptHandler_LOW;
  1188   00145A  5187               	movf	Interrupt_RBx_Init@int_obj& (0+255),w,b
  1189   00145C  6ED9               	movwf	fsr2l,c
  1190   00145E  6ADA               	clrf	fsr2h,c
  1191   001460  0E02               	movlw	2
  1192   001462  26D9               	addwf	fsr2l,f,c
  1193   001464  CFDE F047          	movff	postinc2,_RB5_InterruptHandler_LOW
  1194   001468  CFDD F048          	movff	postdec2,_RB5_InterruptHandler_LOW+1
  1195                           
  1196                           ;MCAL_Layer/Interrupt/mcal_external_interrup.c: 231:                 break;
  1197   00146C  EF84  F00A         	goto	l587
  1198   001470                     l4261:
  1199                           
  1200                           ; BSR set to: 0
  1201                           ;MCAL_Layer/Interrupt/mcal_external_interrup.c: 233:                 RB6_InterruptHandle
      +                          r_HIGH = int_obj->EXT_InterruptHandler_HIGH;
  1202   001470  5187               	movf	Interrupt_RBx_Init@int_obj& (0+255),w,b
  1203   001472  6ED9               	movwf	fsr2l,c
  1204   001474  6ADA               	clrf	fsr2h,c
  1205   001476  CFDE F045          	movff	postinc2,_RB6_InterruptHandler_HIGH
  1206   00147A  CFDD F046          	movff	postdec2,_RB6_InterruptHandler_HIGH+1
  1207   00147E                     
  1208                           ; BSR set to: 0
  1209                           ;MCAL_Layer/Interrupt/mcal_external_interrup.c: 234:                 RB6_InterruptHandle
      +                          r_LOW = int_obj->EXT_InterruptHandler_LOW;
  1210   00147E  5187               	movf	Interrupt_RBx_Init@int_obj& (0+255),w,b
  1211   001480  6ED9               	movwf	fsr2l,c
  1212   001482  6ADA               	clrf	fsr2h,c
  1213   001484  0E02               	movlw	2
  1214   001486  26D9               	addwf	fsr2l,f,c
  1215   001488  CFDE F043          	movff	postinc2,_RB6_InterruptHandler_LOW
  1216   00148C  CFDD F044          	movff	postdec2,_RB6_InterruptHandler_LOW+1
  1217                           
  1218                           ;MCAL_Layer/Interrupt/mcal_external_interrup.c: 235:                 break;
  1219   001490  EF84  F00A         	goto	l587
  1220   001494                     l4265:
  1221                           
  1222                           ; BSR set to: 0
  1223                           ;MCAL_Layer/Interrupt/mcal_external_interrup.c: 237:                 RB7_InterruptHandle
      +                          r_HIGH = int_obj->EXT_InterruptHandler_HIGH;
  1224   001494  5187               	movf	Interrupt_RBx_Init@int_obj& (0+255),w,b
  1225   001496  6ED9               	movwf	fsr2l,c
  1226   001498  6ADA               	clrf	fsr2h,c
  1227   00149A  CFDE F041          	movff	postinc2,_RB7_InterruptHandler_HIGH
  1228   00149E  CFDD F042          	movff	postdec2,_RB7_InterruptHandler_HIGH+1
  1229   0014A2                     
  1230                           ; BSR set to: 0
  1231                           ;MCAL_Layer/Interrupt/mcal_external_interrup.c: 238:                 RB7_InterruptHandle
      +                          r_LOW = int_obj->EXT_InterruptHandler_LOW;
  1232   0014A2  5187               	movf	Interrupt_RBx_Init@int_obj& (0+255),w,b
  1233   0014A4  6ED9               	movwf	fsr2l,c
  1234   0014A6  6ADA               	clrf	fsr2h,c
  1235   0014A8  0E02               	movlw	2
  1236   0014AA  26D9               	addwf	fsr2l,f,c
  1237   0014AC  CFDE F03F          	movff	postinc2,_RB7_InterruptHandler_LOW
  1238   0014B0  CFDD F040          	movff	postdec2,_RB7_InterruptHandler_LOW+1
  1239                           
  1240                           ;MCAL_Layer/Interrupt/mcal_external_interrup.c: 239:                 break;
  1241   0014B4  EF84  F00A         	goto	l587
  1242   0014B8                     l4269:
  1243                           
  1244                           ; BSR set to: 0
  1245                           ;MCAL_Layer/Interrupt/mcal_external_interrup.c: 242:         }
  1246   0014B8  EF84  F00A         	goto	l587
  1247   0014BC                     l4271:
  1248   0014BC  0100               	movlb	0	; () banked
  1249   0014BE  5187               	movf	Interrupt_RBx_Init@int_obj& (0+255),w,b
  1250   0014C0  6ED9               	movwf	fsr2l,c
  1251   0014C2  6ADA               	clrf	fsr2h,c
  1252   0014C4  0E04               	movlw	4
  1253   0014C6  26D9               	addwf	fsr2l,f,c
  1254   0014C8  30DF               	rrcf	223,w,c
  1255   0014CA  32E8               	rrcf	wreg,f,c
  1256   0014CC  32E8               	rrcf	wreg,f,c
  1257   0014CE  0B07               	andlw	7
  1258   0014D0  6F88               	movwf	??_Interrupt_RBx_Init& (0+255),b
  1259   0014D2  6B89               	clrf	(??_Interrupt_RBx_Init+1)& (0+255),b
  1260                           
  1261                           ; Switch on 2 bytes has been partitioned into a top level switch of size 1, and 1 sub-sw
      +                          itches
  1262                           ; Switch size 1, requested type "simple"
  1263                           ; Number of cases is 1, Range of values is 0 to 0
  1264                           ; switch strategies available:
  1265                           ; Name         Instructions Cycles
  1266                           ; simple_byte            4     3 (average)
  1267                           ;	Chosen strategy is simple_byte
  1268   0014D4  5189               	movf	(??_Interrupt_RBx_Init+1)& (0+255),w,b
  1269   0014D6  0A00               	xorlw	0	; case 0
  1270   0014D8  B4D8               	btfsc	status,2,c
  1271   0014DA  EF71  F00A         	goto	l4951
  1272   0014DE  EF5C  F00A         	goto	l4269
  1273   0014E2                     l4951:
  1274                           
  1275                           ; BSR set to: 0
  1276                           ; Switch size 1, requested type "simple"
  1277                           ; Number of cases is 4, Range of values is 4 to 7
  1278                           ; switch strategies available:
  1279                           ; Name         Instructions Cycles
  1280                           ; simple_byte           13     7 (average)
  1281                           ;	Chosen strategy is simple_byte
  1282   0014E2  5188               	movf	??_Interrupt_RBx_Init& (0+255),w,b
  1283   0014E4  0A04               	xorlw	4	; case 4
  1284   0014E6  B4D8               	btfsc	status,2,c
  1285   0014E8  EF14  F00A         	goto	l4253
  1286   0014EC  0A01               	xorlw	1	; case 5
  1287   0014EE  B4D8               	btfsc	status,2,c
  1288   0014F0  EF26  F00A         	goto	l4257
  1289   0014F4  0A03               	xorlw	3	; case 6
  1290   0014F6  B4D8               	btfsc	status,2,c
  1291   0014F8  EF38  F00A         	goto	l4261
  1292   0014FC  0A01               	xorlw	1	; case 7
  1293   0014FE  B4D8               	btfsc	status,2,c
  1294   001500  EF4A  F00A         	goto	l4265
  1295   001504  EF5C  F00A         	goto	l4269
  1296   001508                     l587:
  1297                           
  1298                           ; BSR set to: 0
  1299                           ;MCAL_Layer/Interrupt/mcal_external_interrup.c: 243:         (INTCONbits.RBIE = 1);
  1300   001508  86F2               	bsf	242,3,c	;volatile
  1301   00150A                     
  1302                           ; BSR set to: 0
  1303                           ;MCAL_Layer/Interrupt/mcal_external_interrup.c: 244:         ret = (Std_ReturnType)0x01;
  1304   00150A  0E01               	movlw	1
  1305   00150C  6F8A               	movwf	Interrupt_RBx_Init@ret& (0+255),b
  1306   00150E                     l584:
  1307                           
  1308                           ; BSR set to: 0
  1309                           ;MCAL_Layer/Interrupt/mcal_external_interrup.c: 246:     return ret;
  1310   00150E  518A               	movf	Interrupt_RBx_Init@ret& (0+255),w,b
  1311   001510                     
  1312                           ; BSR set to: 0
  1313   001510  0012               	return		;funcret
  1314   001512                     __end_of_Interrupt_RBx_Init:
  1315                           	callstack 0
  1316                           
  1317 ;; *************** function _gpio_pin_direction_initialize *****************
  1318 ;; Defined at:
  1319 ;;		line 22 in file "MCAL_Layer/GPIO/hal_gpio.c"
  1320 ;; Parameters:    Size  Location     Type
  1321 ;;  _pin_config     1    0[BANK0 ] PTR struct .
  1322 ;;		 -> rb7_obj$mcu_pin(1), rb7_obj(6), rb6_obj$mcu_pin(1), rb6_obj(6), 
  1323 ;;		 -> rb5_obj$mcu_pin(1), rb5_obj(6), rb4_obj$mcu_pin(1), rb4_obj(6), 
  1324 ;;		 -> relay_initialize@pin_obj(1), led_initialize@pin_obj(1), 
  1325 ;; Auto vars:     Size  Location     Type
  1326 ;;  ret             1    6[BANK0 ] unsigned char 
  1327 ;; Return value:  Size  Location     Type
  1328 ;;                  1    wreg      unsigned char 
  1329 ;; Registers used:
  1330 ;;		wreg, fsr2l, fsr2h, status,2, status,0, prodl, prodh
  1331 ;; Tracked objects:
  1332 ;;		On entry : 0/0
  1333 ;;		On exit  : 0/0
  1334 ;;		Unchanged: 0/0
  1335 ;; Data sizes:     COMRAM   BANK0   BANK1   BANK2   BANK3   BANK4   BANK5   BANK6   BANK7   BANK8   BANK9  BANK10  BANK1
      +1  BANK12  BANK13  BANK14  BANK15
  1336 ;;      Params:         0       1       0       0       0       0       0       0       0       0       0       0       
      +0       0       0       0       0
  1337 ;;      Locals:         0       1       0       0       0       0       0       0       0       0       0       0       
      +0       0       0       0       0
  1338 ;;      Temps:          0       5       0       0       0       0       0       0       0       0       0       0       
      +0       0       0       0       0
  1339 ;;      Totals:         0       7       0       0       0       0       0       0       0       0       0       0       
      +0       0       0       0       0
  1340 ;;Total ram usage:        7 bytes
  1341 ;; Hardware stack levels used: 1
  1342 ;; Hardware stack levels required when called: 5
  1343 ;; This function calls:
  1344 ;;		Nothing
  1345 ;; This function is called by:
  1346 ;;		_gpio_pin_initialize
  1347 ;;		_Interrupt_RBx_Init
  1348 ;;		_seven_segment_initialize
  1349 ;;		_button_initialize
  1350 ;;		_dc_motor_initialize
  1351 ;;		_keypad_initialize
  1352 ;;		_relay_initialize
  1353 ;;		_Interrupt_INTx_Pin_Init
  1354 ;; This function uses a non-reentrant model
  1355 ;;
  1356                           
  1357                           	psect	text5
  1358   0012CC                     __ptext5:
  1359                           	callstack 0
  1360   0012CC                     _gpio_pin_direction_initialize:
  1361                           	callstack 23
  1362   0012CC                     
  1363                           ;MCAL_Layer/GPIO/hal_gpio.c: 22: Std_ReturnType gpio_pin_direction_initialize(pin_config
      +                          _t *_pin_config);MCAL_Layer/GPIO/hal_gpio.c: 23: {;MCAL_Layer/GPIO/hal_gpio.c: 24:     S
      +                          td_ReturnType ret = (Std_ReturnType)0x01 ;
  1364   0012CC  0E01               	movlw	1
  1365   0012CE  0100               	movlb	0	; () banked
  1366   0012D0  6F86               	movwf	gpio_pin_direction_initialize@ret& (0+255),b
  1367                           
  1368                           ;MCAL_Layer/GPIO/hal_gpio.c: 25:     if(((void*)0) == _pin_config || _pin_config->pin > 
      +                          (8 - 1))
  1369   0012D2  5180               	movf	gpio_pin_direction_initialize@_pin_config& (0+255),w,b
  1370   0012D4  B4D8               	btfsc	status,2,c
  1371   0012D6  EF6F  F009         	goto	u3311
  1372   0012DA  EF71  F009         	goto	u3310
  1373   0012DE                     u3311:
  1374   0012DE  EF81  F009         	goto	l3935
  1375   0012E2                     u3310:
  1376   0012E2                     
  1377                           ; BSR set to: 0
  1378   0012E2  5180               	movf	gpio_pin_direction_initialize@_pin_config& (0+255),w,b
  1379   0012E4  6ED9               	movwf	fsr2l,c
  1380   0012E6  6ADA               	clrf	fsr2h,c
  1381   0012E8  30DF               	rrcf	223,w,c
  1382   0012EA  32E8               	rrcf	wreg,f,c
  1383   0012EC  32E8               	rrcf	wreg,f,c
  1384   0012EE  0B07               	andlw	7
  1385   0012F0  6F81               	movwf	??_gpio_pin_direction_initialize& (0+255),b
  1386   0012F2  0E07               	movlw	7
  1387   0012F4  6581               	cpfsgt	??_gpio_pin_direction_initialize& (0+255),b
  1388   0012F6  EF7F  F009         	goto	u3321
  1389   0012FA  EF81  F009         	goto	u3320
  1390   0012FE                     u3321:
  1391   0012FE  EFDA  F009         	goto	l3943
  1392   001302                     u3320:
  1393   001302                     l3935:
  1394                           
  1395                           ; BSR set to: 0
  1396                           ;MCAL_Layer/GPIO/hal_gpio.c: 26:     {;MCAL_Layer/GPIO/hal_gpio.c: 27:         ret = (St
      +                          d_ReturnType)0x00;
  1397   001302  0E00               	movlw	0
  1398   001304  6F86               	movwf	gpio_pin_direction_initialize@ret& (0+255),b
  1399                           
  1400                           ;MCAL_Layer/GPIO/hal_gpio.c: 28:     }
  1401   001306  EFFA  F009         	goto	l3945
  1402   00130A                     l3937:
  1403                           
  1404                           ; BSR set to: 0
  1405                           ;MCAL_Layer/GPIO/hal_gpio.c: 33:                 (*tris_registers[_pin_config->port] &= 
      +                          ~(((uint8)1) << _pin_config->pin));
  1406   00130A  5180               	movf	gpio_pin_direction_initialize@_pin_config& (0+255),w,b
  1407   00130C  6ED9               	movwf	fsr2l,c
  1408   00130E  6ADA               	clrf	fsr2h,c
  1409   001310  30DF               	rrcf	223,w,c
  1410   001312  32E8               	rrcf	wreg,f,c
  1411   001314  32E8               	rrcf	wreg,f,c
  1412   001316  0B07               	andlw	7
  1413   001318  6F81               	movwf	??_gpio_pin_direction_initialize& (0+255),b
  1414   00131A  0E01               	movlw	1
  1415   00131C  6F82               	movwf	(??_gpio_pin_direction_initialize+1)& (0+255),b
  1416   00131E  2B81               	incf	??_gpio_pin_direction_initialize& (0+255),f,b
  1417   001320  EF94  F009         	goto	u3334
  1418   001324                     u3335:
  1419   001324  90D8               	bcf	status,0,c
  1420   001326  3782               	rlcf	(??_gpio_pin_direction_initialize+1)& (0+255),f,b
  1421   001328                     u3334:
  1422   001328  2F81               	decfsz	??_gpio_pin_direction_initialize& (0+255),f,b
  1423   00132A  EF92  F009         	goto	u3335
  1424   00132E  0100               	movlb	0	; () banked
  1425   001330  5182               	movf	(??_gpio_pin_direction_initialize+1)& (0+255),w,b
  1426   001332  0AFF               	xorlw	255
  1427   001334  6F83               	movwf	(??_gpio_pin_direction_initialize+2)& (0+255),b
  1428   001336  5180               	movf	gpio_pin_direction_initialize@_pin_config& (0+255),w,b
  1429   001338  6ED9               	movwf	fsr2l,c
  1430   00133A  6ADA               	clrf	fsr2h,c
  1431   00133C  50DF               	movf	223,w,c
  1432   00133E  0B07               	andlw	7
  1433   001340  0D02               	mullw	2
  1434   001342  50F3               	movf	243,w,c
  1435   001344  0F15               	addlw	low _tris_registers
  1436   001346  6ED9               	movwf	fsr2l,c
  1437   001348  6ADA               	clrf	fsr2h,c
  1438   00134A  CFDE F084          	movff	postinc2,??_gpio_pin_direction_initialize+3
  1439   00134E  CFDD F085          	movff	postdec2,??_gpio_pin_direction_initialize+4
  1440   001352  C084  FFD9         	movff	??_gpio_pin_direction_initialize+3,fsr2l
  1441   001356  C085  FFDA         	movff	??_gpio_pin_direction_initialize+4,fsr2h
  1442   00135A  5183               	movf	(??_gpio_pin_direction_initialize+2)& (0+255),w,b
  1443   00135C  16DF               	andwf	indf2,f,c
  1444                           
  1445                           ;MCAL_Layer/GPIO/hal_gpio.c: 34:                 break;
  1446   00135E  EFFA  F009         	goto	l3945
  1447   001362                     l3939:
  1448                           
  1449                           ; BSR set to: 0
  1450                           ;MCAL_Layer/GPIO/hal_gpio.c: 36:                 (*tris_registers[_pin_config->port] |= 
      +                          (((uint8)1) << _pin_config->pin));
  1451   001362  5180               	movf	gpio_pin_direction_initialize@_pin_config& (0+255),w,b
  1452   001364  6ED9               	movwf	fsr2l,c
  1453   001366  6ADA               	clrf	fsr2h,c
  1454   001368  30DF               	rrcf	223,w,c
  1455   00136A  32E8               	rrcf	wreg,f,c
  1456   00136C  32E8               	rrcf	wreg,f,c
  1457   00136E  0B07               	andlw	7
  1458   001370  6F81               	movwf	??_gpio_pin_direction_initialize& (0+255),b
  1459   001372  0E01               	movlw	1
  1460   001374  6F82               	movwf	(??_gpio_pin_direction_initialize+1)& (0+255),b
  1461   001376  2B81               	incf	??_gpio_pin_direction_initialize& (0+255),f,b
  1462   001378  EFC0  F009         	goto	u3344
  1463   00137C                     u3345:
  1464   00137C  90D8               	bcf	status,0,c
  1465   00137E  3782               	rlcf	(??_gpio_pin_direction_initialize+1)& (0+255),f,b
  1466   001380                     u3344:
  1467   001380  2F81               	decfsz	??_gpio_pin_direction_initialize& (0+255),f,b
  1468   001382  EFBE  F009         	goto	u3345
  1469   001386  0100               	movlb	0	; () banked
  1470   001388  5180               	movf	gpio_pin_direction_initialize@_pin_config& (0+255),w,b
  1471   00138A  6ED9               	movwf	fsr2l,c
  1472   00138C  6ADA               	clrf	fsr2h,c
  1473   00138E  50DF               	movf	223,w,c
  1474   001390  0B07               	andlw	7
  1475   001392  0D02               	mullw	2
  1476   001394  50F3               	movf	243,w,c
  1477   001396  0F15               	addlw	low _tris_registers
  1478   001398  6ED9               	movwf	fsr2l,c
  1479   00139A  6ADA               	clrf	fsr2h,c
  1480   00139C  CFDE F083          	movff	postinc2,??_gpio_pin_direction_initialize+2
  1481   0013A0  CFDD F084          	movff	postdec2,??_gpio_pin_direction_initialize+3
  1482   0013A4  C083  FFD9         	movff	??_gpio_pin_direction_initialize+2,fsr2l
  1483   0013A8  C084  FFDA         	movff	??_gpio_pin_direction_initialize+3,fsr2h
  1484   0013AC  5182               	movf	(??_gpio_pin_direction_initialize+1)& (0+255),w,b
  1485   0013AE  12DF               	iorwf	indf2,f,c
  1486                           
  1487                           ;MCAL_Layer/GPIO/hal_gpio.c: 37:                 break;
  1488   0013B0  EFFA  F009         	goto	l3945
  1489   0013B4                     l3943:
  1490                           
  1491                           ; BSR set to: 0
  1492   0013B4  5180               	movf	gpio_pin_direction_initialize@_pin_config& (0+255),w,b
  1493   0013B6  6ED9               	movwf	fsr2l,c
  1494   0013B8  6ADA               	clrf	fsr2h,c
  1495   0013BA  BCDF               	btfsc	indf2,6,c
  1496   0013BC  EFE2  F009         	goto	u3351
  1497   0013C0  EFE5  F009         	goto	u3350
  1498   0013C4                     u3351:
  1499   0013C4  0E01               	movlw	1
  1500   0013C6  EFE6  F009         	goto	u3360
  1501   0013CA                     u3350:
  1502   0013CA  0E00               	movlw	0
  1503   0013CC                     u3360:
  1504   0013CC  6F81               	movwf	??_gpio_pin_direction_initialize& (0+255),b
  1505   0013CE  6B82               	clrf	(??_gpio_pin_direction_initialize+1)& (0+255),b
  1506                           
  1507                           ; Switch on 2 bytes has been partitioned into a top level switch of size 1, and 1 sub-sw
      +                          itches
  1508                           ; Switch size 1, requested type "simple"
  1509                           ; Number of cases is 1, Range of values is 0 to 0
  1510                           ; switch strategies available:
  1511                           ; Name         Instructions Cycles
  1512                           ; simple_byte            4     3 (average)
  1513                           ;	Chosen strategy is simple_byte
  1514   0013D0  5182               	movf	(??_gpio_pin_direction_initialize+1)& (0+255),w,b
  1515   0013D2  0A00               	xorlw	0	; case 0
  1516   0013D4  B4D8               	btfsc	status,2,c
  1517   0013D6  EFEF  F009         	goto	l4953
  1518   0013DA  EF81  F009         	goto	l3935
  1519   0013DE                     l4953:
  1520                           
  1521                           ; BSR set to: 0
  1522                           ; Switch size 1, requested type "simple"
  1523                           ; Number of cases is 2, Range of values is 0 to 1
  1524                           ; switch strategies available:
  1525                           ; Name         Instructions Cycles
  1526                           ; simple_byte            7     4 (average)
  1527                           ;	Chosen strategy is simple_byte
  1528   0013DE  5181               	movf	??_gpio_pin_direction_initialize& (0+255),w,b
  1529   0013E0  0A00               	xorlw	0	; case 0
  1530   0013E2  B4D8               	btfsc	status,2,c
  1531   0013E4  EF85  F009         	goto	l3937
  1532   0013E8  0A01               	xorlw	1	; case 1
  1533   0013EA  B4D8               	btfsc	status,2,c
  1534   0013EC  EFB1  F009         	goto	l3939
  1535   0013F0  EF81  F009         	goto	l3935
  1536   0013F4                     l3945:
  1537                           
  1538                           ; BSR set to: 0
  1539                           ;MCAL_Layer/GPIO/hal_gpio.c: 42:     return ret;
  1540   0013F4  5186               	movf	gpio_pin_direction_initialize@ret& (0+255),w,b
  1541   0013F6                     
  1542                           ; BSR set to: 0
  1543   0013F6  0012               	return		;funcret
  1544   0013F8                     __end_of_gpio_pin_direction_initialize:
  1545                           	callstack 0
  1546                           
  1547 ;; *************** function _InterruptManager *****************
  1548 ;; Defined at:
  1549 ;;		line 37 in file "MCAL_Layer/Interrupt/mcal_interrupt_manager.c"
  1550 ;; Parameters:    Size  Location     Type
  1551 ;;		None
  1552 ;; Auto vars:     Size  Location     Type
  1553 ;;		None
  1554 ;; Return value:  Size  Location     Type
  1555 ;;                  1    wreg      void 
  1556 ;; Registers used:
  1557 ;;		wreg, fsr2l, fsr2h, status,2, status,0, pcl, pclath, pclatu, tosl, prodl, prodh, cstack
  1558 ;; Tracked objects:
  1559 ;;		On entry : 0/0
  1560 ;;		On exit  : 0/0
  1561 ;;		Unchanged: 0/0
  1562 ;; Data sizes:     COMRAM   BANK0   BANK1   BANK2   BANK3   BANK4   BANK5   BANK6   BANK7   BANK8   BANK9  BANK10  BANK1
      +1  BANK12  BANK13  BANK14  BANK15
  1563 ;;      Params:         0       0       0       0       0       0       0       0       0       0       0       0       
      +0       0       0       0       0
  1564 ;;      Locals:         0       0       0       0       0       0       0       0       0       0       0       0       
      +0       0       0       0       0
  1565 ;;      Temps:          6       0       0       0       0       0       0       0       0       0       0       0       
      +0       0       0       0       0
  1566 ;;      Totals:         6       0       0       0       0       0       0       0       0       0       0       0       
      +0       0       0       0       0
  1567 ;;Total ram usage:        6 bytes
  1568 ;; Hardware stack levels used: 1
  1569 ;; Hardware stack levels required when called: 4
  1570 ;; This function calls:
  1571 ;;		_INT0_ISR
  1572 ;;		_INT1_ISR
  1573 ;;		_INT2_ISR
  1574 ;;		_RB4_ISR
  1575 ;;		_RB5_ISR
  1576 ;;		_RB6_ISR
  1577 ;;		_RB7_ISR
  1578 ;; This function is called by:
  1579 ;;		Interrupt level 2
  1580 ;; This function uses a non-reentrant model
  1581 ;;
  1582                           
  1583                           	psect	intcode
  1584   000008                     __pintcode:
  1585                           	callstack 0
  1586   000008                     _InterruptManager:
  1587                           	callstack 23
  1588                           
  1589                           ; BSR set to: 0
  1590                           ;incstack = 0
  1591   000008  8270               	bsf	int$flags,1,c	;set compiler interrupt flag (level 2)
  1592   00000A  ED0B  F008         	call	int_func,f	;refresh shadow registers
  1593                           
  1594                           	psect	intcode_body
  1595   001016                     __pintcode_body:
  1596                           	callstack 23
  1597   001016                     int_func:
  1598                           	callstack 23
  1599   001016  0006               	pop		; remove dummy address from shadow register refresh
  1600   001018  CFFA F06A          	movff	pclath,??_InterruptManager
  1601   00101C  CFFB F06B          	movff	pclatu,??_InterruptManager+1
  1602   001020  CFD9 F06C          	movff	fsr2l,??_InterruptManager+2
  1603   001024  CFDA F06D          	movff	fsr2h,??_InterruptManager+3
  1604   001028  CFF3 F06E          	movff	prodl,??_InterruptManager+4
  1605   00102C  CFF4 F06F          	movff	prodh,??_InterruptManager+5
  1606   001030                     
  1607                           ;MCAL_Layer/Interrupt/mcal_interrupt_manager.c: 38:     if((1 == INTCONbits.INT0IE) && (
      +                          1 == INTCONbits.INT0IF)){
  1608   001030  A8F2               	btfss	242,4,c	;volatile
  1609   001032  EF1D  F008         	goto	i2u428_41
  1610   001036  EF1F  F008         	goto	i2u428_40
  1611   00103A                     i2u428_41:
  1612   00103A  EF28  F008         	goto	i2l718
  1613   00103E                     i2u428_40:
  1614   00103E  A2F2               	btfss	242,1,c	;volatile
  1615   001040  EF24  F008         	goto	i2u429_41
  1616   001044  EF26  F008         	goto	i2u429_40
  1617   001048                     i2u429_41:
  1618   001048  EF28  F008         	goto	i2l718
  1619   00104C                     i2u429_40:
  1620   00104C                     
  1621                           ;MCAL_Layer/Interrupt/mcal_interrupt_manager.c: 39:         INT0_ISR();
  1622   00104C  EC1A  F00E         	call	_INT0_ISR	;wreg free
  1623   001050                     i2l718:
  1624                           
  1625                           ;MCAL_Layer/Interrupt/mcal_interrupt_manager.c: 42:     if((1 == INTCON3bits.INT1E) && (
      +                          1 == INTCON3bits.INT1F)){
  1626   001050  A6F0               	btfss	240,3,c	;volatile
  1627   001052  EF2D  F008         	goto	i2u430_41
  1628   001056  EF2F  F008         	goto	i2u430_40
  1629   00105A                     i2u430_41:
  1630   00105A  EF38  F008         	goto	i2l720
  1631   00105E                     i2u430_40:
  1632   00105E  A0F0               	btfss	240,0,c	;volatile
  1633   001060  EF34  F008         	goto	i2u431_41
  1634   001064  EF36  F008         	goto	i2u431_40
  1635   001068                     i2u431_41:
  1636   001068  EF38  F008         	goto	i2l720
  1637   00106C                     i2u431_40:
  1638   00106C                     
  1639                           ;MCAL_Layer/Interrupt/mcal_interrupt_manager.c: 43:         INT1_ISR();
  1640   00106C  EC18  F00E         	call	_INT1_ISR	;wreg free
  1641   001070                     i2l720:
  1642                           
  1643                           ;MCAL_Layer/Interrupt/mcal_interrupt_manager.c: 46:     if((1 == INTCON3bits.INT2IE) && 
      +                          (1 == INTCON3bits.INT2IF)){
  1644   001070  A8F0               	btfss	240,4,c	;volatile
  1645   001072  EF3D  F008         	goto	i2u432_41
  1646   001076  EF3F  F008         	goto	i2u432_40
  1647   00107A                     i2u432_41:
  1648   00107A  EF48  F008         	goto	i2l722
  1649   00107E                     i2u432_40:
  1650   00107E  A2F0               	btfss	240,1,c	;volatile
  1651   001080  EF44  F008         	goto	i2u433_41
  1652   001084  EF46  F008         	goto	i2u433_40
  1653   001088                     i2u433_41:
  1654   001088  EF48  F008         	goto	i2l722
  1655   00108C                     i2u433_40:
  1656   00108C                     
  1657                           ;MCAL_Layer/Interrupt/mcal_interrupt_manager.c: 47:         INT2_ISR();
  1658   00108C  EC16  F00E         	call	_INT2_ISR	;wreg free
  1659   001090                     i2l722:
  1660                           
  1661                           ;MCAL_Layer/Interrupt/mcal_interrupt_manager.c: 53:     if((1 == INTCONbits.RBIE) && (1 
      +                          == INTCONbits.RBIF )
  1662   001090  A6F2               	btfss	242,3,c	;volatile
  1663   001092  EF4D  F008         	goto	i2u434_41
  1664   001096  EF4F  F008         	goto	i2u434_40
  1665   00109A                     i2u434_41:
  1666   00109A  EF6A  F008         	goto	i2l724
  1667   00109E                     i2u434_40:
  1668   00109E  A0F2               	btfss	242,0,c	;volatile
  1669   0010A0  EF54  F008         	goto	i2u435_41
  1670   0010A4  EF56  F008         	goto	i2u435_40
  1671   0010A8                     i2u435_41:
  1672   0010A8  EF6A  F008         	goto	i2l724
  1673   0010AC                     i2u435_40:
  1674   0010AC  A881               	btfss	129,4,c	;volatile
  1675   0010AE  EF5B  F008         	goto	i2u436_41
  1676   0010B2  EF5D  F008         	goto	i2u436_40
  1677   0010B6                     i2u436_41:
  1678   0010B6  EF6A  F008         	goto	i2l724
  1679   0010BA                     i2u436_40:
  1680   0010BA  0422               	decf	_RB4_Flag^0,w,c	;volatile
  1681   0010BC  A4D8               	btfss	status,2,c
  1682   0010BE  EF63  F008         	goto	i2u437_41
  1683   0010C2  EF65  F008         	goto	i2u437_40
  1684   0010C6                     i2u437_41:
  1685   0010C6  EF6A  F008         	goto	i2l724
  1686   0010CA                     i2u437_40:
  1687   0010CA                     
  1688                           ;MCAL_Layer/Interrupt/mcal_interrupt_manager.c: 54:     && (PORTBbits.RB4 == GPIO_HIGH) 
      +                          && (RB4_Flag == 1)){;MCAL_Layer/Interrupt/mcal_interrupt_manager.c: 55:         RB4_Flag
      +                           = 0;
  1689   0010CA  0E00               	movlw	0
  1690   0010CC  6E22               	movwf	_RB4_Flag^0,c	;volatile
  1691   0010CE                     
  1692                           ;MCAL_Layer/Interrupt/mcal_interrupt_manager.c: 56:         RB4_ISR(0);
  1693   0010CE  0E00               	movlw	0
  1694   0010D0  EC54  F00C         	call	_RB4_ISR
  1695   0010D4                     i2l724:
  1696                           
  1697                           ;MCAL_Layer/Interrupt/mcal_interrupt_manager.c: 59:     if((1 == INTCONbits.RBIE) && (1 
      +                          == INTCONbits.RBIF )
  1698   0010D4  A6F2               	btfss	242,3,c	;volatile
  1699   0010D6  EF6F  F008         	goto	i2u438_41
  1700   0010DA  EF71  F008         	goto	i2u438_40
  1701   0010DE                     i2u438_41:
  1702   0010DE  EF8C  F008         	goto	i2l726
  1703   0010E2                     i2u438_40:
  1704   0010E2  A0F2               	btfss	242,0,c	;volatile
  1705   0010E4  EF76  F008         	goto	i2u439_41
  1706   0010E8  EF78  F008         	goto	i2u439_40
  1707   0010EC                     i2u439_41:
  1708   0010EC  EF8C  F008         	goto	i2l726
  1709   0010F0                     i2u439_40:
  1710   0010F0  B881               	btfsc	129,4,c	;volatile
  1711   0010F2  EF7D  F008         	goto	i2u440_41
  1712   0010F6  EF7F  F008         	goto	i2u440_40
  1713   0010FA                     i2u440_41:
  1714   0010FA  EF8C  F008         	goto	i2l726
  1715   0010FE                     i2u440_40:
  1716   0010FE  5022               	movf	_RB4_Flag^0,w,c	;volatile
  1717   001100  A4D8               	btfss	status,2,c
  1718   001102  EF85  F008         	goto	i2u441_41
  1719   001106  EF87  F008         	goto	i2u441_40
  1720   00110A                     i2u441_41:
  1721   00110A  EF8C  F008         	goto	i2l726
  1722   00110E                     i2u441_40:
  1723   00110E                     
  1724                           ;MCAL_Layer/Interrupt/mcal_interrupt_manager.c: 60:     && (PORTBbits.RB4 == GPIO_LOW) &
      +                          & (RB4_Flag == 0)){;MCAL_Layer/Interrupt/mcal_interrupt_manager.c: 61:         RB4_Flag 
      +                          = 1;
  1725   00110E  0E01               	movlw	1
  1726   001110  6E22               	movwf	_RB4_Flag^0,c	;volatile
  1727   001112                     
  1728                           ;MCAL_Layer/Interrupt/mcal_interrupt_manager.c: 62:         RB4_ISR(1);
  1729   001112  0E01               	movlw	1
  1730   001114  EC54  F00C         	call	_RB4_ISR
  1731   001118                     i2l726:
  1732                           
  1733                           ;MCAL_Layer/Interrupt/mcal_interrupt_manager.c: 66:     if((1 == INTCONbits.RBIE) && (1 
      +                          == INTCONbits.RBIF )
  1734   001118  A6F2               	btfss	242,3,c	;volatile
  1735   00111A  EF91  F008         	goto	i2u442_41
  1736   00111E  EF93  F008         	goto	i2u442_40
  1737   001122                     i2u442_41:
  1738   001122  EFAE  F008         	goto	i2l728
  1739   001126                     i2u442_40:
  1740   001126  A0F2               	btfss	242,0,c	;volatile
  1741   001128  EF98  F008         	goto	i2u443_41
  1742   00112C  EF9A  F008         	goto	i2u443_40
  1743   001130                     i2u443_41:
  1744   001130  EFAE  F008         	goto	i2l728
  1745   001134                     i2u443_40:
  1746   001134  AA81               	btfss	129,5,c	;volatile
  1747   001136  EF9F  F008         	goto	i2u444_41
  1748   00113A  EFA1  F008         	goto	i2u444_40
  1749   00113E                     i2u444_41:
  1750   00113E  EFAE  F008         	goto	i2l728
  1751   001142                     i2u444_40:
  1752   001142  0421               	decf	_RB5_Flag^0,w,c	;volatile
  1753   001144  A4D8               	btfss	status,2,c
  1754   001146  EFA7  F008         	goto	i2u445_41
  1755   00114A  EFA9  F008         	goto	i2u445_40
  1756   00114E                     i2u445_41:
  1757   00114E  EFAE  F008         	goto	i2l728
  1758   001152                     i2u445_40:
  1759   001152                     
  1760                           ;MCAL_Layer/Interrupt/mcal_interrupt_manager.c: 67:     && (PORTBbits.RB5 == GPIO_HIGH) 
      +                          && (RB5_Flag == 1)){;MCAL_Layer/Interrupt/mcal_interrupt_manager.c: 68:         RB5_Flag
      +                           = 0;
  1761   001152  0E00               	movlw	0
  1762   001154  6E21               	movwf	_RB5_Flag^0,c	;volatile
  1763   001156                     
  1764                           ;MCAL_Layer/Interrupt/mcal_interrupt_manager.c: 69:         RB5_ISR(0);
  1765   001156  0E00               	movlw	0
  1766   001158  EC15  F00C         	call	_RB5_ISR
  1767   00115C                     i2l728:
  1768                           
  1769                           ;MCAL_Layer/Interrupt/mcal_interrupt_manager.c: 72:     if((1 == INTCONbits.RBIE) && (1 
      +                          == INTCONbits.RBIF )
  1770   00115C  A6F2               	btfss	242,3,c	;volatile
  1771   00115E  EFB3  F008         	goto	i2u446_41
  1772   001162  EFB5  F008         	goto	i2u446_40
  1773   001166                     i2u446_41:
  1774   001166  EFD0  F008         	goto	i2l730
  1775   00116A                     i2u446_40:
  1776   00116A  A0F2               	btfss	242,0,c	;volatile
  1777   00116C  EFBA  F008         	goto	i2u447_41
  1778   001170  EFBC  F008         	goto	i2u447_40
  1779   001174                     i2u447_41:
  1780   001174  EFD0  F008         	goto	i2l730
  1781   001178                     i2u447_40:
  1782   001178  BA81               	btfsc	129,5,c	;volatile
  1783   00117A  EFC1  F008         	goto	i2u448_41
  1784   00117E  EFC3  F008         	goto	i2u448_40
  1785   001182                     i2u448_41:
  1786   001182  EFD0  F008         	goto	i2l730
  1787   001186                     i2u448_40:
  1788   001186  5021               	movf	_RB5_Flag^0,w,c	;volatile
  1789   001188  A4D8               	btfss	status,2,c
  1790   00118A  EFC9  F008         	goto	i2u449_41
  1791   00118E  EFCB  F008         	goto	i2u449_40
  1792   001192                     i2u449_41:
  1793   001192  EFD0  F008         	goto	i2l730
  1794   001196                     i2u449_40:
  1795   001196                     
  1796                           ;MCAL_Layer/Interrupt/mcal_interrupt_manager.c: 73:     && (PORTBbits.RB5 == GPIO_LOW) &
      +                          & (RB5_Flag == 0)){;MCAL_Layer/Interrupt/mcal_interrupt_manager.c: 74:         RB5_Flag 
      +                          = 1;
  1797   001196  0E01               	movlw	1
  1798   001198  6E21               	movwf	_RB5_Flag^0,c	;volatile
  1799   00119A                     
  1800                           ;MCAL_Layer/Interrupt/mcal_interrupt_manager.c: 75:         RB5_ISR(1);
  1801   00119A  0E01               	movlw	1
  1802   00119C  EC15  F00C         	call	_RB5_ISR
  1803   0011A0                     i2l730:
  1804                           
  1805                           ;MCAL_Layer/Interrupt/mcal_interrupt_manager.c: 79:     if((1 == INTCONbits.RBIE) && (1 
      +                          == INTCONbits.RBIF )
  1806   0011A0  A6F2               	btfss	242,3,c	;volatile
  1807   0011A2  EFD5  F008         	goto	i2u450_41
  1808   0011A6  EFD7  F008         	goto	i2u450_40
  1809   0011AA                     i2u450_41:
  1810   0011AA  EFF2  F008         	goto	i2l732
  1811   0011AE                     i2u450_40:
  1812   0011AE  A0F2               	btfss	242,0,c	;volatile
  1813   0011B0  EFDC  F008         	goto	i2u451_41
  1814   0011B4  EFDE  F008         	goto	i2u451_40
  1815   0011B8                     i2u451_41:
  1816   0011B8  EFF2  F008         	goto	i2l732
  1817   0011BC                     i2u451_40:
  1818   0011BC  AC81               	btfss	129,6,c	;volatile
  1819   0011BE  EFE3  F008         	goto	i2u452_41
  1820   0011C2  EFE5  F008         	goto	i2u452_40
  1821   0011C6                     i2u452_41:
  1822   0011C6  EFF2  F008         	goto	i2l732
  1823   0011CA                     i2u452_40:
  1824   0011CA  0420               	decf	_RB6_Flag^0,w,c	;volatile
  1825   0011CC  A4D8               	btfss	status,2,c
  1826   0011CE  EFEB  F008         	goto	i2u453_41
  1827   0011D2  EFED  F008         	goto	i2u453_40
  1828   0011D6                     i2u453_41:
  1829   0011D6  EFF2  F008         	goto	i2l732
  1830   0011DA                     i2u453_40:
  1831   0011DA                     
  1832                           ;MCAL_Layer/Interrupt/mcal_interrupt_manager.c: 80:     && (PORTBbits.RB6 == GPIO_HIGH) 
      +                          && (RB6_Flag == 1)){;MCAL_Layer/Interrupt/mcal_interrupt_manager.c: 81:         RB6_Flag
      +                           = 0;
  1833   0011DA  0E00               	movlw	0
  1834   0011DC  6E20               	movwf	_RB6_Flag^0,c	;volatile
  1835   0011DE                     
  1836                           ;MCAL_Layer/Interrupt/mcal_interrupt_manager.c: 82:         RB6_ISR(0);
  1837   0011DE  0E00               	movlw	0
  1838   0011E0  ECD6  F00B         	call	_RB6_ISR
  1839   0011E4                     i2l732:
  1840                           
  1841                           ;MCAL_Layer/Interrupt/mcal_interrupt_manager.c: 85:     if((1 == INTCONbits.RBIE) && (1 
      +                          == INTCONbits.RBIF )
  1842   0011E4  A6F2               	btfss	242,3,c	;volatile
  1843   0011E6  EFF7  F008         	goto	i2u454_41
  1844   0011EA  EFF9  F008         	goto	i2u454_40
  1845   0011EE                     i2u454_41:
  1846   0011EE  EF14  F009         	goto	i2l734
  1847   0011F2                     i2u454_40:
  1848   0011F2  A0F2               	btfss	242,0,c	;volatile
  1849   0011F4  EFFE  F008         	goto	i2u455_41
  1850   0011F8  EF00  F009         	goto	i2u455_40
  1851   0011FC                     i2u455_41:
  1852   0011FC  EF14  F009         	goto	i2l734
  1853   001200                     i2u455_40:
  1854   001200  BC81               	btfsc	129,6,c	;volatile
  1855   001202  EF05  F009         	goto	i2u456_41
  1856   001206  EF07  F009         	goto	i2u456_40
  1857   00120A                     i2u456_41:
  1858   00120A  EF14  F009         	goto	i2l734
  1859   00120E                     i2u456_40:
  1860   00120E  5020               	movf	_RB6_Flag^0,w,c	;volatile
  1861   001210  A4D8               	btfss	status,2,c
  1862   001212  EF0D  F009         	goto	i2u457_41
  1863   001216  EF0F  F009         	goto	i2u457_40
  1864   00121A                     i2u457_41:
  1865   00121A  EF14  F009         	goto	i2l734
  1866   00121E                     i2u457_40:
  1867   00121E                     
  1868                           ;MCAL_Layer/Interrupt/mcal_interrupt_manager.c: 86:     && (PORTBbits.RB6 == GPIO_LOW) &
      +                          & (RB6_Flag == 0)){;MCAL_Layer/Interrupt/mcal_interrupt_manager.c: 87:         RB6_Flag 
      +                          = 1;
  1869   00121E  0E01               	movlw	1
  1870   001220  6E20               	movwf	_RB6_Flag^0,c	;volatile
  1871   001222                     
  1872                           ;MCAL_Layer/Interrupt/mcal_interrupt_manager.c: 88:         RB6_ISR(1);
  1873   001222  0E01               	movlw	1
  1874   001224  ECD6  F00B         	call	_RB6_ISR
  1875   001228                     i2l734:
  1876                           
  1877                           ;MCAL_Layer/Interrupt/mcal_interrupt_manager.c: 92:     if((1 == INTCONbits.RBIE) && (1 
      +                          == INTCONbits.RBIF )
  1878   001228  A6F2               	btfss	242,3,c	;volatile
  1879   00122A  EF19  F009         	goto	i2u458_41
  1880   00122E  EF1B  F009         	goto	i2u458_40
  1881   001232                     i2u458_41:
  1882   001232  EF36  F009         	goto	i2l736
  1883   001236                     i2u458_40:
  1884   001236  A0F2               	btfss	242,0,c	;volatile
  1885   001238  EF20  F009         	goto	i2u459_41
  1886   00123C  EF22  F009         	goto	i2u459_40
  1887   001240                     i2u459_41:
  1888   001240  EF36  F009         	goto	i2l736
  1889   001244                     i2u459_40:
  1890   001244  AE81               	btfss	129,7,c	;volatile
  1891   001246  EF27  F009         	goto	i2u460_41
  1892   00124A  EF29  F009         	goto	i2u460_40
  1893   00124E                     i2u460_41:
  1894   00124E  EF36  F009         	goto	i2l736
  1895   001252                     i2u460_40:
  1896   001252  041F               	decf	_RB7_Flag^0,w,c	;volatile
  1897   001254  A4D8               	btfss	status,2,c
  1898   001256  EF2F  F009         	goto	i2u461_41
  1899   00125A  EF31  F009         	goto	i2u461_40
  1900   00125E                     i2u461_41:
  1901   00125E  EF36  F009         	goto	i2l736
  1902   001262                     i2u461_40:
  1903   001262                     
  1904                           ;MCAL_Layer/Interrupt/mcal_interrupt_manager.c: 93:     && (PORTBbits.RB7 == GPIO_HIGH) 
      +                          && (RB7_Flag == 1)){;MCAL_Layer/Interrupt/mcal_interrupt_manager.c: 94:         RB7_Flag
      +                           = 0;
  1905   001262  0E00               	movlw	0
  1906   001264  6E1F               	movwf	_RB7_Flag^0,c	;volatile
  1907   001266                     
  1908                           ;MCAL_Layer/Interrupt/mcal_interrupt_manager.c: 95:         RB7_ISR(0);
  1909   001266  0E00               	movlw	0
  1910   001268  EC97  F00B         	call	_RB7_ISR
  1911   00126C                     i2l736:
  1912                           
  1913                           ;MCAL_Layer/Interrupt/mcal_interrupt_manager.c: 98:     if((1 == INTCONbits.RBIE) && (1 
      +                          == INTCONbits.RBIF )
  1914   00126C  A6F2               	btfss	242,3,c	;volatile
  1915   00126E  EF3B  F009         	goto	i2u462_41
  1916   001272  EF3D  F009         	goto	i2u462_40
  1917   001276                     i2u462_41:
  1918   001276  EF58  F009         	goto	i2l739
  1919   00127A                     i2u462_40:
  1920   00127A  A0F2               	btfss	242,0,c	;volatile
  1921   00127C  EF42  F009         	goto	i2u463_41
  1922   001280  EF44  F009         	goto	i2u463_40
  1923   001284                     i2u463_41:
  1924   001284  EF58  F009         	goto	i2l739
  1925   001288                     i2u463_40:
  1926   001288  BE81               	btfsc	129,7,c	;volatile
  1927   00128A  EF49  F009         	goto	i2u464_41
  1928   00128E  EF4B  F009         	goto	i2u464_40
  1929   001292                     i2u464_41:
  1930   001292  EF58  F009         	goto	i2l739
  1931   001296                     i2u464_40:
  1932   001296  501F               	movf	_RB7_Flag^0,w,c	;volatile
  1933   001298  A4D8               	btfss	status,2,c
  1934   00129A  EF51  F009         	goto	i2u465_41
  1935   00129E  EF53  F009         	goto	i2u465_40
  1936   0012A2                     i2u465_41:
  1937   0012A2  EF58  F009         	goto	i2l739
  1938   0012A6                     i2u465_40:
  1939   0012A6                     
  1940                           ;MCAL_Layer/Interrupt/mcal_interrupt_manager.c: 99:     && (PORTBbits.RB7 == GPIO_LOW) &
      +                          & (RB7_Flag == 0)){;MCAL_Layer/Interrupt/mcal_interrupt_manager.c: 100:         RB7_Flag
      +                           = 1;
  1941   0012A6  0E01               	movlw	1
  1942   0012A8  6E1F               	movwf	_RB7_Flag^0,c	;volatile
  1943   0012AA                     
  1944                           ;MCAL_Layer/Interrupt/mcal_interrupt_manager.c: 101:         RB7_ISR(1);
  1945   0012AA  0E01               	movlw	1
  1946   0012AC  EC97  F00B         	call	_RB7_ISR
  1947   0012B0                     i2l739:
  1948   0012B0  C06F  FFF4         	movff	??_InterruptManager+5,prodh
  1949   0012B4  C06E  FFF3         	movff	??_InterruptManager+4,prodl
  1950   0012B8  C06D  FFDA         	movff	??_InterruptManager+3,fsr2h
  1951   0012BC  C06C  FFD9         	movff	??_InterruptManager+2,fsr2l
  1952   0012C0  C06B  FFFB         	movff	??_InterruptManager+1,pclatu
  1953   0012C4  C06A  FFFA         	movff	??_InterruptManager,pclath
  1954   0012C8  9270               	bcf	int$flags,1,c	;clear compiler interrupt flag (level 2)
  1955   0012CA  0011               	retfie		f
  1956   0012CC                     __end_of_InterruptManager:
  1957                           	callstack 0
  1958                           
  1959 ;; *************** function _RB7_ISR *****************
  1960 ;; Defined at:
  1961 ;;		line 159 in file "MCAL_Layer/Interrupt/mcal_external_interrup.c"
  1962 ;; Parameters:    Size  Location     Type
  1963 ;;  RB7_Source      1    wreg     unsigned char 
  1964 ;; Auto vars:     Size  Location     Type
  1965 ;;  RB7_Source      1   11[COMRAM] unsigned char 
  1966 ;; Return value:  Size  Location     Type
  1967 ;;                  1    wreg      void 
  1968 ;; Registers used:
  1969 ;;		wreg, fsr2l, fsr2h, status,2, status,0, pcl, pclath, pclatu, tosl, prodl, prodh, cstack
  1970 ;; Tracked objects:
  1971 ;;		On entry : 0/0
  1972 ;;		On exit  : 0/0
  1973 ;;		Unchanged: 0/0
  1974 ;; Data sizes:     COMRAM   BANK0   BANK1   BANK2   BANK3   BANK4   BANK5   BANK6   BANK7   BANK8   BANK9  BANK10  BANK1
      +1  BANK12  BANK13  BANK14  BANK15
  1975 ;;      Params:         0       0       0       0       0       0       0       0       0       0       0       0       
      +0       0       0       0       0
  1976 ;;      Locals:         1       0       0       0       0       0       0       0       0       0       0       0       
      +0       0       0       0       0
  1977 ;;      Temps:          0       0       0       0       0       0       0       0       0       0       0       0       
      +0       0       0       0       0
  1978 ;;      Totals:         1       0       0       0       0       0       0       0       0       0       0       0       
      +0       0       0       0       0
  1979 ;;Total ram usage:        1 bytes
  1980 ;; Hardware stack levels used: 1
  1981 ;; Hardware stack levels required when called: 3
  1982 ;; This function calls:
  1983 ;;		NULL
  1984 ;;		_rb4_isr_high
  1985 ;;		_rb4_isr_low
  1986 ;;		_rb5_isr_high
  1987 ;;		_rb5_isr_low
  1988 ;;		_rb6_isr_high
  1989 ;;		_rb6_isr_low
  1990 ;;		_rb7_isr_high
  1991 ;;		_rb7_isr_low
  1992 ;; This function is called by:
  1993 ;;		_InterruptManager
  1994 ;; This function uses a non-reentrant model
  1995 ;;
  1996                           
  1997                           	psect	text7
  1998   00172E                     __ptext7:
  1999                           	callstack 0
  2000   00172E                     _RB7_ISR:
  2001                           	callstack 23
  2002                           
  2003                           ;incstack = 0
  2004                           ;RB7_ISR@RB7_Source stored from wreg
  2005   00172E  6E69               	movwf	RB7_ISR@RB7_Source^0,c
  2006   001730                     
  2007                           ;MCAL_Layer/Interrupt/mcal_external_interrup.c: 159: void RB7_ISR(uint8 RB7_Source);MCAL
      +                          _Layer/Interrupt/mcal_external_interrup.c: 160: {;MCAL_Layer/Interrupt/mcal_external_int
      +                          errup.c: 162:     (INTCONbits.RBIF = 0);
  2008   001730  90F2               	bcf	242,0,c	;volatile
  2009   001732                     
  2010                           ;MCAL_Layer/Interrupt/mcal_external_interrup.c: 166:     if(0 == RB7_Source) {
  2011   001732  5069               	movf	RB7_ISR@RB7_Source^0,w,c
  2012   001734  A4D8               	btfss	status,2,c
  2013   001736  EF9F  F00B         	goto	i2u380_41
  2014   00173A  EFA1  F00B         	goto	i2u380_40
  2015   00173E                     i2u380_41:
  2016   00173E  EFB8  F00B         	goto	i2l4241
  2017   001742                     i2u380_40:
  2018   001742                     
  2019                           ;MCAL_Layer/Interrupt/mcal_external_interrup.c: 167:         if(RB7_InterruptHandler_HIG
      +                          H) RB7_InterruptHandler_HIGH();
  2020   001742  5041               	movf	_RB7_InterruptHandler_HIGH^0,w,c
  2021   001744  1042               	iorwf	(_RB7_InterruptHandler_HIGH+1)^0,w,c
  2022   001746  B4D8               	btfsc	status,2,c
  2023   001748  EFA8  F00B         	goto	i2u381_41
  2024   00174C  EFAA  F00B         	goto	i2u381_40
  2025   001750                     i2u381_41:
  2026   001750  EFD5  F00B         	goto	i2l575
  2027   001754                     i2u381_40:
  2028   001754  D802               	call	i2u382_48
  2029   001756  EFB6  F00B         	goto	i2u382_49
  2030   00175A                     i2u382_48:
  2031   00175A  0005               	push	
  2032   00175C  6EFA               	movwf	pclath,c
  2033   00175E  5041               	movf	_RB7_InterruptHandler_HIGH^0,w,c
  2034   001760  6EFD               	movwf	tosl,c
  2035   001762  5042               	movf	(_RB7_InterruptHandler_HIGH+1)^0,w,c
  2036   001764  6EFE               	movwf	tosh,c
  2037   001766  6AFF               	clrf	tosu,c
  2038   001768  50FA               	movf	pclath,w,c
  2039   00176A  0012               	return		;indir
  2040   00176C                     i2u382_49:
  2041   00176C  EFD5  F00B         	goto	i2l575
  2042   001770                     i2l4241:
  2043   001770  0469               	decf	RB7_ISR@RB7_Source^0,w,c
  2044   001772  A4D8               	btfss	status,2,c
  2045   001774  EFBE  F00B         	goto	i2u383_41
  2046   001778  EFC0  F00B         	goto	i2u383_40
  2047   00177C                     i2u383_41:
  2048   00177C  EFD5  F00B         	goto	i2l575
  2049   001780                     i2u383_40:
  2050   001780                     
  2051                           ;MCAL_Layer/Interrupt/mcal_external_interrup.c: 171:         if(RB7_InterruptHandler_LOW
      +                          ) RB7_InterruptHandler_LOW();
  2052   001780  503F               	movf	_RB7_InterruptHandler_LOW^0,w,c
  2053   001782  1040               	iorwf	(_RB7_InterruptHandler_LOW+1)^0,w,c
  2054   001784  B4D8               	btfsc	status,2,c
  2055   001786  EFC7  F00B         	goto	i2u384_41
  2056   00178A  EFC9  F00B         	goto	i2u384_40
  2057   00178E                     i2u384_41:
  2058   00178E  EFD5  F00B         	goto	i2l575
  2059   001792                     i2u384_40:
  2060   001792  D802               	call	i2u385_48
  2061   001794  EFD5  F00B         	goto	i2u385_49
  2062   001798                     i2u385_48:
  2063   001798  0005               	push	
  2064   00179A  6EFA               	movwf	pclath,c
  2065   00179C  503F               	movf	_RB7_InterruptHandler_LOW^0,w,c
  2066   00179E  6EFD               	movwf	tosl,c
  2067   0017A0  5040               	movf	(_RB7_InterruptHandler_LOW+1)^0,w,c
  2068   0017A2  6EFE               	movwf	tosh,c
  2069   0017A4  6AFF               	clrf	tosu,c
  2070   0017A6  50FA               	movf	pclath,w,c
  2071   0017A8  0012               	return		;indir
  2072   0017AA                     i2u385_49:
  2073   0017AA                     i2l575:
  2074   0017AA  0012               	return		;funcret
  2075   0017AC                     __end_of_RB7_ISR:
  2076                           	callstack 0
  2077                           
  2078 ;; *************** function _RB6_ISR *****************
  2079 ;; Defined at:
  2080 ;;		line 141 in file "MCAL_Layer/Interrupt/mcal_external_interrup.c"
  2081 ;; Parameters:    Size  Location     Type
  2082 ;;  RB6_Source      1    wreg     unsigned char 
  2083 ;; Auto vars:     Size  Location     Type
  2084 ;;  RB6_Source      1   11[COMRAM] unsigned char 
  2085 ;; Return value:  Size  Location     Type
  2086 ;;                  1    wreg      void 
  2087 ;; Registers used:
  2088 ;;		wreg, fsr2l, fsr2h, status,2, status,0, pcl, pclath, pclatu, tosl, prodl, prodh, cstack
  2089 ;; Tracked objects:
  2090 ;;		On entry : 0/0
  2091 ;;		On exit  : 0/0
  2092 ;;		Unchanged: 0/0
  2093 ;; Data sizes:     COMRAM   BANK0   BANK1   BANK2   BANK3   BANK4   BANK5   BANK6   BANK7   BANK8   BANK9  BANK10  BANK1
      +1  BANK12  BANK13  BANK14  BANK15
  2094 ;;      Params:         0       0       0       0       0       0       0       0       0       0       0       0       
      +0       0       0       0       0
  2095 ;;      Locals:         1       0       0       0       0       0       0       0       0       0       0       0       
      +0       0       0       0       0
  2096 ;;      Temps:          0       0       0       0       0       0       0       0       0       0       0       0       
      +0       0       0       0       0
  2097 ;;      Totals:         1       0       0       0       0       0       0       0       0       0       0       0       
      +0       0       0       0       0
  2098 ;;Total ram usage:        1 bytes
  2099 ;; Hardware stack levels used: 1
  2100 ;; Hardware stack levels required when called: 3
  2101 ;; This function calls:
  2102 ;;		NULL
  2103 ;;		_rb4_isr_high
  2104 ;;		_rb4_isr_low
  2105 ;;		_rb5_isr_high
  2106 ;;		_rb5_isr_low
  2107 ;;		_rb6_isr_high
  2108 ;;		_rb6_isr_low
  2109 ;;		_rb7_isr_high
  2110 ;;		_rb7_isr_low
  2111 ;; This function is called by:
  2112 ;;		_InterruptManager
  2113 ;; This function uses a non-reentrant model
  2114 ;;
  2115                           
  2116                           	psect	text8
  2117   0017AC                     __ptext8:
  2118                           	callstack 0
  2119   0017AC                     _RB6_ISR:
  2120                           	callstack 23
  2121                           
  2122                           ;incstack = 0
  2123                           ;RB6_ISR@RB6_Source stored from wreg
  2124   0017AC  6E69               	movwf	RB6_ISR@RB6_Source^0,c
  2125   0017AE                     
  2126                           ;MCAL_Layer/Interrupt/mcal_external_interrup.c: 141: void RB6_ISR(uint8 RB6_Source);MCAL
      +                          _Layer/Interrupt/mcal_external_interrup.c: 142: {;MCAL_Layer/Interrupt/mcal_external_int
      +                          errup.c: 144:     (INTCONbits.RBIF = 0);
  2127   0017AE  90F2               	bcf	242,0,c	;volatile
  2128   0017B0                     
  2129                           ;MCAL_Layer/Interrupt/mcal_external_interrup.c: 148:     if(0 == RB6_Source) {
  2130   0017B0  5069               	movf	RB6_ISR@RB6_Source^0,w,c
  2131   0017B2  A4D8               	btfss	status,2,c
  2132   0017B4  EFDE  F00B         	goto	i2u374_41
  2133   0017B8  EFE0  F00B         	goto	i2u374_40
  2134   0017BC                     i2u374_41:
  2135   0017BC  EFF7  F00B         	goto	i2l4227
  2136   0017C0                     i2u374_40:
  2137   0017C0                     
  2138                           ;MCAL_Layer/Interrupt/mcal_external_interrup.c: 149:         if(RB6_InterruptHandler_HIG
      +                          H) RB6_InterruptHandler_HIGH();
  2139   0017C0  5045               	movf	_RB6_InterruptHandler_HIGH^0,w,c
  2140   0017C2  1046               	iorwf	(_RB6_InterruptHandler_HIGH+1)^0,w,c
  2141   0017C4  B4D8               	btfsc	status,2,c
  2142   0017C6  EFE7  F00B         	goto	i2u375_41
  2143   0017CA  EFE9  F00B         	goto	i2u375_40
  2144   0017CE                     i2u375_41:
  2145   0017CE  EF14  F00C         	goto	i2l564
  2146   0017D2                     i2u375_40:
  2147   0017D2  D802               	call	i2u376_48
  2148   0017D4  EFF5  F00B         	goto	i2u376_49
  2149   0017D8                     i2u376_48:
  2150   0017D8  0005               	push	
  2151   0017DA  6EFA               	movwf	pclath,c
  2152   0017DC  5045               	movf	_RB6_InterruptHandler_HIGH^0,w,c
  2153   0017DE  6EFD               	movwf	tosl,c
  2154   0017E0  5046               	movf	(_RB6_InterruptHandler_HIGH+1)^0,w,c
  2155   0017E2  6EFE               	movwf	tosh,c
  2156   0017E4  6AFF               	clrf	tosu,c
  2157   0017E6  50FA               	movf	pclath,w,c
  2158   0017E8  0012               	return		;indir
  2159   0017EA                     i2u376_49:
  2160   0017EA  EF14  F00C         	goto	i2l564
  2161   0017EE                     i2l4227:
  2162   0017EE  0469               	decf	RB6_ISR@RB6_Source^0,w,c
  2163   0017F0  A4D8               	btfss	status,2,c
  2164   0017F2  EFFD  F00B         	goto	i2u377_41
  2165   0017F6  EFFF  F00B         	goto	i2u377_40
  2166   0017FA                     i2u377_41:
  2167   0017FA  EF14  F00C         	goto	i2l564
  2168   0017FE                     i2u377_40:
  2169   0017FE                     
  2170                           ;MCAL_Layer/Interrupt/mcal_external_interrup.c: 153:         if(RB6_InterruptHandler_LOW
      +                          ) RB6_InterruptHandler_LOW();
  2171   0017FE  5043               	movf	_RB6_InterruptHandler_LOW^0,w,c
  2172   001800  1044               	iorwf	(_RB6_InterruptHandler_LOW+1)^0,w,c
  2173   001802  B4D8               	btfsc	status,2,c
  2174   001804  EF06  F00C         	goto	i2u378_41
  2175   001808  EF08  F00C         	goto	i2u378_40
  2176   00180C                     i2u378_41:
  2177   00180C  EF14  F00C         	goto	i2l564
  2178   001810                     i2u378_40:
  2179   001810  D802               	call	i2u379_48
  2180   001812  EF14  F00C         	goto	i2u379_49
  2181   001816                     i2u379_48:
  2182   001816  0005               	push	
  2183   001818  6EFA               	movwf	pclath,c
  2184   00181A  5043               	movf	_RB6_InterruptHandler_LOW^0,w,c
  2185   00181C  6EFD               	movwf	tosl,c
  2186   00181E  5044               	movf	(_RB6_InterruptHandler_LOW+1)^0,w,c
  2187   001820  6EFE               	movwf	tosh,c
  2188   001822  6AFF               	clrf	tosu,c
  2189   001824  50FA               	movf	pclath,w,c
  2190   001826  0012               	return		;indir
  2191   001828                     i2u379_49:
  2192   001828                     i2l564:
  2193   001828  0012               	return		;funcret
  2194   00182A                     __end_of_RB6_ISR:
  2195                           	callstack 0
  2196                           
  2197 ;; *************** function _RB5_ISR *****************
  2198 ;; Defined at:
  2199 ;;		line 123 in file "MCAL_Layer/Interrupt/mcal_external_interrup.c"
  2200 ;; Parameters:    Size  Location     Type
  2201 ;;  RB5_Source      1    wreg     unsigned char 
  2202 ;; Auto vars:     Size  Location     Type
  2203 ;;  RB5_Source      1   11[COMRAM] unsigned char 
  2204 ;; Return value:  Size  Location     Type
  2205 ;;                  1    wreg      void 
  2206 ;; Registers used:
  2207 ;;		wreg, fsr2l, fsr2h, status,2, status,0, pcl, pclath, pclatu, tosl, prodl, prodh, cstack
  2208 ;; Tracked objects:
  2209 ;;		On entry : 0/0
  2210 ;;		On exit  : 0/0
  2211 ;;		Unchanged: 0/0
  2212 ;; Data sizes:     COMRAM   BANK0   BANK1   BANK2   BANK3   BANK4   BANK5   BANK6   BANK7   BANK8   BANK9  BANK10  BANK1
      +1  BANK12  BANK13  BANK14  BANK15
  2213 ;;      Params:         0       0       0       0       0       0       0       0       0       0       0       0       
      +0       0       0       0       0
  2214 ;;      Locals:         1       0       0       0       0       0       0       0       0       0       0       0       
      +0       0       0       0       0
  2215 ;;      Temps:          0       0       0       0       0       0       0       0       0       0       0       0       
      +0       0       0       0       0
  2216 ;;      Totals:         1       0       0       0       0       0       0       0       0       0       0       0       
      +0       0       0       0       0
  2217 ;;Total ram usage:        1 bytes
  2218 ;; Hardware stack levels used: 1
  2219 ;; Hardware stack levels required when called: 3
  2220 ;; This function calls:
  2221 ;;		NULL
  2222 ;;		_rb4_isr_high
  2223 ;;		_rb4_isr_low
  2224 ;;		_rb5_isr_high
  2225 ;;		_rb5_isr_low
  2226 ;;		_rb6_isr_high
  2227 ;;		_rb6_isr_low
  2228 ;;		_rb7_isr_high
  2229 ;;		_rb7_isr_low
  2230 ;; This function is called by:
  2231 ;;		_InterruptManager
  2232 ;; This function uses a non-reentrant model
  2233 ;;
  2234                           
  2235                           	psect	text9
  2236   00182A                     __ptext9:
  2237                           	callstack 0
  2238   00182A                     _RB5_ISR:
  2239                           	callstack 23
  2240                           
  2241                           ;incstack = 0
  2242                           ;RB5_ISR@RB5_Source stored from wreg
  2243   00182A  6E69               	movwf	RB5_ISR@RB5_Source^0,c
  2244   00182C                     
  2245                           ;MCAL_Layer/Interrupt/mcal_external_interrup.c: 123: void RB5_ISR(uint8 RB5_Source);MCAL
      +                          _Layer/Interrupt/mcal_external_interrup.c: 124: {;MCAL_Layer/Interrupt/mcal_external_int
      +                          errup.c: 126:     (INTCONbits.RBIF = 0);
  2246   00182C  90F2               	bcf	242,0,c	;volatile
  2247   00182E                     
  2248                           ;MCAL_Layer/Interrupt/mcal_external_interrup.c: 130:     if(0 == RB5_Source) {
  2249   00182E  5069               	movf	RB5_ISR@RB5_Source^0,w,c
  2250   001830  A4D8               	btfss	status,2,c
  2251   001832  EF1D  F00C         	goto	i2u368_41
  2252   001836  EF1F  F00C         	goto	i2u368_40
  2253   00183A                     i2u368_41:
  2254   00183A  EF36  F00C         	goto	i2l4213
  2255   00183E                     i2u368_40:
  2256   00183E                     
  2257                           ;MCAL_Layer/Interrupt/mcal_external_interrup.c: 131:         if(RB5_InterruptHandler_HIG
      +                          H) RB5_InterruptHandler_HIGH();
  2258   00183E  5049               	movf	_RB5_InterruptHandler_HIGH^0,w,c
  2259   001840  104A               	iorwf	(_RB5_InterruptHandler_HIGH+1)^0,w,c
  2260   001842  B4D8               	btfsc	status,2,c
  2261   001844  EF26  F00C         	goto	i2u369_41
  2262   001848  EF28  F00C         	goto	i2u369_40
  2263   00184C                     i2u369_41:
  2264   00184C  EF53  F00C         	goto	i2l553
  2265   001850                     i2u369_40:
  2266   001850  D802               	call	i2u370_48
  2267   001852  EF34  F00C         	goto	i2u370_49
  2268   001856                     i2u370_48:
  2269   001856  0005               	push	
  2270   001858  6EFA               	movwf	pclath,c
  2271   00185A  5049               	movf	_RB5_InterruptHandler_HIGH^0,w,c
  2272   00185C  6EFD               	movwf	tosl,c
  2273   00185E  504A               	movf	(_RB5_InterruptHandler_HIGH+1)^0,w,c
  2274   001860  6EFE               	movwf	tosh,c
  2275   001862  6AFF               	clrf	tosu,c
  2276   001864  50FA               	movf	pclath,w,c
  2277   001866  0012               	return		;indir
  2278   001868                     i2u370_49:
  2279   001868  EF53  F00C         	goto	i2l553
  2280   00186C                     i2l4213:
  2281   00186C  0469               	decf	RB5_ISR@RB5_Source^0,w,c
  2282   00186E  A4D8               	btfss	status,2,c
  2283   001870  EF3C  F00C         	goto	i2u371_41
  2284   001874  EF3E  F00C         	goto	i2u371_40
  2285   001878                     i2u371_41:
  2286   001878  EF53  F00C         	goto	i2l553
  2287   00187C                     i2u371_40:
  2288   00187C                     
  2289                           ;MCAL_Layer/Interrupt/mcal_external_interrup.c: 135:         if(RB5_InterruptHandler_LOW
      +                          ) RB5_InterruptHandler_LOW();
  2290   00187C  5047               	movf	_RB5_InterruptHandler_LOW^0,w,c
  2291   00187E  1048               	iorwf	(_RB5_InterruptHandler_LOW+1)^0,w,c
  2292   001880  B4D8               	btfsc	status,2,c
  2293   001882  EF45  F00C         	goto	i2u372_41
  2294   001886  EF47  F00C         	goto	i2u372_40
  2295   00188A                     i2u372_41:
  2296   00188A  EF53  F00C         	goto	i2l553
  2297   00188E                     i2u372_40:
  2298   00188E  D802               	call	i2u373_48
  2299   001890  EF53  F00C         	goto	i2u373_49
  2300   001894                     i2u373_48:
  2301   001894  0005               	push	
  2302   001896  6EFA               	movwf	pclath,c
  2303   001898  5047               	movf	_RB5_InterruptHandler_LOW^0,w,c
  2304   00189A  6EFD               	movwf	tosl,c
  2305   00189C  5048               	movf	(_RB5_InterruptHandler_LOW+1)^0,w,c
  2306   00189E  6EFE               	movwf	tosh,c
  2307   0018A0  6AFF               	clrf	tosu,c
  2308   0018A2  50FA               	movf	pclath,w,c
  2309   0018A4  0012               	return		;indir
  2310   0018A6                     i2u373_49:
  2311   0018A6                     i2l553:
  2312   0018A6  0012               	return		;funcret
  2313   0018A8                     __end_of_RB5_ISR:
  2314                           	callstack 0
  2315                           
  2316 ;; *************** function _RB4_ISR *****************
  2317 ;; Defined at:
  2318 ;;		line 104 in file "MCAL_Layer/Interrupt/mcal_external_interrup.c"
  2319 ;; Parameters:    Size  Location     Type
  2320 ;;  RB4_Source      1    wreg     unsigned char 
  2321 ;; Auto vars:     Size  Location     Type
  2322 ;;  RB4_Source      1   11[COMRAM] unsigned char 
  2323 ;; Return value:  Size  Location     Type
  2324 ;;                  1    wreg      void 
  2325 ;; Registers used:
  2326 ;;		wreg, fsr2l, fsr2h, status,2, status,0, pcl, pclath, pclatu, tosl, prodl, prodh, cstack
  2327 ;; Tracked objects:
  2328 ;;		On entry : 0/0
  2329 ;;		On exit  : 0/0
  2330 ;;		Unchanged: 0/0
  2331 ;; Data sizes:     COMRAM   BANK0   BANK1   BANK2   BANK3   BANK4   BANK5   BANK6   BANK7   BANK8   BANK9  BANK10  BANK1
      +1  BANK12  BANK13  BANK14  BANK15
  2332 ;;      Params:         0       0       0       0       0       0       0       0       0       0       0       0       
      +0       0       0       0       0
  2333 ;;      Locals:         1       0       0       0       0       0       0       0       0       0       0       0       
      +0       0       0       0       0
  2334 ;;      Temps:          0       0       0       0       0       0       0       0       0       0       0       0       
      +0       0       0       0       0
  2335 ;;      Totals:         1       0       0       0       0       0       0       0       0       0       0       0       
      +0       0       0       0       0
  2336 ;;Total ram usage:        1 bytes
  2337 ;; Hardware stack levels used: 1
  2338 ;; Hardware stack levels required when called: 3
  2339 ;; This function calls:
  2340 ;;		NULL
  2341 ;;		_rb4_isr_high
  2342 ;;		_rb4_isr_low
  2343 ;;		_rb5_isr_high
  2344 ;;		_rb5_isr_low
  2345 ;;		_rb6_isr_high
  2346 ;;		_rb6_isr_low
  2347 ;;		_rb7_isr_high
  2348 ;;		_rb7_isr_low
  2349 ;; This function is called by:
  2350 ;;		_InterruptManager
  2351 ;; This function uses a non-reentrant model
  2352 ;;
  2353                           
  2354                           	psect	text10
  2355   0018A8                     __ptext10:
  2356                           	callstack 0
  2357   0018A8                     _RB4_ISR:
  2358                           	callstack 23
  2359                           
  2360                           ;incstack = 0
  2361                           ;RB4_ISR@RB4_Source stored from wreg
  2362   0018A8  6E69               	movwf	RB4_ISR@RB4_Source^0,c
  2363   0018AA                     
  2364                           ;MCAL_Layer/Interrupt/mcal_external_interrup.c: 104: void RB4_ISR(uint8 RB4_Source);MCAL
      +                          _Layer/Interrupt/mcal_external_interrup.c: 105: {;MCAL_Layer/Interrupt/mcal_external_int
      +                          errup.c: 107:     (INTCONbits.RBIF = 0);
  2365   0018AA  90F2               	bcf	242,0,c	;volatile
  2366   0018AC                     
  2367                           ;MCAL_Layer/Interrupt/mcal_external_interrup.c: 111:     if(0 == RB4_Source) {
  2368   0018AC  5069               	movf	RB4_ISR@RB4_Source^0,w,c
  2369   0018AE  A4D8               	btfss	status,2,c
  2370   0018B0  EF5C  F00C         	goto	i2u362_41
  2371   0018B4  EF5E  F00C         	goto	i2u362_40
  2372   0018B8                     i2u362_41:
  2373   0018B8  EF75  F00C         	goto	i2l4199
  2374   0018BC                     i2u362_40:
  2375   0018BC                     
  2376                           ;MCAL_Layer/Interrupt/mcal_external_interrup.c: 112:         if(RB4_InterruptHandler_HIG
      +                          H) RB4_InterruptHandler_HIGH();
  2377   0018BC  504D               	movf	_RB4_InterruptHandler_HIGH^0,w,c
  2378   0018BE  104E               	iorwf	(_RB4_InterruptHandler_HIGH+1)^0,w,c
  2379   0018C0  B4D8               	btfsc	status,2,c
  2380   0018C2  EF65  F00C         	goto	i2u363_41
  2381   0018C6  EF67  F00C         	goto	i2u363_40
  2382   0018CA                     i2u363_41:
  2383   0018CA  EF92  F00C         	goto	i2l542
  2384   0018CE                     i2u363_40:
  2385   0018CE  D802               	call	i2u364_48
  2386   0018D0  EF73  F00C         	goto	i2u364_49
  2387   0018D4                     i2u364_48:
  2388   0018D4  0005               	push	
  2389   0018D6  6EFA               	movwf	pclath,c
  2390   0018D8  504D               	movf	_RB4_InterruptHandler_HIGH^0,w,c
  2391   0018DA  6EFD               	movwf	tosl,c
  2392   0018DC  504E               	movf	(_RB4_InterruptHandler_HIGH+1)^0,w,c
  2393   0018DE  6EFE               	movwf	tosh,c
  2394   0018E0  6AFF               	clrf	tosu,c
  2395   0018E2  50FA               	movf	pclath,w,c
  2396   0018E4  0012               	return		;indir
  2397   0018E6                     i2u364_49:
  2398   0018E6  EF92  F00C         	goto	i2l542
  2399   0018EA                     i2l4199:
  2400   0018EA  0469               	decf	RB4_ISR@RB4_Source^0,w,c
  2401   0018EC  A4D8               	btfss	status,2,c
  2402   0018EE  EF7B  F00C         	goto	i2u365_41
  2403   0018F2  EF7D  F00C         	goto	i2u365_40
  2404   0018F6                     i2u365_41:
  2405   0018F6  EF92  F00C         	goto	i2l542
  2406   0018FA                     i2u365_40:
  2407   0018FA                     
  2408                           ;MCAL_Layer/Interrupt/mcal_external_interrup.c: 116:         if(RB4_InterruptHandler_LOW
      +                          ) RB4_InterruptHandler_LOW();
  2409   0018FA  504B               	movf	_RB4_InterruptHandler_LOW^0,w,c
  2410   0018FC  104C               	iorwf	(_RB4_InterruptHandler_LOW+1)^0,w,c
  2411   0018FE  B4D8               	btfsc	status,2,c
  2412   001900  EF84  F00C         	goto	i2u366_41
  2413   001904  EF86  F00C         	goto	i2u366_40
  2414   001908                     i2u366_41:
  2415   001908  EF92  F00C         	goto	i2l542
  2416   00190C                     i2u366_40:
  2417   00190C  D802               	call	i2u367_48
  2418   00190E  EF92  F00C         	goto	i2u367_49
  2419   001912                     i2u367_48:
  2420   001912  0005               	push	
  2421   001914  6EFA               	movwf	pclath,c
  2422   001916  504B               	movf	_RB4_InterruptHandler_LOW^0,w,c
  2423   001918  6EFD               	movwf	tosl,c
  2424   00191A  504C               	movf	(_RB4_InterruptHandler_LOW+1)^0,w,c
  2425   00191C  6EFE               	movwf	tosh,c
  2426   00191E  6AFF               	clrf	tosu,c
  2427   001920  50FA               	movf	pclath,w,c
  2428   001922  0012               	return		;indir
  2429   001924                     i2u367_49:
  2430   001924                     i2l542:
  2431   001924  0012               	return		;funcret
  2432   001926                     __end_of_RB4_ISR:
  2433                           	callstack 0
  2434                           
  2435 ;; *************** function _rb6_isr_low *****************
  2436 ;; Defined at:
  2437 ;;		line 42 in file "appplication.c"
  2438 ;; Parameters:    Size  Location     Type
  2439 ;;		None
  2440 ;; Auto vars:     Size  Location     Type
  2441 ;;		None
  2442 ;; Return value:  Size  Location     Type
  2443 ;;                  1    wreg      void 
  2444 ;; Registers used:
  2445 ;;		wreg, fsr2l, fsr2h, status,2, status,0, prodl, prodh, cstack
  2446 ;; Tracked objects:
  2447 ;;		On entry : 0/0
  2448 ;;		On exit  : 0/0
  2449 ;;		Unchanged: 0/0
  2450 ;; Data sizes:     COMRAM   BANK0   BANK1   BANK2   BANK3   BANK4   BANK5   BANK6   BANK7   BANK8   BANK9  BANK10  BANK1
      +1  BANK12  BANK13  BANK14  BANK15
  2451 ;;      Params:         0       0       0       0       0       0       0       0       0       0       0       0       
      +0       0       0       0       0
  2452 ;;      Locals:         0       0       0       0       0       0       0       0       0       0       0       0       
      +0       0       0       0       0
  2453 ;;      Temps:          0       0       0       0       0       0       0       0       0       0       0       0       
      +0       0       0       0       0
  2454 ;;      Totals:         0       0       0       0       0       0       0       0       0       0       0       0       
      +0       0       0       0       0
  2455 ;;Total ram usage:        0 bytes
  2456 ;; Hardware stack levels used: 1
  2457 ;; Hardware stack levels required when called: 2
  2458 ;; This function calls:
  2459 ;;		_led_turn_on
  2460 ;; This function is called by:
  2461 ;;		_RB4_ISR
  2462 ;;		_RB5_ISR
  2463 ;;		_RB6_ISR
  2464 ;;		_RB7_ISR
  2465 ;; This function uses a non-reentrant model
  2466 ;;
  2467                           
  2468                           	psect	text11
  2469   001BBC                     __ptext11:
  2470                           	callstack 0
  2471   001BBC                     _rb6_isr_low:
  2472                           	callstack 23
  2473   001BBC                     
  2474                           ;appplication.c: 43:     ret = led_turn_on(&ld4);
  2475   001BBC  0E3B               	movlw	low _ld4
  2476   001BBE  6E65               	movwf	led_turn_on@led^0,c
  2477   001BC0  EC08  F00D         	call	_led_turn_on	;wreg free
  2478   001BC4  0100               	movlb	0	; () banked
  2479   001BC6  6F8F               	movwf	_ret& (0+255),b
  2480   001BC8                     
  2481                           ; BSR set to: 0
  2482   001BC8  0012               	return		;funcret
  2483   001BCA                     __end_of_rb6_isr_low:
  2484                           	callstack 0
  2485                           
  2486 ;; *************** function _rb5_isr_low *****************
  2487 ;; Defined at:
  2488 ;;		line 33 in file "appplication.c"
  2489 ;; Parameters:    Size  Location     Type
  2490 ;;		None
  2491 ;; Auto vars:     Size  Location     Type
  2492 ;;		None
  2493 ;; Return value:  Size  Location     Type
  2494 ;;                  1    wreg      void 
  2495 ;; Registers used:
  2496 ;;		wreg, fsr2l, fsr2h, status,2, status,0, prodl, prodh, cstack
  2497 ;; Tracked objects:
  2498 ;;		On entry : 0/0
  2499 ;;		On exit  : 0/0
  2500 ;;		Unchanged: 0/0
  2501 ;; Data sizes:     COMRAM   BANK0   BANK1   BANK2   BANK3   BANK4   BANK5   BANK6   BANK7   BANK8   BANK9  BANK10  BANK1
      +1  BANK12  BANK13  BANK14  BANK15
  2502 ;;      Params:         0       0       0       0       0       0       0       0       0       0       0       0       
      +0       0       0       0       0
  2503 ;;      Locals:         0       0       0       0       0       0       0       0       0       0       0       0       
      +0       0       0       0       0
  2504 ;;      Temps:          0       0       0       0       0       0       0       0       0       0       0       0       
      +0       0       0       0       0
  2505 ;;      Totals:         0       0       0       0       0       0       0       0       0       0       0       0       
      +0       0       0       0       0
  2506 ;;Total ram usage:        0 bytes
  2507 ;; Hardware stack levels used: 1
  2508 ;; Hardware stack levels required when called: 2
  2509 ;; This function calls:
  2510 ;;		_led_turn_off
  2511 ;; This function is called by:
  2512 ;;		_RB4_ISR
  2513 ;;		_RB5_ISR
  2514 ;;		_RB6_ISR
  2515 ;;		_RB7_ISR
  2516 ;; This function uses a non-reentrant model
  2517 ;;
  2518                           
  2519                           	psect	text12
  2520   001BCA                     __ptext12:
  2521                           	callstack 0
  2522   001BCA                     _rb5_isr_low:
  2523                           	callstack 23
  2524   001BCA                     
  2525                           ;appplication.c: 34:     ret = led_turn_off(&ld1);
  2526   001BCA  0E3E               	movlw	low _ld1
  2527   001BCC  6E65               	movwf	led_turn_off@led^0,c
  2528   001BCE  ECCE  F00C         	call	_led_turn_off	;wreg free
  2529   001BD2  0100               	movlb	0	; () banked
  2530   001BD4  6F8F               	movwf	_ret& (0+255),b
  2531   001BD6                     
  2532                           ; BSR set to: 0
  2533   001BD6  0012               	return		;funcret
  2534   001BD8                     __end_of_rb5_isr_low:
  2535                           	callstack 0
  2536                           
  2537 ;; *************** function _rb4_isr_low *****************
  2538 ;; Defined at:
  2539 ;;		line 25 in file "appplication.c"
  2540 ;; Parameters:    Size  Location     Type
  2541 ;;		None
  2542 ;; Auto vars:     Size  Location     Type
  2543 ;;		None
  2544 ;; Return value:  Size  Location     Type
  2545 ;;                  1    wreg      void 
  2546 ;; Registers used:
  2547 ;;		wreg, fsr2l, fsr2h, status,2, status,0, prodl, prodh, cstack
  2548 ;; Tracked objects:
  2549 ;;		On entry : 0/0
  2550 ;;		On exit  : 0/0
  2551 ;;		Unchanged: 0/0
  2552 ;; Data sizes:     COMRAM   BANK0   BANK1   BANK2   BANK3   BANK4   BANK5   BANK6   BANK7   BANK8   BANK9  BANK10  BANK1
      +1  BANK12  BANK13  BANK14  BANK15
  2553 ;;      Params:         0       0       0       0       0       0       0       0       0       0       0       0       
      +0       0       0       0       0
  2554 ;;      Locals:         0       0       0       0       0       0       0       0       0       0       0       0       
      +0       0       0       0       0
  2555 ;;      Temps:          0       0       0       0       0       0       0       0       0       0       0       0       
      +0       0       0       0       0
  2556 ;;      Totals:         0       0       0       0       0       0       0       0       0       0       0       0       
      +0       0       0       0       0
  2557 ;;Total ram usage:        0 bytes
  2558 ;; Hardware stack levels used: 1
  2559 ;; Hardware stack levels required when called: 2
  2560 ;; This function calls:
  2561 ;;		_led_turn_on
  2562 ;; This function is called by:
  2563 ;;		_RB4_ISR
  2564 ;;		_RB5_ISR
  2565 ;;		_RB6_ISR
  2566 ;;		_RB7_ISR
  2567 ;; This function uses a non-reentrant model
  2568 ;;
  2569                           
  2570                           	psect	text13
  2571   001BD8                     __ptext13:
  2572                           	callstack 0
  2573   001BD8                     _rb4_isr_low:
  2574                           	callstack 23
  2575   001BD8                     
  2576                           ;appplication.c: 26:     ret = led_turn_on(&ld2);
  2577   001BD8  0E3D               	movlw	low _ld2
  2578   001BDA  6E65               	movwf	led_turn_on@led^0,c
  2579   001BDC  EC08  F00D         	call	_led_turn_on	;wreg free
  2580   001BE0  0100               	movlb	0	; () banked
  2581   001BE2  6F8F               	movwf	_ret& (0+255),b
  2582   001BE4                     
  2583                           ; BSR set to: 0
  2584   001BE4  0012               	return		;funcret
  2585   001BE6                     __end_of_rb4_isr_low:
  2586                           	callstack 0
  2587                           
  2588 ;; *************** function _rb7_isr_low *****************
  2589 ;; Defined at:
  2590 ;;		line 50 in file "appplication.c"
  2591 ;; Parameters:    Size  Location     Type
  2592 ;;		None
  2593 ;; Auto vars:     Size  Location     Type
  2594 ;;		None
  2595 ;; Return value:  Size  Location     Type
  2596 ;;                  1    wreg      void 
  2597 ;; Registers used:
  2598 ;;		wreg, fsr2l, fsr2h, status,2, status,0, prodl, prodh, cstack
  2599 ;; Tracked objects:
  2600 ;;		On entry : 0/0
  2601 ;;		On exit  : 0/0
  2602 ;;		Unchanged: 0/0
  2603 ;; Data sizes:     COMRAM   BANK0   BANK1   BANK2   BANK3   BANK4   BANK5   BANK6   BANK7   BANK8   BANK9  BANK10  BANK1
      +1  BANK12  BANK13  BANK14  BANK15
  2604 ;;      Params:         0       0       0       0       0       0       0       0       0       0       0       0       
      +0       0       0       0       0
  2605 ;;      Locals:         0       0       0       0       0       0       0       0       0       0       0       0       
      +0       0       0       0       0
  2606 ;;      Temps:          0       0       0       0       0       0       0       0       0       0       0       0       
      +0       0       0       0       0
  2607 ;;      Totals:         0       0       0       0       0       0       0       0       0       0       0       0       
      +0       0       0       0       0
  2608 ;;Total ram usage:        0 bytes
  2609 ;; Hardware stack levels used: 1
  2610 ;; Hardware stack levels required when called: 2
  2611 ;; This function calls:
  2612 ;;		_led_turn_off
  2613 ;; This function is called by:
  2614 ;;		_RB4_ISR
  2615 ;;		_RB5_ISR
  2616 ;;		_RB6_ISR
  2617 ;;		_RB7_ISR
  2618 ;; This function uses a non-reentrant model
  2619 ;;
  2620                           
  2621                           	psect	text14
  2622   001BE6                     __ptext14:
  2623                           	callstack 0
  2624   001BE6                     _rb7_isr_low:
  2625                           	callstack 23
  2626   001BE6                     
  2627                           ;appplication.c: 51:     ret = led_turn_off(&ld4);
  2628   001BE6  0E3B               	movlw	low _ld4
  2629   001BE8  6E65               	movwf	led_turn_off@led^0,c
  2630   001BEA  ECCE  F00C         	call	_led_turn_off	;wreg free
  2631   001BEE  0100               	movlb	0	; () banked
  2632   001BF0  6F8F               	movwf	_ret& (0+255),b
  2633   001BF2                     
  2634                           ; BSR set to: 0
  2635   001BF2  0012               	return		;funcret
  2636   001BF4                     __end_of_rb7_isr_low:
  2637                           	callstack 0
  2638                           
  2639 ;; *************** function _rb6_isr_high *****************
  2640 ;; Defined at:
  2641 ;;		line 38 in file "appplication.c"
  2642 ;; Parameters:    Size  Location     Type
  2643 ;;		None
  2644 ;; Auto vars:     Size  Location     Type
  2645 ;;		None
  2646 ;; Return value:  Size  Location     Type
  2647 ;;                  1    wreg      void 
  2648 ;; Registers used:
  2649 ;;		wreg, fsr2l, fsr2h, status,2, status,0, prodl, prodh, cstack
  2650 ;; Tracked objects:
  2651 ;;		On entry : 0/0
  2652 ;;		On exit  : 0/0
  2653 ;;		Unchanged: 0/0
  2654 ;; Data sizes:     COMRAM   BANK0   BANK1   BANK2   BANK3   BANK4   BANK5   BANK6   BANK7   BANK8   BANK9  BANK10  BANK1
      +1  BANK12  BANK13  BANK14  BANK15
  2655 ;;      Params:         0       0       0       0       0       0       0       0       0       0       0       0       
      +0       0       0       0       0
  2656 ;;      Locals:         0       0       0       0       0       0       0       0       0       0       0       0       
      +0       0       0       0       0
  2657 ;;      Temps:          0       0       0       0       0       0       0       0       0       0       0       0       
      +0       0       0       0       0
  2658 ;;      Totals:         0       0       0       0       0       0       0       0       0       0       0       0       
      +0       0       0       0       0
  2659 ;;Total ram usage:        0 bytes
  2660 ;; Hardware stack levels used: 1
  2661 ;; Hardware stack levels required when called: 2
  2662 ;; This function calls:
  2663 ;;		_led_turn_on
  2664 ;; This function is called by:
  2665 ;;		_RB4_ISR
  2666 ;;		_RB5_ISR
  2667 ;;		_RB6_ISR
  2668 ;;		_RB7_ISR
  2669 ;; This function uses a non-reentrant model
  2670 ;;
  2671                           
  2672                           	psect	text15
  2673   001BF4                     __ptext15:
  2674                           	callstack 0
  2675   001BF4                     _rb6_isr_high:
  2676                           	callstack 23
  2677   001BF4                     
  2678                           ;appplication.c: 39:     ret = led_turn_on(&ld3);
  2679   001BF4  0E3C               	movlw	low _ld3
  2680   001BF6  6E65               	movwf	led_turn_on@led^0,c
  2681   001BF8  EC08  F00D         	call	_led_turn_on	;wreg free
  2682   001BFC  0100               	movlb	0	; () banked
  2683   001BFE  6F8F               	movwf	_ret& (0+255),b
  2684   001C00                     
  2685                           ; BSR set to: 0
  2686   001C00  0012               	return		;funcret
  2687   001C02                     __end_of_rb6_isr_high:
  2688                           	callstack 0
  2689                           
  2690 ;; *************** function _rb5_isr_high *****************
  2691 ;; Defined at:
  2692 ;;		line 29 in file "appplication.c"
  2693 ;; Parameters:    Size  Location     Type
  2694 ;;		None
  2695 ;; Auto vars:     Size  Location     Type
  2696 ;;		None
  2697 ;; Return value:  Size  Location     Type
  2698 ;;                  1    wreg      void 
  2699 ;; Registers used:
  2700 ;;		wreg, fsr2l, fsr2h, status,2, status,0, prodl, prodh, cstack
  2701 ;; Tracked objects:
  2702 ;;		On entry : 0/0
  2703 ;;		On exit  : 0/0
  2704 ;;		Unchanged: 0/0
  2705 ;; Data sizes:     COMRAM   BANK0   BANK1   BANK2   BANK3   BANK4   BANK5   BANK6   BANK7   BANK8   BANK9  BANK10  BANK1
      +1  BANK12  BANK13  BANK14  BANK15
  2706 ;;      Params:         0       0       0       0       0       0       0       0       0       0       0       0       
      +0       0       0       0       0
  2707 ;;      Locals:         0       0       0       0       0       0       0       0       0       0       0       0       
      +0       0       0       0       0
  2708 ;;      Temps:          0       0       0       0       0       0       0       0       0       0       0       0       
      +0       0       0       0       0
  2709 ;;      Totals:         0       0       0       0       0       0       0       0       0       0       0       0       
      +0       0       0       0       0
  2710 ;;Total ram usage:        0 bytes
  2711 ;; Hardware stack levels used: 1
  2712 ;; Hardware stack levels required when called: 2
  2713 ;; This function calls:
  2714 ;;		_led_turn_off
  2715 ;; This function is called by:
  2716 ;;		_RB4_ISR
  2717 ;;		_RB5_ISR
  2718 ;;		_RB6_ISR
  2719 ;;		_RB7_ISR
  2720 ;; This function uses a non-reentrant model
  2721 ;;
  2722                           
  2723                           	psect	text16
  2724   001C02                     __ptext16:
  2725                           	callstack 0
  2726   001C02                     _rb5_isr_high:
  2727                           	callstack 23
  2728   001C02                     
  2729                           ;appplication.c: 30:     ret = led_turn_off(&ld2);
  2730   001C02  0E3D               	movlw	low _ld2
  2731   001C04  6E65               	movwf	led_turn_off@led^0,c
  2732   001C06  ECCE  F00C         	call	_led_turn_off	;wreg free
  2733   001C0A  0100               	movlb	0	; () banked
  2734   001C0C  6F8F               	movwf	_ret& (0+255),b
  2735   001C0E                     
  2736                           ; BSR set to: 0
  2737   001C0E  0012               	return		;funcret
  2738   001C10                     __end_of_rb5_isr_high:
  2739                           	callstack 0
  2740                           
  2741 ;; *************** function _rb4_isr_high *****************
  2742 ;; Defined at:
  2743 ;;		line 21 in file "appplication.c"
  2744 ;; Parameters:    Size  Location     Type
  2745 ;;		None
  2746 ;; Auto vars:     Size  Location     Type
  2747 ;;		None
  2748 ;; Return value:  Size  Location     Type
  2749 ;;                  1    wreg      void 
  2750 ;; Registers used:
  2751 ;;		wreg, fsr2l, fsr2h, status,2, status,0, prodl, prodh, cstack
  2752 ;; Tracked objects:
  2753 ;;		On entry : 0/0
  2754 ;;		On exit  : 0/0
  2755 ;;		Unchanged: 0/0
  2756 ;; Data sizes:     COMRAM   BANK0   BANK1   BANK2   BANK3   BANK4   BANK5   BANK6   BANK7   BANK8   BANK9  BANK10  BANK1
      +1  BANK12  BANK13  BANK14  BANK15
  2757 ;;      Params:         0       0       0       0       0       0       0       0       0       0       0       0       
      +0       0       0       0       0
  2758 ;;      Locals:         0       0       0       0       0       0       0       0       0       0       0       0       
      +0       0       0       0       0
  2759 ;;      Temps:          0       0       0       0       0       0       0       0       0       0       0       0       
      +0       0       0       0       0
  2760 ;;      Totals:         0       0       0       0       0       0       0       0       0       0       0       0       
      +0       0       0       0       0
  2761 ;;Total ram usage:        0 bytes
  2762 ;; Hardware stack levels used: 1
  2763 ;; Hardware stack levels required when called: 2
  2764 ;; This function calls:
  2765 ;;		_led_turn_on
  2766 ;; This function is called by:
  2767 ;;		_RB4_ISR
  2768 ;;		_RB5_ISR
  2769 ;;		_RB6_ISR
  2770 ;;		_RB7_ISR
  2771 ;; This function uses a non-reentrant model
  2772 ;;
  2773                           
  2774                           	psect	text17
  2775   001C10                     __ptext17:
  2776                           	callstack 0
  2777   001C10                     _rb4_isr_high:
  2778                           	callstack 23
  2779   001C10                     
  2780                           ;appplication.c: 22:     ret = led_turn_on(&ld1);
  2781   001C10  0E3E               	movlw	low _ld1
  2782   001C12  6E65               	movwf	led_turn_on@led^0,c
  2783   001C14  EC08  F00D         	call	_led_turn_on	;wreg free
  2784   001C18  0100               	movlb	0	; () banked
  2785   001C1A  6F8F               	movwf	_ret& (0+255),b
  2786   001C1C                     
  2787                           ; BSR set to: 0
  2788   001C1C  0012               	return		;funcret
  2789   001C1E                     __end_of_rb4_isr_high:
  2790                           	callstack 0
  2791                           
  2792 ;; *************** function _rb7_isr_high *****************
  2793 ;; Defined at:
  2794 ;;		line 46 in file "appplication.c"
  2795 ;; Parameters:    Size  Location     Type
  2796 ;;		None
  2797 ;; Auto vars:     Size  Location     Type
  2798 ;;		None
  2799 ;; Return value:  Size  Location     Type
  2800 ;;                  1    wreg      void 
  2801 ;; Registers used:
  2802 ;;		wreg, fsr2l, fsr2h, status,2, status,0, prodl, prodh, cstack
  2803 ;; Tracked objects:
  2804 ;;		On entry : 0/0
  2805 ;;		On exit  : 0/0
  2806 ;;		Unchanged: 0/0
  2807 ;; Data sizes:     COMRAM   BANK0   BANK1   BANK2   BANK3   BANK4   BANK5   BANK6   BANK7   BANK8   BANK9  BANK10  BANK1
      +1  BANK12  BANK13  BANK14  BANK15
  2808 ;;      Params:         0       0       0       0       0       0       0       0       0       0       0       0       
      +0       0       0       0       0
  2809 ;;      Locals:         0       0       0       0       0       0       0       0       0       0       0       0       
      +0       0       0       0       0
  2810 ;;      Temps:          0       0       0       0       0       0       0       0       0       0       0       0       
      +0       0       0       0       0
  2811 ;;      Totals:         0       0       0       0       0       0       0       0       0       0       0       0       
      +0       0       0       0       0
  2812 ;;Total ram usage:        0 bytes
  2813 ;; Hardware stack levels used: 1
  2814 ;; Hardware stack levels required when called: 2
  2815 ;; This function calls:
  2816 ;;		_led_turn_off
  2817 ;; This function is called by:
  2818 ;;		_RB4_ISR
  2819 ;;		_RB5_ISR
  2820 ;;		_RB6_ISR
  2821 ;;		_RB7_ISR
  2822 ;; This function uses a non-reentrant model
  2823 ;;
  2824                           
  2825                           	psect	text18
  2826   001C1E                     __ptext18:
  2827                           	callstack 0
  2828   001C1E                     _rb7_isr_high:
  2829                           	callstack 23
  2830   001C1E                     
  2831                           ;appplication.c: 47:     ret = led_turn_off(&ld3);
  2832   001C1E  0E3C               	movlw	low _ld3
  2833   001C20  6E65               	movwf	led_turn_off@led^0,c
  2834   001C22  ECCE  F00C         	call	_led_turn_off	;wreg free
  2835   001C26  0100               	movlb	0	; () banked
  2836   001C28  6F8F               	movwf	_ret& (0+255),b
  2837   001C2A                     
  2838                           ; BSR set to: 0
  2839   001C2A  0012               	return		;funcret
  2840   001C2C                     __end_of_rb7_isr_high:
  2841                           	callstack 0
  2842                           
  2843 ;; *************** function _led_turn_off *****************
  2844 ;; Defined at:
  2845 ;;		line 63 in file "ECU_Layer/LED/ecu_led.c"
  2846 ;; Parameters:    Size  Location     Type
  2847 ;;  led             1    7[COMRAM] PTR const struct .
  2848 ;;		 -> ld4(1), ld3(1), ld2(1), ld1(1), 
  2849 ;; Auto vars:     Size  Location     Type
  2850 ;;  pin_obj         1   10[COMRAM] struct .
  2851 ;;  ret             1    9[COMRAM] unsigned char 
  2852 ;; Return value:  Size  Location     Type
  2853 ;;                  1    wreg      unsigned char 
  2854 ;; Registers used:
  2855 ;;		wreg, fsr2l, fsr2h, status,2, status,0, prodl, prodh, cstack
  2856 ;; Tracked objects:
  2857 ;;		On entry : 0/0
  2858 ;;		On exit  : 0/0
  2859 ;;		Unchanged: 0/0
  2860 ;; Data sizes:     COMRAM   BANK0   BANK1   BANK2   BANK3   BANK4   BANK5   BANK6   BANK7   BANK8   BANK9  BANK10  BANK1
      +1  BANK12  BANK13  BANK14  BANK15
  2861 ;;      Params:         1       0       0       0       0       0       0       0       0       0       0       0       
      +0       0       0       0       0
  2862 ;;      Locals:         2       0       0       0       0       0       0       0       0       0       0       0       
      +0       0       0       0       0
  2863 ;;      Temps:          1       0       0       0       0       0       0       0       0       0       0       0       
      +0       0       0       0       0
  2864 ;;      Totals:         4       0       0       0       0       0       0       0       0       0       0       0       
      +0       0       0       0       0
  2865 ;;Total ram usage:        4 bytes
  2866 ;; Hardware stack levels used: 1
  2867 ;; Hardware stack levels required when called: 1
  2868 ;; This function calls:
  2869 ;;		i2_gpio_pin_write_logic
  2870 ;; This function is called by:
  2871 ;;		_rb5_isr_high
  2872 ;;		_rb5_isr_low
  2873 ;;		_rb7_isr_high
  2874 ;;		_rb7_isr_low
  2875 ;;		_program2
  2876 ;; This function uses a non-reentrant model
  2877 ;;
  2878                           
  2879                           	psect	text19
  2880   00199C                     __ptext19:
  2881                           	callstack 0
  2882   00199C                     _led_turn_off:
  2883                           	callstack 23
  2884   00199C                     
  2885                           ;ECU_Layer/LED/ecu_led.c: 64:     Std_ReturnType ret = (Std_ReturnType)0x01 ;
  2886   00199C  0E01               	movlw	1
  2887   00199E  6E67               	movwf	led_turn_off@ret^0,c
  2888                           
  2889                           ;ECU_Layer/LED/ecu_led.c: 65:     if(((void*)0) == led)
  2890   0019A0  5065               	movf	led_turn_off@led^0,w,c
  2891   0019A2  A4D8               	btfss	status,2,c
  2892   0019A4  EFD6  F00C         	goto	i2u343_41
  2893   0019A8  EFD8  F00C         	goto	i2u343_40
  2894   0019AC                     i2u343_41:
  2895   0019AC  EFDC  F00C         	goto	i2l288
  2896   0019B0                     i2u343_40:
  2897   0019B0                     
  2898                           ;ECU_Layer/LED/ecu_led.c: 66:     {;ECU_Layer/LED/ecu_led.c: 67:         ret = (Std_Retu
      +                          rnType)0x00;
  2899   0019B0  0E00               	movlw	0
  2900   0019B2  6E67               	movwf	led_turn_off@ret^0,c
  2901                           
  2902                           ;ECU_Layer/LED/ecu_led.c: 68:     }
  2903   0019B4  EF06  F00D         	goto	i2l4003
  2904   0019B8                     i2l288:
  2905                           
  2906                           ;ECU_Layer/LED/ecu_led.c: 70:     {;ECU_Layer/LED/ecu_led.c: 71:         pin_config_t pi
      +                          n_obj = { .port = led->port_name, .pin = led->pin ,
  2907   0019B8  C05B  F068         	movff	led_turn_off@F3068,led_turn_off@pin_obj
  2908   0019BC  5065               	movf	led_turn_off@led^0,w,c
  2909   0019BE  6ED9               	movwf	fsr2l,c
  2910   0019C0  6ADA               	clrf	fsr2h,c
  2911   0019C2  50DF               	movf	223,w,c
  2912   0019C4  0B0F               	andlw	15
  2913   0019C6  6E66               	movwf	??_led_turn_off^0,c
  2914   0019C8  5068               	movf	led_turn_off@pin_obj^0,w,c
  2915   0019CA  1866               	xorwf	??_led_turn_off^0,w,c
  2916   0019CC  0BF8               	andlw	-8
  2917   0019CE  1866               	xorwf	??_led_turn_off^0,w,c
  2918   0019D0  6E68               	movwf	led_turn_off@pin_obj^0,c
  2919   0019D2  5065               	movf	led_turn_off@led^0,w,c
  2920   0019D4  6ED9               	movwf	fsr2l,c
  2921   0019D6  6ADA               	clrf	fsr2h,c
  2922   0019D8  38DF               	swapf	223,w,c
  2923   0019DA  0B07               	andlw	7
  2924   0019DC  6E66               	movwf	??_led_turn_off^0,c
  2925   0019DE  4666               	rlncf	??_led_turn_off^0,f,c
  2926   0019E0  4666               	rlncf	??_led_turn_off^0,f,c
  2927   0019E2  4666               	rlncf	??_led_turn_off^0,f,c
  2928   0019E4  5068               	movf	led_turn_off@pin_obj^0,w,c
  2929   0019E6  1866               	xorwf	??_led_turn_off^0,w,c
  2930   0019E8  0BC7               	andlw	-57
  2931   0019EA  1866               	xorwf	??_led_turn_off^0,w,c
  2932   0019EC  6E68               	movwf	led_turn_off@pin_obj^0,c
  2933   0019EE  9C68               	bcf	led_turn_off@pin_obj^0,6,c
  2934   0019F0  5065               	movf	led_turn_off@led^0,w,c
  2935   0019F2  6ED9               	movwf	fsr2l,c
  2936   0019F4  6ADA               	clrf	fsr2h,c
  2937   0019F6  AEDF               	btfss	indf2,7,c
  2938   0019F8  D002               	bra	i2u344_45
  2939   0019FA  8E68               	bsf	led_turn_off@pin_obj^0,7,c
  2940   0019FC  D001               	bra	i2u344_47
  2941   0019FE                     i2u344_45:
  2942   0019FE  9E68               	bcf	led_turn_off@pin_obj^0,7,c
  2943   001A00                     i2u344_47:
  2944   001A00                     
  2945                           ;ECU_Layer/LED/ecu_led.c: 74:         gpio_pin_write_logic(&pin_obj, GPIO_LOW);
  2946   001A00  0E68               	movlw	low led_turn_off@pin_obj
  2947   001A02  6E5E               	movwf	i2gpio_pin_write_logic@_pin_config^0,c
  2948   001A04  0E00               	movlw	0
  2949   001A06  6E5F               	movwf	i2gpio_pin_write_logic@logic^0,c
  2950   001A08  EC14  F00B         	call	i2_gpio_pin_write_logic	;wreg free
  2951   001A0C                     i2l4003:
  2952                           
  2953                           ;ECU_Layer/LED/ecu_led.c: 76:     return ret;
  2954   001A0C  5067               	movf	led_turn_off@ret^0,w,c
  2955   001A0E  0012               	return		;funcret
  2956   001A10                     __end_of_led_turn_off:
  2957                           	callstack 0
  2958                           
  2959 ;; *************** function _led_turn_on *****************
  2960 ;; Defined at:
  2961 ;;		line 40 in file "ECU_Layer/LED/ecu_led.c"
  2962 ;; Parameters:    Size  Location     Type
  2963 ;;  led             1    7[COMRAM] PTR const struct .
  2964 ;;		 -> ld4(1), ld3(1), ld2(1), ld1(1), 
  2965 ;; Auto vars:     Size  Location     Type
  2966 ;;  pin_obj         1   10[COMRAM] struct .
  2967 ;;  ret             1    9[COMRAM] unsigned char 
  2968 ;; Return value:  Size  Location     Type
  2969 ;;                  1    wreg      unsigned char 
  2970 ;; Registers used:
  2971 ;;		wreg, fsr2l, fsr2h, status,2, status,0, prodl, prodh, cstack
  2972 ;; Tracked objects:
  2973 ;;		On entry : 0/0
  2974 ;;		On exit  : 0/0
  2975 ;;		Unchanged: 0/0
  2976 ;; Data sizes:     COMRAM   BANK0   BANK1   BANK2   BANK3   BANK4   BANK5   BANK6   BANK7   BANK8   BANK9  BANK10  BANK1
      +1  BANK12  BANK13  BANK14  BANK15
  2977 ;;      Params:         1       0       0       0       0       0       0       0       0       0       0       0       
      +0       0       0       0       0
  2978 ;;      Locals:         2       0       0       0       0       0       0       0       0       0       0       0       
      +0       0       0       0       0
  2979 ;;      Temps:          1       0       0       0       0       0       0       0       0       0       0       0       
      +0       0       0       0       0
  2980 ;;      Totals:         4       0       0       0       0       0       0       0       0       0       0       0       
      +0       0       0       0       0
  2981 ;;Total ram usage:        4 bytes
  2982 ;; Hardware stack levels used: 1
  2983 ;; Hardware stack levels required when called: 1
  2984 ;; This function calls:
  2985 ;;		i2_gpio_pin_write_logic
  2986 ;; This function is called by:
  2987 ;;		_rb4_isr_high
  2988 ;;		_rb4_isr_low
  2989 ;;		_rb6_isr_high
  2990 ;;		_rb6_isr_low
  2991 ;;		_program2
  2992 ;; This function uses a non-reentrant model
  2993 ;;
  2994                           
  2995                           	psect	text20
  2996   001A10                     __ptext20:
  2997                           	callstack 0
  2998   001A10                     _led_turn_on:
  2999                           	callstack 23
  3000   001A10                     
  3001                           ;ECU_Layer/LED/ecu_led.c: 41:     Std_ReturnType ret = (Std_ReturnType)0x01 ;
  3002   001A10  0E01               	movlw	1
  3003   001A12  6E67               	movwf	led_turn_on@ret^0,c
  3004                           
  3005                           ;ECU_Layer/LED/ecu_led.c: 42:     if(((void*)0) == led)
  3006   001A14  5065               	movf	led_turn_on@led^0,w,c
  3007   001A16  A4D8               	btfss	status,2,c
  3008   001A18  EF10  F00D         	goto	i2u341_41
  3009   001A1C  EF12  F00D         	goto	i2u341_40
  3010   001A20                     i2u341_41:
  3011   001A20  EF16  F00D         	goto	i2l281
  3012   001A24                     i2u341_40:
  3013   001A24                     
  3014                           ;ECU_Layer/LED/ecu_led.c: 43:     {;ECU_Layer/LED/ecu_led.c: 44:         ret = (Std_Retu
      +                          rnType)0x00;
  3015   001A24  0E00               	movlw	0
  3016   001A26  6E67               	movwf	led_turn_on@ret^0,c
  3017                           
  3018                           ;ECU_Layer/LED/ecu_led.c: 45:     }
  3019   001A28  EF40  F00D         	goto	i2l3987
  3020   001A2C                     i2l281:
  3021                           
  3022                           ;ECU_Layer/LED/ecu_led.c: 47:     {;ECU_Layer/LED/ecu_led.c: 48:         pin_config_t pi
      +                          n_obj = { .port = led->port_name, .pin = led->pin ,
  3023   001A2C  C05C  F068         	movff	led_turn_on@F3063,led_turn_on@pin_obj
  3024   001A30  5065               	movf	led_turn_on@led^0,w,c
  3025   001A32  6ED9               	movwf	fsr2l,c
  3026   001A34  6ADA               	clrf	fsr2h,c
  3027   001A36  50DF               	movf	223,w,c
  3028   001A38  0B0F               	andlw	15
  3029   001A3A  6E66               	movwf	??_led_turn_on^0,c
  3030   001A3C  5068               	movf	led_turn_on@pin_obj^0,w,c
  3031   001A3E  1866               	xorwf	??_led_turn_on^0,w,c
  3032   001A40  0BF8               	andlw	-8
  3033   001A42  1866               	xorwf	??_led_turn_on^0,w,c
  3034   001A44  6E68               	movwf	led_turn_on@pin_obj^0,c
  3035   001A46  5065               	movf	led_turn_on@led^0,w,c
  3036   001A48  6ED9               	movwf	fsr2l,c
  3037   001A4A  6ADA               	clrf	fsr2h,c
  3038   001A4C  38DF               	swapf	223,w,c
  3039   001A4E  0B07               	andlw	7
  3040   001A50  6E66               	movwf	??_led_turn_on^0,c
  3041   001A52  4666               	rlncf	??_led_turn_on^0,f,c
  3042   001A54  4666               	rlncf	??_led_turn_on^0,f,c
  3043   001A56  4666               	rlncf	??_led_turn_on^0,f,c
  3044   001A58  5068               	movf	led_turn_on@pin_obj^0,w,c
  3045   001A5A  1866               	xorwf	??_led_turn_on^0,w,c
  3046   001A5C  0BC7               	andlw	-57
  3047   001A5E  1866               	xorwf	??_led_turn_on^0,w,c
  3048   001A60  6E68               	movwf	led_turn_on@pin_obj^0,c
  3049   001A62  9C68               	bcf	led_turn_on@pin_obj^0,6,c
  3050   001A64  5065               	movf	led_turn_on@led^0,w,c
  3051   001A66  6ED9               	movwf	fsr2l,c
  3052   001A68  6ADA               	clrf	fsr2h,c
  3053   001A6A  AEDF               	btfss	indf2,7,c
  3054   001A6C  D002               	bra	i2u342_45
  3055   001A6E  8E68               	bsf	led_turn_on@pin_obj^0,7,c
  3056   001A70  D001               	bra	i2u342_47
  3057   001A72                     i2u342_45:
  3058   001A72  9E68               	bcf	led_turn_on@pin_obj^0,7,c
  3059   001A74                     i2u342_47:
  3060   001A74                     
  3061                           ;ECU_Layer/LED/ecu_led.c: 51:         gpio_pin_write_logic(&pin_obj, GPIO_HIGH);
  3062   001A74  0E68               	movlw	low led_turn_on@pin_obj
  3063   001A76  6E5E               	movwf	i2gpio_pin_write_logic@_pin_config^0,c
  3064   001A78  0E01               	movlw	1
  3065   001A7A  6E5F               	movwf	i2gpio_pin_write_logic@logic^0,c
  3066   001A7C  EC14  F00B         	call	i2_gpio_pin_write_logic	;wreg free
  3067   001A80                     i2l3987:
  3068                           
  3069                           ;ECU_Layer/LED/ecu_led.c: 53:     return ret;
  3070   001A80  5067               	movf	led_turn_on@ret^0,w,c
  3071   001A82  0012               	return		;funcret
  3072   001A84                     __end_of_led_turn_on:
  3073                           	callstack 0
  3074                           
  3075 ;; *************** function i2_gpio_pin_write_logic *****************
  3076 ;; Defined at:
  3077 ;;		line 78 in file "MCAL_Layer/GPIO/hal_gpio.c"
  3078 ;; Parameters:    Size  Location     Type
  3079 ;;  _pin_config     1    0[COMRAM] PTR struct .
  3080 ;;		 -> relay_turn_off@pin_obj(1), relay_turn_on@pin_obj(1), led_turn_off@pin_obj(1), led_turn_on@pin_obj(1), 
  3081 ;;		 -> led_initialize@pin_obj(1), 
  3082 ;;  logic           1    1[COMRAM] enum E2978
  3083 ;; Auto vars:     Size  Location     Type
  3084 ;;  ret             1    0        unsigned char 
  3085 ;; Return value:  Size  Location     Type
  3086 ;;                  1    wreg      unsigned char 
  3087 ;; Registers used:
  3088 ;;		wreg, fsr2l, fsr2h, status,2, status,0, prodl, prodh
  3089 ;; Tracked objects:
  3090 ;;		On entry : 0/0
  3091 ;;		On exit  : 0/0
  3092 ;;		Unchanged: 0/0
  3093 ;; Data sizes:     COMRAM   BANK0   BANK1   BANK2   BANK3   BANK4   BANK5   BANK6   BANK7   BANK8   BANK9  BANK10  BANK1
      +1  BANK12  BANK13  BANK14  BANK15
  3094 ;;      Params:         2       0       0       0       0       0       0       0       0       0       0       0       
      +0       0       0       0       0
  3095 ;;      Locals:         0       0       0       0       0       0       0       0       0       0       0       0       
      +0       0       0       0       0
  3096 ;;      Temps:          5       0       0       0       0       0       0       0       0       0       0       0       
      +0       0       0       0       0
  3097 ;;      Totals:         7       0       0       0       0       0       0       0       0       0       0       0       
      +0       0       0       0       0
  3098 ;;Total ram usage:        7 bytes
  3099 ;; Hardware stack levels used: 1
  3100 ;; This function calls:
  3101 ;;		Nothing
  3102 ;; This function is called by:
  3103 ;;		_led_turn_on
  3104 ;;		_led_turn_off
  3105 ;; This function uses a non-reentrant model
  3106 ;;
  3107                           
  3108                           	psect	text21
  3109   001628                     __ptext21:
  3110                           	callstack 0
  3111   001628                     i2_gpio_pin_write_logic:
  3112                           	callstack 23
  3113   001628                     
  3114                           ;MCAL_Layer/GPIO/hal_gpio.c: 80:     if(((void*)0) == _pin_config || _pin_config->pin > 
      +                          (8 - 1))
  3115   001628  505E               	movf	i2gpio_pin_write_logic@_pin_config^0,w,c
  3116   00162A  B4D8               	btfsc	status,2,c
  3117   00162C  EF1A  F00B         	goto	i2u327_41
  3118   001630  EF1C  F00B         	goto	i2u327_40
  3119   001634                     i2u327_41:
  3120   001634  EF2C  F00B         	goto	i2l3917
  3121   001638                     i2u327_40:
  3122   001638  505E               	movf	i2gpio_pin_write_logic@_pin_config^0,w,c
  3123   00163A  6ED9               	movwf	fsr2l,c
  3124   00163C  6ADA               	clrf	fsr2h,c
  3125   00163E  30DF               	rrcf	223,w,c
  3126   001640  32E8               	rrcf	wreg,f,c
  3127   001642  32E8               	rrcf	wreg,f,c
  3128   001644  0B07               	andlw	7
  3129   001646  6E60               	movwf	??i2_gpio_pin_write_logic^0,c
  3130   001648  0E07               	movlw	7
  3131   00164A  6460               	cpfsgt	??i2_gpio_pin_write_logic^0,c
  3132   00164C  EF2A  F00B         	goto	i2u328_41
  3133   001650  EF2C  F00B         	goto	i2u328_40
  3134   001654                     i2u328_41:
  3135   001654  EF81  F00B         	goto	i2l3925
  3136   001658                     i2u328_40:
  3137   001658                     i2l3917:
  3138                           
  3139                           ;MCAL_Layer/GPIO/hal_gpio.c: 83:     }
  3140   001658  EF96  F00B         	goto	i2l419
  3141   00165C                     i2l3919:
  3142                           
  3143                           ;MCAL_Layer/GPIO/hal_gpio.c: 89:                 (*lat_registers[_pin_config->port] &= ~
      +                          (((uint8)1) << _pin_config->pin));
  3144   00165C  505E               	movf	i2gpio_pin_write_logic@_pin_config^0,w,c
  3145   00165E  6ED9               	movwf	fsr2l,c
  3146   001660  6ADA               	clrf	fsr2h,c
  3147   001662  30DF               	rrcf	223,w,c
  3148   001664  32E8               	rrcf	wreg,f,c
  3149   001666  32E8               	rrcf	wreg,f,c
  3150   001668  0B07               	andlw	7
  3151   00166A  6E60               	movwf	??i2_gpio_pin_write_logic^0,c
  3152   00166C  0E01               	movlw	1
  3153   00166E  6E61               	movwf	(??i2_gpio_pin_write_logic+1)^0,c
  3154   001670  2A60               	incf	??i2_gpio_pin_write_logic^0,f,c
  3155   001672  EF3D  F00B         	goto	i2u329_44
  3156   001676                     i2u329_45:
  3157   001676  90D8               	bcf	status,0,c
  3158   001678  3661               	rlcf	(??i2_gpio_pin_write_logic+1)^0,f,c
  3159   00167A                     i2u329_44:
  3160   00167A  2E60               	decfsz	??i2_gpio_pin_write_logic^0,f,c
  3161   00167C  EF3B  F00B         	goto	i2u329_45
  3162   001680  5061               	movf	(??i2_gpio_pin_write_logic+1)^0,w,c
  3163   001682  0AFF               	xorlw	255
  3164   001684  6E62               	movwf	(??i2_gpio_pin_write_logic+2)^0,c
  3165   001686  505E               	movf	i2gpio_pin_write_logic@_pin_config^0,w,c
  3166   001688  6ED9               	movwf	fsr2l,c
  3167   00168A  6ADA               	clrf	fsr2h,c
  3168   00168C  50DF               	movf	223,w,c
  3169   00168E  0B07               	andlw	7
  3170   001690  0D02               	mullw	2
  3171   001692  50F3               	movf	243,w,c
  3172   001694  0F0B               	addlw	low _lat_registers
  3173   001696  6ED9               	movwf	fsr2l,c
  3174   001698  6ADA               	clrf	fsr2h,c
  3175   00169A  CFDE F063          	movff	postinc2,??i2_gpio_pin_write_logic+3
  3176   00169E  CFDD F064          	movff	postdec2,??i2_gpio_pin_write_logic+4
  3177   0016A2  C063  FFD9         	movff	??i2_gpio_pin_write_logic+3,fsr2l
  3178   0016A6  C064  FFDA         	movff	??i2_gpio_pin_write_logic+4,fsr2h
  3179   0016AA  5062               	movf	(??i2_gpio_pin_write_logic+2)^0,w,c
  3180   0016AC  16DF               	andwf	indf2,f,c
  3181                           
  3182                           ;MCAL_Layer/GPIO/hal_gpio.c: 90:                 break;
  3183   0016AE  EF96  F00B         	goto	i2l419
  3184   0016B2                     i2l3921:
  3185                           
  3186                           ;MCAL_Layer/GPIO/hal_gpio.c: 92:                 (*lat_registers[_pin_config->port] |= (
      +                          ((uint8)1) << _pin_config->pin));
  3187   0016B2  505E               	movf	i2gpio_pin_write_logic@_pin_config^0,w,c
  3188   0016B4  6ED9               	movwf	fsr2l,c
  3189   0016B6  6ADA               	clrf	fsr2h,c
  3190   0016B8  30DF               	rrcf	223,w,c
  3191   0016BA  32E8               	rrcf	wreg,f,c
  3192   0016BC  32E8               	rrcf	wreg,f,c
  3193   0016BE  0B07               	andlw	7
  3194   0016C0  6E60               	movwf	??i2_gpio_pin_write_logic^0,c
  3195   0016C2  0E01               	movlw	1
  3196   0016C4  6E61               	movwf	(??i2_gpio_pin_write_logic+1)^0,c
  3197   0016C6  2A60               	incf	??i2_gpio_pin_write_logic^0,f,c
  3198   0016C8  EF68  F00B         	goto	i2u330_44
  3199   0016CC                     i2u330_45:
  3200   0016CC  90D8               	bcf	status,0,c
  3201   0016CE  3661               	rlcf	(??i2_gpio_pin_write_logic+1)^0,f,c
  3202   0016D0                     i2u330_44:
  3203   0016D0  2E60               	decfsz	??i2_gpio_pin_write_logic^0,f,c
  3204   0016D2  EF66  F00B         	goto	i2u330_45
  3205   0016D6  505E               	movf	i2gpio_pin_write_logic@_pin_config^0,w,c
  3206   0016D8  6ED9               	movwf	fsr2l,c
  3207   0016DA  6ADA               	clrf	fsr2h,c
  3208   0016DC  50DF               	movf	223,w,c
  3209   0016DE  0B07               	andlw	7
  3210   0016E0  0D02               	mullw	2
  3211   0016E2  50F3               	movf	243,w,c
  3212   0016E4  0F0B               	addlw	low _lat_registers
  3213   0016E6  6ED9               	movwf	fsr2l,c
  3214   0016E8  6ADA               	clrf	fsr2h,c
  3215   0016EA  CFDE F062          	movff	postinc2,??i2_gpio_pin_write_logic+2
  3216   0016EE  CFDD F063          	movff	postdec2,??i2_gpio_pin_write_logic+3
  3217   0016F2  C062  FFD9         	movff	??i2_gpio_pin_write_logic+2,fsr2l
  3218   0016F6  C063  FFDA         	movff	??i2_gpio_pin_write_logic+3,fsr2h
  3219   0016FA  5061               	movf	(??i2_gpio_pin_write_logic+1)^0,w,c
  3220   0016FC  12DF               	iorwf	indf2,f,c
  3221                           
  3222                           ;MCAL_Layer/GPIO/hal_gpio.c: 93:                 break;
  3223   0016FE  EF96  F00B         	goto	i2l419
  3224   001702                     i2l3925:
  3225   001702  505F               	movf	i2gpio_pin_write_logic@logic^0,w,c
  3226   001704  6E60               	movwf	??i2_gpio_pin_write_logic^0,c
  3227   001706  6A61               	clrf	(??i2_gpio_pin_write_logic+1)^0,c
  3228                           
  3229                           ; Switch on 2 bytes has been partitioned into a top level switch of size 1, and 1 sub-sw
      +                          itches
  3230                           ; Switch size 1, requested type "simple"
  3231                           ; Number of cases is 1, Range of values is 0 to 0
  3232                           ; switch strategies available:
  3233                           ; Name         Instructions Cycles
  3234                           ; simple_byte            4     3 (average)
  3235                           ;	Chosen strategy is simple_byte
  3236   001708  5061               	movf	(??i2_gpio_pin_write_logic+1)^0,w,c
  3237   00170A  0A00               	xorlw	0	; case 0
  3238   00170C  B4D8               	btfsc	status,2,c
  3239   00170E  EF8B  F00B         	goto	i2l4955
  3240   001712  EF2C  F00B         	goto	i2l3917
  3241   001716                     i2l4955:
  3242                           
  3243                           ; Switch size 1, requested type "simple"
  3244                           ; Number of cases is 2, Range of values is 0 to 1
  3245                           ; switch strategies available:
  3246                           ; Name         Instructions Cycles
  3247                           ; simple_byte            7     4 (average)
  3248                           ;	Chosen strategy is simple_byte
  3249   001716  5060               	movf	??i2_gpio_pin_write_logic^0,w,c
  3250   001718  0A00               	xorlw	0	; case 0
  3251   00171A  B4D8               	btfsc	status,2,c
  3252   00171C  EF2E  F00B         	goto	i2l3919
  3253   001720  0A01               	xorlw	1	; case 1
  3254   001722  B4D8               	btfsc	status,2,c
  3255   001724  EF59  F00B         	goto	i2l3921
  3256   001728  EF2C  F00B         	goto	i2l3917
  3257   00172C                     i2l419:
  3258   00172C  0012               	return		;funcret
  3259   00172E                     __end_ofi2_gpio_pin_write_logic:
  3260                           	callstack 0
  3261                           
  3262 ;; *************** function _INT2_ISR *****************
  3263 ;; Defined at:
  3264 ;;		line 93 in file "MCAL_Layer/Interrupt/mcal_external_interrup.c"
  3265 ;; Parameters:    Size  Location     Type
  3266 ;;		None
  3267 ;; Auto vars:     Size  Location     Type
  3268 ;;		None
  3269 ;; Return value:  Size  Location     Type
  3270 ;;                  1    wreg      void 
  3271 ;; Registers used:
  3272 ;;		None
  3273 ;; Tracked objects:
  3274 ;;		On entry : 0/0
  3275 ;;		On exit  : 0/0
  3276 ;;		Unchanged: 0/0
  3277 ;; Data sizes:     COMRAM   BANK0   BANK1   BANK2   BANK3   BANK4   BANK5   BANK6   BANK7   BANK8   BANK9  BANK10  BANK1
      +1  BANK12  BANK13  BANK14  BANK15
  3278 ;;      Params:         0       0       0       0       0       0       0       0       0       0       0       0       
      +0       0       0       0       0
  3279 ;;      Locals:         0       0       0       0       0       0       0       0       0       0       0       0       
      +0       0       0       0       0
  3280 ;;      Temps:          0       0       0       0       0       0       0       0       0       0       0       0       
      +0       0       0       0       0
  3281 ;;      Totals:         0       0       0       0       0       0       0       0       0       0       0       0       
      +0       0       0       0       0
  3282 ;;Total ram usage:        0 bytes
  3283 ;; Hardware stack levels used: 1
  3284 ;; This function calls:
  3285 ;;		Nothing
  3286 ;; This function is called by:
  3287 ;;		_InterruptManager
  3288 ;; This function uses a non-reentrant model
  3289 ;;
  3290                           
  3291                           	psect	text22
  3292   001C2C                     __ptext22:
  3293                           	callstack 0
  3294   001C2C                     _INT2_ISR:
  3295                           	callstack 26
  3296   001C2C                     
  3297                           ;MCAL_Layer/Interrupt/mcal_external_interrup.c: 96:     (INTCON3bits.INT2IF = 0);
  3298   001C2C  92F0               	bcf	240,1,c	;volatile
  3299   001C2E  0012               	return		;funcret
  3300   001C30                     __end_of_INT2_ISR:
  3301                           	callstack 0
  3302                           
  3303 ;; *************** function _INT1_ISR *****************
  3304 ;; Defined at:
  3305 ;;		line 81 in file "MCAL_Layer/Interrupt/mcal_external_interrup.c"
  3306 ;; Parameters:    Size  Location     Type
  3307 ;;		None
  3308 ;; Auto vars:     Size  Location     Type
  3309 ;;		None
  3310 ;; Return value:  Size  Location     Type
  3311 ;;                  1    wreg      void 
  3312 ;; Registers used:
  3313 ;;		None
  3314 ;; Tracked objects:
  3315 ;;		On entry : 0/0
  3316 ;;		On exit  : 0/0
  3317 ;;		Unchanged: 0/0
  3318 ;; Data sizes:     COMRAM   BANK0   BANK1   BANK2   BANK3   BANK4   BANK5   BANK6   BANK7   BANK8   BANK9  BANK10  BANK1
      +1  BANK12  BANK13  BANK14  BANK15
  3319 ;;      Params:         0       0       0       0       0       0       0       0       0       0       0       0       
      +0       0       0       0       0
  3320 ;;      Locals:         0       0       0       0       0       0       0       0       0       0       0       0       
      +0       0       0       0       0
  3321 ;;      Temps:          0       0       0       0       0       0       0       0       0       0       0       0       
      +0       0       0       0       0
  3322 ;;      Totals:         0       0       0       0       0       0       0       0       0       0       0       0       
      +0       0       0       0       0
  3323 ;;Total ram usage:        0 bytes
  3324 ;; Hardware stack levels used: 1
  3325 ;; This function calls:
  3326 ;;		Nothing
  3327 ;; This function is called by:
  3328 ;;		_InterruptManager
  3329 ;; This function uses a non-reentrant model
  3330 ;;
  3331                           
  3332                           	psect	text23
  3333   001C30                     __ptext23:
  3334                           	callstack 0
  3335   001C30                     _INT1_ISR:
  3336                           	callstack 26
  3337   001C30                     
  3338                           ;MCAL_Layer/Interrupt/mcal_external_interrup.c: 84:     (INTCON3bits.INT1IF = 0);
  3339   001C30  90F0               	bcf	240,0,c	;volatile
  3340   001C32  0012               	return		;funcret
  3341   001C34                     __end_of_INT1_ISR:
  3342                           	callstack 0
  3343                           
  3344 ;; *************** function _INT0_ISR *****************
  3345 ;; Defined at:
  3346 ;;		line 70 in file "MCAL_Layer/Interrupt/mcal_external_interrup.c"
  3347 ;; Parameters:    Size  Location     Type
  3348 ;;		None
  3349 ;; Auto vars:     Size  Location     Type
  3350 ;;		None
  3351 ;; Return value:  Size  Location     Type
  3352 ;;                  1    wreg      void 
  3353 ;; Registers used:
  3354 ;;		None
  3355 ;; Tracked objects:
  3356 ;;		On entry : 0/0
  3357 ;;		On exit  : 0/0
  3358 ;;		Unchanged: 0/0
  3359 ;; Data sizes:     COMRAM   BANK0   BANK1   BANK2   BANK3   BANK4   BANK5   BANK6   BANK7   BANK8   BANK9  BANK10  BANK1
      +1  BANK12  BANK13  BANK14  BANK15
  3360 ;;      Params:         0       0       0       0       0       0       0       0       0       0       0       0       
      +0       0       0       0       0
  3361 ;;      Locals:         0       0       0       0       0       0       0       0       0       0       0       0       
      +0       0       0       0       0
  3362 ;;      Temps:          0       0       0       0       0       0       0       0       0       0       0       0       
      +0       0       0       0       0
  3363 ;;      Totals:         0       0       0       0       0       0       0       0       0       0       0       0       
      +0       0       0       0       0
  3364 ;;Total ram usage:        0 bytes
  3365 ;; Hardware stack levels used: 1
  3366 ;; This function calls:
  3367 ;;		Nothing
  3368 ;; This function is called by:
  3369 ;;		_InterruptManager
  3370 ;; This function uses a non-reentrant model
  3371 ;;
  3372                           
  3373                           	psect	text24
  3374   001C34                     __ptext24:
  3375                           	callstack 0
  3376   001C34                     _INT0_ISR:
  3377                           	callstack 26
  3378   001C34                     
  3379                           ;MCAL_Layer/Interrupt/mcal_external_interrup.c: 73:     (INTCONbits.INT0IF = 0);
  3380   001C34  92F2               	bcf	242,1,c	;volatile
  3381   001C36  0012               	return		;funcret
  3382   001C38                     __end_of_INT0_ISR:
  3383                           	callstack 0
  3384                           
  3385                           	psect	text25
  3386   000000                     __ptext25:
  3387                           	callstack 0
  3388   000000                     
  3389                           	psect	rparam
  3390   000000                     
  3391                           	psect	temp
  3392   000070                     btemp:
  3393                           	callstack 0
  3394   000070                     	ds	1
  3395   000000                     int$flags	set	btemp
  3396   000000                     wtemp8	set	btemp+1
  3397   000000                     ttemp5	set	btemp+1
  3398   000000                     ttemp6	set	btemp+4
  3399   000000                     ttemp7	set	btemp+8
  3400                           
  3401                           	psect	config
  3402                           
  3403                           ; Padding undefined space
  3404   300000                     	org	3145728
  3405   300000  FF                 	db	255
  3406                           
  3407                           ;Config register CONFIG1H @ 0x300001
  3408                           ;	Oscillator Selection bits
  3409                           ;	OSC = HS, HS oscillator
  3410                           ;	Fail-Safe Clock Monitor Enable bit
  3411                           ;	FCMEN = OFF, Fail-Safe Clock Monitor disabled
  3412                           ;	Internal/External Oscillator Switchover bit
  3413                           ;	IESO = OFF, Oscillator Switchover mode disabled
  3414   300001                     	org	3145729
  3415   300001  02                 	db	2
  3416                           
  3417                           ;Config register CONFIG2L @ 0x300002
  3418                           ;	Power-up Timer Enable bit
  3419                           ;	PWRT = OFF, PWRT disabled
  3420                           ;	Brown-out Reset Enable bits
  3421                           ;	BOREN = OFF, Brown-out Reset disabled in hardware and software
  3422                           ;	Brown Out Reset Voltage bits
  3423                           ;	BORV = 1, 
  3424   300002                     	org	3145730
  3425   300002  09                 	db	9
  3426                           
  3427                           ;Config register CONFIG2H @ 0x300003
  3428                           ;	Watchdog Timer Enable bit
  3429                           ;	WDT = OFF, WDT disabled (control is placed on the SWDTEN bit)
  3430                           ;	Watchdog Timer Postscale Select bits
  3431                           ;	WDTPS = 32768, 1:32768
  3432   300003                     	org	3145731
  3433   300003  1E                 	db	30
  3434                           
  3435                           ; Padding undefined space
  3436   300004                     	org	3145732
  3437   300004  FF                 	db	255
  3438                           
  3439                           ;Config register CONFIG3H @ 0x300005
  3440                           ;	CCP2 MUX bit
  3441                           ;	CCP2MX = PORTC, CCP2 input/output is multiplexed with RC1
  3442                           ;	PORTB A/D Enable bit
  3443                           ;	PBADEN = OFF, PORTB<4:0> pins are configured as digital I/O on Reset
  3444                           ;	Low-Power Timer1 Oscillator Enable bit
  3445                           ;	LPT1OSC = OFF, Timer1 configured for higher power operation
  3446                           ;	MCLR Pin Enable bit
  3447                           ;	MCLRE = ON, MCLR pin enabled; RE3 input pin disabled
  3448   300005                     	org	3145733
  3449   300005  81                 	db	129
  3450                           
  3451                           ;Config register CONFIG4L @ 0x300006
  3452                           ;	Stack Full/Underflow Reset Enable bit
  3453                           ;	STVREN = ON, Stack full/underflow will cause Reset
  3454                           ;	Single-Supply ICSP Enable bit
  3455                           ;	LVP = OFF, Single-Supply ICSP disabled
  3456                           ;	Extended Instruction Set Enable bit
  3457                           ;	XINST = OFF, Instruction set extension and Indexed Addressing mode disabled (Legacy mo
      +                          de)
  3458                           ;	Background Debugger Enable bit
  3459                           ;	DEBUG = 0x1, unprogrammed default
  3460   300006                     	org	3145734
  3461   300006  81                 	db	129
  3462                           
  3463                           ; Padding undefined space
  3464   300007                     	org	3145735
  3465   300007  FF                 	db	255
  3466                           
  3467                           ;Config register CONFIG5L @ 0x300008
  3468                           ;	Code Protection bit
  3469                           ;	CP0 = OFF, Block 0 (000800-003FFFh) not code-protected
  3470                           ;	Code Protection bit
  3471                           ;	CP1 = OFF, Block 1 (004000-007FFFh) not code-protected
  3472                           ;	Code Protection bit
  3473                           ;	CP2 = OFF, Block 2 (008000-00BFFFh) not code-protected
  3474                           ;	Code Protection bit
  3475                           ;	CP3 = OFF, Block 3 (00C000-00FFFFh) not code-protected
  3476   300008                     	org	3145736
  3477   300008  0F                 	db	15
  3478                           
  3479                           ;Config register CONFIG5H @ 0x300009
  3480                           ;	Boot Block Code Protection bit
  3481                           ;	CPB = OFF, Boot block (000000-0007FFh) not code-protected
  3482                           ;	Data EEPROM Code Protection bit
  3483                           ;	CPD = OFF, Data EEPROM not code-protected
  3484   300009                     	org	3145737
  3485   300009  C0                 	db	192
  3486                           
  3487                           ;Config register CONFIG6L @ 0x30000A
  3488                           ;	Write Protection bit
  3489                           ;	WRT0 = OFF, Block 0 (000800-003FFFh) not write-protected
  3490                           ;	Write Protection bit
  3491                           ;	WRT1 = OFF, Block 1 (004000-007FFFh) not write-protected
  3492                           ;	Write Protection bit
  3493                           ;	WRT2 = OFF, Block 2 (008000-00BFFFh) not write-protected
  3494                           ;	Write Protection bit
  3495                           ;	WRT3 = OFF, Block 3 (00C000-00FFFFh) not write-protected
  3496   30000A                     	org	3145738
  3497   30000A  0F                 	db	15
  3498                           
  3499                           ;Config register CONFIG6H @ 0x30000B
  3500                           ;	Configuration Register Write Protection bit
  3501                           ;	WRTC = OFF, Configuration registers (300000-3000FFh) not write-protected
  3502                           ;	Boot Block Write Protection bit
  3503                           ;	WRTB = OFF, Boot Block (000000-0007FFh) not write-protected
  3504                           ;	Data EEPROM Write Protection bit
  3505                           ;	WRTD = OFF, Data EEPROM not write-protected
  3506   30000B                     	org	3145739
  3507   30000B  E0                 	db	224
  3508                           
  3509                           ;Config register CONFIG7L @ 0x30000C
  3510                           ;	Table Read Protection bit
  3511                           ;	EBTR0 = OFF, Block 0 (000800-003FFFh) not protected from table reads executed in other
      +                           blocks
  3512                           ;	Table Read Protection bit
  3513                           ;	EBTR1 = OFF, Block 1 (004000-007FFFh) not protected from table reads executed in other
      +                           blocks
  3514                           ;	Table Read Protection bit
  3515                           ;	EBTR2 = OFF, Block 2 (008000-00BFFFh) not protected from table reads executed in other
      +                           blocks
  3516                           ;	Table Read Protection bit
  3517                           ;	EBTR3 = OFF, Block 3 (00C000-00FFFFh) not protected from table reads executed in other
      +                           blocks
  3518   30000C                     	org	3145740
  3519   30000C  0F                 	db	15
  3520                           
  3521                           ;Config register CONFIG7H @ 0x30000D
  3522                           ;	Boot Block Table Read Protection bit
  3523                           ;	EBTRB = OFF, Boot Block (000000-0007FFh) not protected from table reads executed in ot
      +                          her blocks
  3524   30000D                     	org	3145741
  3525   30000D  40                 	db	64
  3526                           tosu	equ	0xFFF
  3527                           tosh	equ	0xFFE
  3528                           tosl	equ	0xFFD
  3529                           stkptr	equ	0xFFC
  3530                           pclatu	equ	0xFFB
  3531                           pclath	equ	0xFFA
  3532                           pcl	equ	0xFF9
  3533                           tblptru	equ	0xFF8
  3534                           tblptrh	equ	0xFF7
  3535                           tblptrl	equ	0xFF6
  3536                           tablat	equ	0xFF5
  3537                           prodh	equ	0xFF4
  3538                           prodl	equ	0xFF3
  3539                           indf0	equ	0xFEF
  3540                           postinc0	equ	0xFEE
  3541                           postdec0	equ	0xFED
  3542                           preinc0	equ	0xFEC
  3543                           plusw0	equ	0xFEB
  3544                           fsr0h	equ	0xFEA
  3545                           fsr0l	equ	0xFE9
  3546                           wreg	equ	0xFE8
  3547                           indf1	equ	0xFE7
  3548                           postinc1	equ	0xFE6
  3549                           postdec1	equ	0xFE5
  3550                           preinc1	equ	0xFE4
  3551                           plusw1	equ	0xFE3
  3552                           fsr1h	equ	0xFE2
  3553                           fsr1l	equ	0xFE1
  3554                           bsr	equ	0xFE0
  3555                           indf2	equ	0xFDF
  3556                           postinc2	equ	0xFDE
  3557                           postdec2	equ	0xFDD
  3558                           preinc2	equ	0xFDC
  3559                           plusw2	equ	0xFDB
  3560                           fsr2h	equ	0xFDA
  3561                           fsr2l	equ	0xFD9
  3562                           status	equ	0xFD8

Data Sizes:
    Strings     3
    Constant    16
    Data        62
    BSS         31
    Persistent  1
    Stack       0

Auto Spaces:
    Space          Size  Autos    Used
    COMRAM          126     18     111
    BANK0           128     15      16
    BANK1           256      0       0
    BANK2           256      0       0
    BANK3           256      0       0
    BANK4           256      0       0
    BANK5           256      0       0
    BANK6           256      0       0
    BANK7           256      0       0
    BANK8           256      0       0
    BANK9           256      0       0
    BANK10          256      0       0
    BANK11          256      0       0
    BANK12          256      0       0
    BANK13          256      0       0
    BANK14          256      0       0
    BANK15          128      0       0

Pointer List with Targets:

    f$.$buffer	PTR unsigned char  size(2) Largest target is 0

    f$.$source	PTR const unsigned char  size(2) Largest target is 0

    gpio_pin_direction_initialize@_pin_config	PTR struct . size(1) Largest target is 6
		 -> led_initialize@pin_obj(BANK0[1]), rb4_obj(COMRAM[6]), rb4_obj$mcu_pin(COMRAM[1]), rb5_obj(COMRAM[6]), 
		 -> rb5_obj$mcu_pin(COMRAM[1]), rb6_obj(COMRAM[6]), rb6_obj$mcu_pin(COMRAM[1]), rb7_obj(COMRAM[6]), 
		 -> rb7_obj$mcu_pin(COMRAM[1]), relay_initialize@pin_obj(COMRAM[1]), 

    gpio_pin_initialize@_pin_config	PTR struct . size(1) Largest target is 1
		 -> led_initialize@pin_obj(BANK0[1]), 

    gpio_pin_write_logic@_pin_config	PTR struct . size(1) Largest target is 1
		 -> led_initialize@pin_obj(BANK0[1]), led_turn_off@pin_obj(COMRAM[1]), led_turn_on@pin_obj(COMRAM[1]), relay_turn_off@pin_obj(COMRAM[1]), 
		 -> relay_turn_on@pin_obj(COMRAM[1]), 

    INT0_InterruptHandler	PTR FTN()void  size(2) Largest target is 1
		 -> NULL(), 

    INT1_InterruptHandler	PTR FTN()void  size(2) Largest target is 1
		 -> NULL(), 

    INT2_InterruptHandler	PTR FTN()void  size(2) Largest target is 1
		 -> NULL(), 

    Interrupt_INTx_Clear_Flag@int_obj$EXT_InterruptHandler	PTR FTN()void  size(2) Largest target is 0

    Interrupt_INTx_Disable@int_obj$EXT_InterruptHandler	PTR FTN()void  size(2) Largest target is 0

    Interrupt_INTx_Edge_Init@int_obj$EXT_InterruptHandler	PTR FTN()void  size(2) Largest target is 0

    Interrupt_INTx_Enable@int_obj$EXT_InterruptHandler	PTR FTN()void  size(2) Largest target is 0

    Interrupt_INTx_Pin_Init@int_obj$EXT_InterruptHandler	PTR FTN()void  size(2) Largest target is 0

    Interrupt_INTx_SetInterruptHandler@int_obj$EXT_InterruptHandler	PTR FTN()void  size(2) Largest target is 0

    Interrupt_RBx_Init@int_obj	PTR const struct . size(1) Largest target is 6
		 -> rb4_obj(COMRAM[6]), rb5_obj(COMRAM[6]), rb6_obj(COMRAM[6]), rb7_obj(COMRAM[6]), 

    Interrupt_RBx_Init@int_obj$EXT_InterruptHandler_HIGH	PTR FTN()void  size(2) Largest target is 1
		 -> rb4_isr_high(), rb5_isr_high(), rb6_isr_high(), rb7_isr_high(), 

    Interrupt_RBx_Init@int_obj$EXT_InterruptHandler_LOW	PTR FTN()void  size(2) Largest target is 1
		 -> rb4_isr_low(), rb5_isr_low(), rb6_isr_low(), rb7_isr_low(), 

    lat_registers	PTR volatile unsigned char [5] size(2) Largest target is 1
		 -> LATA(BITBIGSFRlllll[1]), LATB(BITBIGSFRllllh[1]), LATC(BITBIGSFRllllh[1]), LATD(BITBIGSFRllllh[1]), 
		 -> LATE(BITBIGSFRllllh[1]), 

    led_initialize@led	PTR const struct . size(1) Largest target is 1
		 -> ld1(COMRAM[1]), ld2(COMRAM[1]), ld3(COMRAM[1]), ld4(COMRAM[1]), 

    led_turn_off@led	PTR const struct . size(1) Largest target is 1
		 -> ld1(COMRAM[1]), ld2(COMRAM[1]), ld3(COMRAM[1]), ld4(COMRAM[1]), 

    led_turn_on@led	PTR const struct . size(1) Largest target is 1
		 -> ld1(COMRAM[1]), ld2(COMRAM[1]), ld3(COMRAM[1]), ld4(COMRAM[1]), 

    port_registers	PTR volatile unsigned char [5] size(2) Largest target is 1
		 -> PORTA(BITBIGSFRlllll[1]), PORTB(BITBIGSFRlllll[1]), PORTC(BITBIGSFRlllll[1]), PORTD(BITBIGSFRlllll[1]), 
		 -> PORTE(BITBIGSFRlllll[1]), 

    RB4_InterruptHandler_HIGH	PTR FTN()void  size(2) Largest target is 1
		 -> rb4_isr_high(), rb5_isr_high(), rb6_isr_high(), rb7_isr_high(), 
		 -> NULL(), 

    RB4_InterruptHandler_LOW	PTR FTN()void  size(2) Largest target is 1
		 -> rb4_isr_low(), rb5_isr_low(), rb6_isr_low(), rb7_isr_low(), 
		 -> NULL(), 

    rb4_obj$EXT_InterruptHandler_HIGH	PTR FTN()void  size(2) Largest target is 1
		 -> rb4_isr_high(), rb5_isr_high(), rb6_isr_high(), rb7_isr_high(), 

    rb4_obj$EXT_InterruptHandler_LOW	PTR FTN()void  size(2) Largest target is 1
		 -> rb4_isr_low(), rb5_isr_low(), rb6_isr_low(), rb7_isr_low(), 

    RB5_InterruptHandler_HIGH	PTR FTN()void  size(2) Largest target is 1
		 -> rb4_isr_high(), rb5_isr_high(), rb6_isr_high(), rb7_isr_high(), 
		 -> NULL(), 

    RB5_InterruptHandler_LOW	PTR FTN()void  size(2) Largest target is 1
		 -> rb4_isr_low(), rb5_isr_low(), rb6_isr_low(), rb7_isr_low(), 
		 -> NULL(), 

    rb5_obj$EXT_InterruptHandler_HIGH	PTR FTN()void  size(2) Largest target is 1
		 -> rb4_isr_high(), rb5_isr_high(), rb6_isr_high(), rb7_isr_high(), 

    rb5_obj$EXT_InterruptHandler_LOW	PTR FTN()void  size(2) Largest target is 1
		 -> rb4_isr_low(), rb5_isr_low(), rb6_isr_low(), rb7_isr_low(), 

    RB6_InterruptHandler_HIGH	PTR FTN()void  size(2) Largest target is 1
		 -> rb4_isr_high(), rb5_isr_high(), rb6_isr_high(), rb7_isr_high(), 
		 -> NULL(), 

    RB6_InterruptHandler_LOW	PTR FTN()void  size(2) Largest target is 1
		 -> rb4_isr_low(), rb5_isr_low(), rb6_isr_low(), rb7_isr_low(), 
		 -> NULL(), 

    rb6_obj$EXT_InterruptHandler_HIGH	PTR FTN()void  size(2) Largest target is 1
		 -> rb4_isr_high(), rb5_isr_high(), rb6_isr_high(), rb7_isr_high(), 

    rb6_obj$EXT_InterruptHandler_LOW	PTR FTN()void  size(2) Largest target is 1
		 -> rb4_isr_low(), rb5_isr_low(), rb6_isr_low(), rb7_isr_low(), 

    RB7_InterruptHandler_HIGH	PTR FTN()void  size(2) Largest target is 1
		 -> rb4_isr_high(), rb5_isr_high(), rb6_isr_high(), rb7_isr_high(), 
		 -> NULL(), 

    RB7_InterruptHandler_LOW	PTR FTN()void  size(2) Largest target is 1
		 -> rb4_isr_low(), rb5_isr_low(), rb6_isr_low(), rb7_isr_low(), 
		 -> NULL(), 

    rb7_obj$EXT_InterruptHandler_HIGH	PTR FTN()void  size(2) Largest target is 1
		 -> rb4_isr_high(), rb5_isr_high(), rb6_isr_high(), rb7_isr_high(), 

    rb7_obj$EXT_InterruptHandler_LOW	PTR FTN()void  size(2) Largest target is 1
		 -> rb4_isr_low(), rb5_isr_low(), rb6_isr_low(), rb7_isr_low(), 

    S1921$buffer	PTR unsigned char  size(2) Largest target is 0

    S1921$source	PTR const unsigned char  size(2) Largest target is 0

    S865$EXT_InterruptHandler	PTR FTN()void  size(2) Largest target is 0

    S981$EXT_InterruptHandler_HIGH	PTR FTN()void  size(2) Largest target is 1
		 -> rb4_isr_high(), rb5_isr_high(), rb6_isr_high(), rb7_isr_high(), 

    S981$EXT_InterruptHandler_LOW	PTR FTN()void  size(2) Largest target is 1
		 -> rb4_isr_low(), rb5_isr_low(), rb6_isr_low(), rb7_isr_low(), 

    sp__memset	PTR void  size(2) Largest target is 0

    tris_registers	PTR volatile unsigned char [5] size(2) Largest target is 1
		 -> TRISA(BITBIGSFRlllll[1]), TRISB(BITBIGSFRlllh[1]), TRISC(BITBIGSFRlllh[1]), TRISD(BITBIGSFRlllh[1]), 
		 -> TRISE(BITBIGSFRlllh[1]), 

    vfprintf$0	PTR struct _IO_FILE size(1) Largest target is 12
		 -> sprintf@f(COMRAM[12]), 

    vfprintf$1	PTR const unsigned char  size(1) Largest target is 3
		 -> STR_1(CODE[3]), STR_2(CODE[3]), STR_3(CODE[3]), 

    vfprintf$2	PTR PTR void  size(1) Largest target is 1
		 -> sprintf@ap(COMRAM[1]), 


Critical Paths under _main in COMRAM

    None.

Critical Paths under _InterruptManager in COMRAM

    _InterruptManager->_RB4_ISR
    _InterruptManager->_RB5_ISR
    _InterruptManager->_RB6_ISR
    _InterruptManager->_RB7_ISR
    _rb7_isr_low->_led_turn_off
    _rb7_isr_high->_led_turn_off
    _rb6_isr_low->_led_turn_on
    _rb6_isr_high->_led_turn_on
    _rb5_isr_low->_led_turn_off
    _rb5_isr_high->_led_turn_off
    _led_turn_off->i2_gpio_pin_write_logic
    _rb4_isr_low->_led_turn_on
    _rb4_isr_high->_led_turn_on
    _led_turn_on->i2_gpio_pin_write_logic

Critical Paths under _main in BANK0

    _main->_led_initialize
    _led_initialize->_gpio_pin_initialize
    _gpio_pin_initialize->_gpio_pin_write_logic
    _Interrupt_RBx_Init->_gpio_pin_direction_initialize

Critical Paths under _InterruptManager in BANK0

    None.

Critical Paths under _main in BANK1

    None.

Critical Paths under _InterruptManager in BANK1

    None.

Critical Paths under _main in BANK2

    None.

Critical Paths under _InterruptManager in BANK2

    None.

Critical Paths under _main in BANK3

    None.

Critical Paths under _InterruptManager in BANK3

    None.

Critical Paths under _main in BANK4

    None.

Critical Paths under _InterruptManager in BANK4

    None.

Critical Paths under _main in BANK5

    None.

Critical Paths under _InterruptManager in BANK5

    None.

Critical Paths under _main in BANK6

    None.

Critical Paths under _InterruptManager in BANK6

    None.

Critical Paths under _main in BANK7

    None.

Critical Paths under _InterruptManager in BANK7

    None.

Critical Paths under _main in BANK8

    None.

Critical Paths under _InterruptManager in BANK8

    None.

Critical Paths under _main in BANK9

    None.

Critical Paths under _InterruptManager in BANK9

    None.

Critical Paths under _main in BANK10

    None.

Critical Paths under _InterruptManager in BANK10

    None.

Critical Paths under _main in BANK11

    None.

Critical Paths under _InterruptManager in BANK11

    None.

Critical Paths under _main in BANK12

    None.

Critical Paths under _InterruptManager in BANK12

    None.

Critical Paths under _main in BANK13

    None.

Critical Paths under _InterruptManager in BANK13

    None.

Critical Paths under _main in BANK14

    None.

Critical Paths under _InterruptManager in BANK14

    None.

Critical Paths under _main in BANK15

    None.

Critical Paths under _InterruptManager in BANK15

    None.

Call Graph Tables:

 ---------------------------------------------------------------------------------
 (Depth) Function   	        Calls       Base Space   Used Autos Params    Refs
 ---------------------------------------------------------------------------------
 (0) _main                                                 0     0      0   10623
                 _Interrupt_RBx_Init
                     _led_initialize
 ---------------------------------------------------------------------------------
 (1) _led_initialize                                       4     3      1    8539
                                             11 BANK0      4     3      1
                _gpio_pin_initialize
 ---------------------------------------------------------------------------------
 (2) _gpio_pin_initialize                                  3     2      1    7921
                                              8 BANK0      3     2      1
      _gpio_pin_direction_initialize
               _gpio_pin_write_logic
 ---------------------------------------------------------------------------------
 (3) _gpio_pin_write_logic                                 8     6      2    5697
                                              0 BANK0      8     6      2
 ---------------------------------------------------------------------------------
 (1) _Interrupt_RBx_Init                                   4     3      1    2084
                                              7 BANK0      4     3      1
      _gpio_pin_direction_initialize
 ---------------------------------------------------------------------------------
 (3) _gpio_pin_direction_initialize                        7     6      1    1337
                                              0 BANK0      7     6      1
 ---------------------------------------------------------------------------------
 Estimated maximum stack depth 3
 ---------------------------------------------------------------------------------
 (Depth) Function   	        Calls       Base Space   Used Autos Params    Refs
 ---------------------------------------------------------------------------------
 (4) _InterruptManager                                     6     6      0   34168
                                             12 COMRAM     6     6      0
                           _INT0_ISR
                           _INT1_ISR
                           _INT2_ISR
                            _RB4_ISR
                            _RB5_ISR
                            _RB6_ISR
                            _RB7_ISR
 ---------------------------------------------------------------------------------
 (5) _RB7_ISR                                              1     1      0    8542
                                             11 COMRAM     1     1      0
                                NULL *
                       _rb4_isr_high *
                        _rb4_isr_low *
                       _rb5_isr_high *
                        _rb5_isr_low *
                       _rb6_isr_high *
                        _rb6_isr_low *
                       _rb7_isr_high *
                        _rb7_isr_low *
 ---------------------------------------------------------------------------------
 (5) _RB6_ISR                                              1     1      0    8542
                                             11 COMRAM     1     1      0
                                NULL *
                       _rb4_isr_high *
                        _rb4_isr_low *
                       _rb5_isr_high *
                        _rb5_isr_low *
                       _rb6_isr_high *
                        _rb6_isr_low *
                       _rb7_isr_high *
                        _rb7_isr_low *
 ---------------------------------------------------------------------------------
 (5) _RB5_ISR                                              1     1      0    8542
                                             11 COMRAM     1     1      0
                                NULL *
                       _rb4_isr_high *
                        _rb4_isr_low *
                       _rb5_isr_high *
                        _rb5_isr_low *
                       _rb6_isr_high *
                        _rb6_isr_low *
                       _rb7_isr_high *
                        _rb7_isr_low *
 ---------------------------------------------------------------------------------
 (5) _RB4_ISR                                              1     1      0    8542
                                             11 COMRAM     1     1      0
                                NULL *
                       _rb4_isr_high *
                        _rb4_isr_low *
                       _rb5_isr_high *
                        _rb5_isr_low *
                       _rb6_isr_high *
                        _rb6_isr_low *
                       _rb7_isr_high *
                        _rb7_isr_low *
 ---------------------------------------------------------------------------------
 (6) _rb7_isr_low                                          0     0      0    1060
                       _led_turn_off
 ---------------------------------------------------------------------------------
 (6) _rb7_isr_high                                         0     0      0    1060
                       _led_turn_off
 ---------------------------------------------------------------------------------
 (6) _rb6_isr_low                                          0     0      0    1060
                        _led_turn_on
 ---------------------------------------------------------------------------------
 (6) _rb6_isr_high                                         0     0      0    1060
                        _led_turn_on
 ---------------------------------------------------------------------------------
 (6) _rb5_isr_low                                          0     0      0    1060
                       _led_turn_off
 ---------------------------------------------------------------------------------
 (6) _rb5_isr_high                                         0     0      0    1060
                       _led_turn_off
 ---------------------------------------------------------------------------------
 (7) _led_turn_off                                         4     3      1    1060
                                              7 COMRAM     4     3      1
             i2_gpio_pin_write_logic
 ---------------------------------------------------------------------------------
 (6) _rb4_isr_low                                          0     0      0    1060
                        _led_turn_on
 ---------------------------------------------------------------------------------
 (6) _rb4_isr_high                                         0     0      0    1060
                        _led_turn_on
 ---------------------------------------------------------------------------------
 (7) _led_turn_on                                          4     3      1    1060
                                              7 COMRAM     4     3      1
             i2_gpio_pin_write_logic
 ---------------------------------------------------------------------------------
 (8) i2_gpio_pin_write_logic                               8     6      2     373
                                              0 COMRAM     7     5      2
 ---------------------------------------------------------------------------------
 (6) NULL(Fake)                                            0     0      0       0
 ---------------------------------------------------------------------------------
 (5) _INT2_ISR                                             0     0      0       0
 ---------------------------------------------------------------------------------
 (5) _INT1_ISR                                             0     0      0       0
 ---------------------------------------------------------------------------------
 (5) _INT0_ISR                                             0     0      0       0
 ---------------------------------------------------------------------------------
 Estimated maximum stack depth 8
 ---------------------------------------------------------------------------------

 Call Graph Graphs:

 _main (ROOT)
   _Interrupt_RBx_Init
     _gpio_pin_direction_initialize
   _led_initialize
     _gpio_pin_initialize
       _gpio_pin_direction_initialize
       _gpio_pin_write_logic

 _InterruptManager (ROOT)
   _INT0_ISR
   _INT1_ISR
   _INT2_ISR
   _RB4_ISR
     NULL(Fake) *
     _rb4_isr_high *
       _led_turn_on
         i2_gpio_pin_write_logic
     _rb4_isr_low *
       _led_turn_on
     _rb5_isr_high *
       _led_turn_off
         i2_gpio_pin_write_logic
     _rb5_isr_low *
       _led_turn_off
     _rb6_isr_high *
       _led_turn_on
     _rb6_isr_low *
       _led_turn_on
     _rb7_isr_high *
       _led_turn_off
     _rb7_isr_low *
       _led_turn_off
   _RB5_ISR
     NULL(Fake) *
     _rb4_isr_high *
     _rb4_isr_low *
     _rb5_isr_high *
     _rb5_isr_low *
     _rb6_isr_high *
     _rb6_isr_low *
     _rb7_isr_high *
     _rb7_isr_low *
   _RB6_ISR
     NULL(Fake) *
     _rb4_isr_high *
     _rb4_isr_low *
     _rb5_isr_high *
     _rb5_isr_low *
     _rb6_isr_high *
     _rb6_isr_low *
     _rb7_isr_high *
     _rb7_isr_low *
   _RB7_ISR
     NULL(Fake) *
     _rb4_isr_high *
     _rb4_isr_low *
     _rb5_isr_high *
     _rb5_isr_low *
     _rb6_isr_high *
     _rb6_isr_low *
     _rb7_isr_high *
     _rb7_isr_low *

 Address spaces:
Name               Size   Autos  Total    Cost      Usage
BIGRAM             F7F      0       0      42        0.0%
EEDATA             400      0       0       0        0.0%
BITBANK14          100      0       0      32        0.0%
BANK14             100      0       0      33        0.0%
BITBANK13          100      0       0      30        0.0%
BANK13             100      0       0      31        0.0%
BITBANK12          100      0       0      28        0.0%
BANK12             100      0       0      29        0.0%
BITBANK11          100      0       0      26        0.0%
BANK11             100      0       0      27        0.0%
BITBANK10          100      0       0      24        0.0%
BANK10             100      0       0      25        0.0%
BITBANK9           100      0       0      22        0.0%
BANK9              100      0       0      23        0.0%
BITBANK8           100      0       0      20        0.0%
BANK8              100      0       0      21        0.0%
BITBANK7           100      0       0      18        0.0%
BANK7              100      0       0      19        0.0%
BITBANK6           100      0       0      16        0.0%
BANK6              100      0       0      17        0.0%
BITBANK5           100      0       0      14        0.0%
BANK5              100      0       0      15        0.0%
BITBANK4           100      0       0      12        0.0%
BANK4              100      0       0      13        0.0%
BITBANK3           100      0       0      10        0.0%
BANK3              100      0       0      11        0.0%
BITBANK2           100      0       0       8        0.0%
BANK2              100      0       0       9        0.0%
BITBANK1           100      0       0       6        0.0%
BANK1              100      0       0       7        0.0%
BITBANK15           80      0       0      34        0.0%
BANK15              80      0       0      35        0.0%
BITBANK0            80      0       0       4        0.0%
BANK0               80      F      10       5       12.5%
BITCOMRAM           7E      0       0       0        0.0%
COMRAM              7E     12      6F       1       88.1%
BITBIGSFRlhl        45      0       0      37        0.0%
BITBIGSFRlllh        F      0       0      38        0.0%
BITBIGSFRh           D      0       0      36        0.0%
BITBIGSFRllllh       4      0       0      39        0.0%
BITBIGSFRlllll       4      0       0      40        0.0%
BIGSFR               0      0       0     200        0.0%
BITSFR               0      0       0     200        0.0%
SFR                  0      0       0     200        0.0%
STACK                0      0       0       2        0.0%
NULL                 0      0       0       0        0.0%
ABS                  0      0      7F      41        0.0%
DATA                 0      0      7F       3        0.0%
CODE                 0      0       0       0        0.0%


Microchip Technology PIC18 Macro Assembler V2.45 build 20230818022343 
Symbol Table                                                                                   Sun Feb 25 05:02:39 2024

                      ??_InterruptManager 006A                      ??_Interrupt_RBx_Init 0088  
                                      _rd 0055                      __end_of_rb4_isr_high 1C1E  
                                     l400 13F6                                       l433 1B46  
                                     l274 1944                                       l419 1626  
                                     l278 199A                                       l801 1AE6  
                                     l802 1AE6                                       l583 1412  
                                     l592 1510                                       l584 150E  
                                     l587 1508                      __end_of_rb5_isr_high 1C10  
                                     _ld1 003E                                       _ld2 003D  
                                     _ld3 003C                                       _ld4 003B  
               _RB5_InterruptHandler_HIGH 0049                                       _ret 008F  
                     led_initialize@F3058 005D                                       tosl 0FFD  
                   relay_initialize@F3052 0059                                       wreg 0FE8  
                    __end_of_rb6_isr_high 1C02                              ?_led_turn_on 0065  
                         __end_of_RB4_ISR 1926                      __end_of_rb7_isr_high 1C2C  
                         __end_of_RB5_ISR 18A8                           __end_of_RB6_ISR 182A  
                         __end_of_RB7_ISR 17AC                                      l4011 1B20  
                                    l4013 1B28                                      l4015 1B44  
                                    l4007 1AEE                                      l4009 1B00  
                                    l4251 141A                                      l4261 1470  
                                    l4253 1428                                      l4181 197A  
                                    l4263 147E                                      l4255 1436  
                                    l4271 14BC                                      l4247 13F8  
                                    l4183 197C                                      l4175 1926  
                                    l4273 150A                                      l4265 1494  
                                    l4257 144C                                      l4249 140A  
                                    l4185 198E                                      l4177 193C  
                                    l4267 14A2                                      l4259 145A  
                                    l4179 1948                                      l4187 1996  
                                    l4269 14B8                                      l3931 12CC  
                                    l3933 12E2                                      l3943 13B4  
                                    l3935 1302                                      l3937 130A  
                                    l3945 13F4                                      l3961 15A8  
                                    l3953 1512                                      l3939 1362  
                                    l3955 1528                                      l3965 15FA  
                                    l3957 1548                                      l4951 14E2  
                                    l3959 1550                                      l3967 1624  
                                    l4953 13DE                                      l4857 1A84  
                                    l4949 160E                                      STR_1 1011  
                                    _LATA 0F89                                      _LATB 0F8A  
                                    _LATC 0F8B                                      _LATD 0F8C  
                                    _LATE 0F8D                                      u3310 12E2  
                                    u3311 12DE                                      u3320 1302  
                                    u3321 12FE                                      u3404 15C6  
                                    u3405 15C2                                      u3350 13CA  
                                    u3334 1328                                      u3351 13C4  
                                    u3335 1324                                      u3360 13CC  
                                    u3344 1380                                      u3600 193C  
                                    u3345 137C                                      u3601 1938  
                                    u3370 1528                                      u3450 1B00  
                                    u3371 1524                                      u3451 1AFC  
                                    u3380 1548                                      u3460 1B20  
                                    u3381 1544                                      u3461 1B1C  
                                    u3615 198A                                      u3617 198E  
                                    u3394 156E                                      u3395 156A  
                                    u3860 140A                                      u3861 1406  
                _RB4_InterruptHandler_LOW 004B                                      _main 1A84  
                _RB7_InterruptHandler_LOW 003F                                      fsr2h 0FDA  
                                    indf2 0FDF                                      fsr1l 0FE1  
                                    fsr2l 0FD9                                      btemp 0070  
                  __end_of_led_initialize 199C                                      prodh 0FF4  
                                    prodl 0FF3                                      start 000E  
                           ?_led_turn_off 0065                              ___param_bank 0000  
                    _gpio_pin_write_logic 1512                          __end_of_INT0_ISR 1C38  
                        __end_of_INT1_ISR 1C34                          __end_of_INT2_ISR 1C30  
                                   ?_main 005E                                     _EEADR 0FA9  
                                   i2l521 1C36                                     i2l281 1A2C  
                                   i2l531 1C2E                                     i2l419 172C  
                                   i2l292 1A0E                                     i2l285 1A82  
                                   i2l526 1C32                                     i2l542 1924  
                                   i2l288 19B8                                     i2l720 1070  
                                   i2l553 18A6                                     i2l730 11A0  
                                   i2l722 1090                                     i2l564 1828  
                                   i2l732 11E4                                     i2l724 10D4  
                                   i2l734 1228                                     i2l726 1118  
                                   i2l718 1050                                     i2l575 17AA  
                                   i2l736 126C                                     i2l728 115C  
                                   i2l770 1C0E                                     i2l739 12B0  
                                   i2l764 1C1C                                     i2l773 1BD6  
                                   i2l782 1C2A                                     i2l767 1BE4  
                                   i2l776 1C00                                     i2l785 1BF2  
                                   i2l779 1BC8                       relay_turn_off@F3062 0057  
                                   _PORTA 0F80                                     _PORTB 0F81  
                                   _PORTC 0F82                                     _PORTD 0F83  
                                   _PORTE 0F84                                     _TRISA 0F92  
                                   _TRISB 0F93                                     _TRISC 0F94  
                                   _TRISD 0F95                                     _TRISE 0F96  
                                   pclath 0FFA                                     pclatu 0FFB  
                                   tablat 0FF5                                     ttemp5 0071  
                                   ttemp6 0074                                     ttemp7 0078  
                                   status 0FD8                                     wtemp8 0071  
                         ?_led_initialize 008B                            ??_led_turn_off 0066  
          ?_gpio_pin_direction_initialize 0080                           __initialization 1B86  
                            __end_of_main 1AEE                     ?_gpio_pin_write_logic 0080  
             i2gpio_pin_write_logic@logic 005F                             _lat_registers 000B  
                                  ??_main 008F                             __activetblptr 0003  
                        led_turn_on@F3063 005C                                 ??_RB4_ISR 0069  
                               ??_RB5_ISR 0069                                 ??_RB6_ISR 0069  
                               ??_RB7_ISR 0069                                    _EEADRH 0FAA  
                                  _EEDATA 0FA8                                    _EECON2 0FA7  
                                  i2l4001 1A00                                    i2l4003 1A0C  
                                  i2l4101 1C02                                    i2l4111 1BE6  
                                  i2l4103 1BCA                                    i2l4105 1BF4  
                                  i2l4201 18FA                                    i2l4107 1BBC  
                                  i2l4203 190C                                    i2l4211 1850  
                                  i2l4109 1C1E                                    i2l4213 186C  
                                  i2l4205 182C                                    i2l4221 17B0  
                                  i2l4215 187C                                    i2l4207 182E  
                                  i2l4231 1810                                    i2l4223 17C0  
                                  i2l4217 188E                                    i2l4209 183E  
                                  i2l4225 17D2                                    i2l4241 1770  
                                  i2l4233 1730                                    i2l4227 17EE  
                                  i2l4219 17AE                                    i2l4243 1780  
                                  i2l4235 1732                                    i2l1781 1C30  
                                  i2l4229 17FE                                    i2l4245 1792  
                                  i2l4237 1742                                    i2l1775 1C34  
                                  i2l4191 18AA                                    i2l4239 1754  
                                  i2l4097 1C10                                    i2l4193 18AC  
                                  i2l1787 1C2C                                    i2l4099 1BD8  
                                  i2l4195 18BC                                    i2l4197 18CE  
                                  i2l4199 18EA                                    i2l3921 16B2  
                                  i2l3913 1628                                    i2l4801 1152  
                                  i2l3915 1638                                    i2l4811 1196  
                                  i2l4803 1156                                    i2l3925 1702  
                                  i2l3917 1658                                    i2l4821 11DA  
                                  i2l4813 119A                                    i2l4805 116A  
                                  i2l3919 165C                                    i2l4831 121E  
                                  i2l4823 11DE                                    i2l4815 11AE  
                                  i2l4807 1178                                    i2l4841 1262  
                                  i2l4833 1222                                    i2l4825 11F2  
                                  i2l4817 11BC                                    i2l4809 1186  
                                  i2l4761 1030                                    i2l4851 12A6  
                                  i2l4843 1266                                    i2l4835 1236  
                                  i2l4827 1200                                    i2l4819 11CA  
                                  i2l4771 107E                                    i2l4763 103E  
                                  i2l3981 1A62                                    i2l4853 12AA  
                                  i2l4845 127A                                    i2l4837 1244  
                                  i2l4829 120E                                    i2l4781 10CA  
                                  i2l4773 108C                                    i2l4765 104C  
                                  i2l3983 1A64                                    i2l3975 1A10  
                                  i2l3991 199C                                    i2l4847 1288  
                                  i2l4839 1252                                    i2l4791 110E  
                                  i2l4783 10CE                                    i2l4775 109E  
                                  i2l4767 105E                                    i2l3985 1A74  
                                  i2l3977 1A24                                    i2l3993 19B0  
                                  i2l4849 1296                                    i2l4793 1112  
                                  i2l4785 10E2                                    i2l4777 10AC  
                                  i2l4769 106C                                    i2l4955 1716  
                                  i2l3979 1A30                                    i2l3987 1A80  
                                  i2l3995 19BC                                    i2l4795 1126  
                                  i2l4787 10F0                                    i2l4779 10BA  
                                  i2l3997 19EE                                    i2l4797 1134  
                                  i2l4789 10FE                                    i2l3999 19F0  
                                  i2l4799 1142                                    clear_0 1BAC  
                   led_initialize@pin_obj 008E                                    isa$std 0001  
                            __pdataCOMRAM 0001                              __mediumconst 0000  
                                  tblptrh 0FF7                                    tblptrl 0FF6  
                                  tblptru 0FF8                              _rb4_isr_high 1C10  
                              __accesstop 0080                   __end_of__initialization 1BB2  
                               ?_INT0_ISR 005E                                 ?_INT1_ISR 005E  
                               ?_INT2_ISR 005E                             ___rparam_used 0001  
                            _rb5_isr_high 1C02                         led_initialize@led 008B  
                       led_initialize@ret 008D                              _rb6_isr_high 1BF4  
                       RB5_ISR@RB5_Source 0069                    ??_gpio_pin_write_logic 0082  
                          __pcstackCOMRAM 005E                              _rb7_isr_high 1C1E  
gpio_pin_direction_initialize@_pin_config 0080                      __end_of_led_turn_off 1A10  
                   _INT0_InterruptHandler 0053                                ??_INT0_ISR 005E  
                              ??_INT1_ISR 005E                                ??_INT2_ISR 005E  
                       led_turn_off@F3068 005B                         RB7_ISR@RB7_Source 0069  
                                 _RB4_ISR 18A8                                   _RB5_ISR 182A  
                                 _RB6_ISR 17AC                                   _RB7_ISR 172E  
               _RB6_InterruptHandler_HIGH 0045                                _eeprom_val 0056  
                    led_turn_toggle@F3073 005A                          ??_led_initialize 008C  
                              _btn_values 1001                            _tris_registers 0015  
                _RB6_InterruptHandler_LOW 0043                                   __Hparam 0000  
                                 __Lparam 0000                       _gpio_pin_initialize 1AEE  
                            __psmallconst 1000                                   _rb4_obj 0035  
                                 _rb5_obj 002F                                   _rb6_obj 0029  
                                 _rb7_obj 0023                                   __pcinit 1B86  
                                 __ramtop 1000                                   __ptext0 1A84  
                                 __ptext1 1926                                   __ptext2 1AEE  
                                 __ptext3 1512                                   __ptext4 13F8  
                                 __ptext5 12CC                                   __ptext7 172E  
                                 __ptext8 17AC                                   __ptext9 182A  
                           ??_rb4_isr_low 0069           ??_gpio_pin_direction_initialize 0081  
                           ??_rb5_isr_low 0069                             ??_rb6_isr_low 0069  
                           ??_rb7_isr_low 0069                      ?_gpio_pin_initialize 0088  
                ??i2_gpio_pin_write_logic 0060                            __pintcode_body 1016  
                    end_of_initialization 1BB2                                   int_func 1016  
                     led_turn_off@pin_obj 0068                                   postdec1 0FE5  
                                 postdec2 0FDD                                   postinc0 0FEE  
                                 postinc2 0FDE                     _INT1_InterruptHandler 0051  
                               _PORTBbits 0F81                          _InterruptManager 0008  
                   ??_gpio_pin_initialize 0089                       __end_of_rb4_isr_low 1BE6  
                     __end_of_rb5_isr_low 1BD8                       __end_of_rb6_isr_low 1BCA  
                     __end_of_rb7_isr_low 1BF4                              _led_turn_off 199C  
                      relay_turn_on@F3057 0058                 Interrupt_RBx_Init@int_obj 0087  
                           __pidataCOMRAM 1B48                     Interrupt_RBx_Init@ret 008A  
                     start_initialization 1B86                             ??_led_turn_on 0066  
   __end_of_gpio_pin_direction_initialize 13F8             _gpio_pin_direction_initialize 12CC  
                         led_turn_off@led 0065                           led_turn_off@ret 0067  
                             _rb4_isr_low 1BD8                                  ?_RB4_ISR 005E  
                                ?_RB5_ISR 005E                                  ?_RB6_ISR 005E  
                                ?_RB7_ISR 005E                               __pbssCOMRAM 003F  
                             _rb5_isr_low 1BCA                             __pcstackBANK0 0080  
                             _rb6_isr_low 1BBC                               _rb7_isr_low 1BE6  
                     __end_of_led_turn_on 1A84                     _INT2_InterruptHandler 004F  
                               __pnvBANK0 008F                                 __pintcode 0008  
              __end_of_Interrupt_RBx_Init 1512                    i2_gpio_pin_write_logic 1628  
       i2gpio_pin_write_logic@_pin_config 005E           gpio_pin_write_logic@_pin_config 0080  
               gpio_pin_write_logic@logic 0081                               __smallconst 1000  
               _RB4_InterruptHandler_HIGH 004D                 _RB7_InterruptHandler_HIGH 0041  
                         fp__rb4_isr_high 0000                           fp__rb5_isr_high 0000  
                         fp__rb6_isr_high 0000                  _RB5_InterruptHandler_LOW 0047  
                                _INT0_ISR 1C34                                  _INT1_ISR 1C30  
                                _INT2_ISR 1C2C                                  _RB4_Flag 0022  
                                _RB5_Flag 0021                                  _RB6_Flag 0020  
                                _RB7_Flag 001F                         RB4_ISR@RB4_Source 0069  
                __end_of_InterruptManager 12CC                           fp__rb7_isr_high 0000  
                                i2u330_44 16D0                                  i2u330_45 16CC  
                                i2u341_40 1A24                                  i2u341_41 1A20  
                                i2u430_40 105E                                  i2u430_41 105A  
                                i2u342_45 1A72                                  i2u342_47 1A74  
                                i2u327_40 1638                                  i2u343_40 19B0  
                                i2u431_40 106C                                  i2u327_41 1634  
                                i2u343_41 19AC                                  i2u431_41 1068  
                                i2u328_40 1658                                  i2u440_40 10FE  
                                i2u432_40 107E                                  i2u328_41 1654  
                                i2u440_41 10FA                                  i2u432_41 107A  
                                i2u344_45 19FE                                  i2u344_47 1A00  
                                i2u441_40 110E                                  i2u433_40 108C  
                                i2u441_41 110A                                  i2u433_41 1088  
                                i2u329_44 167A                                  i2u329_45 1676  
                                i2u362_40 18BC                                  i2u450_40 11AE  
                                i2u442_40 1126                                  i2u434_40 109E  
                                i2u362_41 18B8                                  i2u450_41 11AA  
                                i2u442_41 1122                                  i2u434_41 109A  
                                i2u363_40 18CE                                  i2u371_40 187C  
                                i2u370_48 1856                                  i2u451_40 11BC  
                                i2u443_40 1134                                  i2u435_40 10AC  
                                i2u363_41 18CA                                  i2u371_41 1878  
                                i2u370_49 1868                                  i2u451_41 11B8  
                                i2u443_41 1130                                  i2u435_41 10A8  
                                i2u372_40 188E                                  i2u380_40 1742  
                                i2u460_40 1252                                  i2u452_40 11CA  
                                i2u444_40 1142                                  i2u436_40 10BA  
                                i2u428_40 103E                                  i2u372_41 188A  
                                i2u380_41 173E                                  i2u460_41 124E  
                                i2u452_41 11C6                                  i2u444_41 113E  
                                i2u436_41 10B6                                  i2u428_41 103A  
                                i2u365_40 18FA                                  i2u364_48 18D4  
                                i2u381_40 1754                                  i2u461_40 1262  
                                i2u453_40 11DA                                  i2u445_40 1152  
                                i2u437_40 10CA                                  i2u429_40 104C  
                                i2u365_41 18F6                                  i2u364_49 18E6  
                                i2u381_41 1750                                  i2u461_41 125E  
                                i2u453_41 11D6                                  i2u445_41 114E  
                                i2u437_41 10C6                                  i2u429_41 1048  
                                i2u366_40 190C                                  i2u373_48 1894  
                                i2u374_40 17C0                                  i2u462_40 127A  
                                i2u454_40 11F2                                  i2u446_40 116A  
                                i2u438_40 10E2                                  i2u366_41 1908  
                                i2u373_49 18A6                                  i2u374_41 17BC  
                                i2u462_41 1276                                  i2u454_41 11EE  
                                i2u446_41 1166                                  i2u438_41 10DE  
                      led_turn_on@pin_obj 0068                                  i2u375_40 17D2  
                                i2u383_40 1780                                  i2u382_48 175A  
                                i2u463_40 1288                                  i2u455_40 1200  
                                i2u447_40 1178                                  i2u439_40 10F0  
                                i2u375_41 17CE                                  i2u383_41 177C  
                                i2u382_49 176C                                  i2u463_41 1284  
                                i2u455_41 11FC                                  i2u447_41 1174  
                                i2u439_41 10EC                                  i2u367_48 1912  
                                i2u368_40 183E                                  i2u384_40 1792  
                                i2u464_40 1296                                  i2u456_40 120E  
                                i2u448_40 1186                                  i2u367_49 1924  
                                i2u368_41 183A                                  i2u384_41 178E  
                                i2u464_41 1292                                  i2u456_41 120A  
                                i2u448_41 1182                                  i2u369_40 1850  
                                i2u377_40 17FE                                  i2u376_48 17D8  
                                i2u465_40 12A6                                  i2u457_40 121E  
                                i2u449_40 1196                                  i2u369_41 184C  
                                i2u377_41 17FA                                  i2u376_49 17EA  
                                i2u465_41 12A2                                  i2u457_41 121A  
                                i2u449_41 1192                                  i2u378_40 1810  
                                i2u385_48 1798                                  i2u458_40 1236  
                                i2u378_41 180C                                  i2u385_49 17AA  
                                i2u458_41 1232                                  i2u459_40 1244  
                                i2u459_41 1240                                  i2u379_48 1816  
                                i2u379_49 1828          gpio_pin_direction_initialize@ret 0086  
                  gpio_pin_initialize@ret 008A                               _led_turn_on 1A10  
                 gpio_pin_write_logic@ret 0087                               _INTCON2bits 0FF1  
                             _INTCON3bits 0FF0                                 copy_data0 1B9A  
                           ?_rb4_isr_high 005E                             ?_rb5_isr_high 005E  
                              _EECON1bits 0FA6                            led_turn_on@led 0065  
                          led_turn_on@ret 0067                                  __Hrparam 0000  
                           ?_rb6_isr_high 005E                                  __Lrparam 0000  
                           ?_rb7_isr_high 005E                         RB6_ISR@RB6_Source 0069  
             __end_of_gpio_pin_initialize 1B48                        __end_of_btn_values 1011  
          gpio_pin_initialize@_pin_config 0088                                  __ptext10 18A8  
                                __ptext11 1BBC                                  __ptext20 1A10  
                                __ptext12 1BCA                                  __ptext21 1628  
                                __ptext13 1BD8                                  __ptext22 1C2C  
                                __ptext14 1BE6                                  __ptext23 1C30  
                                __ptext15 1BF4                                  __ptext24 1C34  
                                __ptext16 1C02                                  __ptext25 0000  
                                __ptext17 1C10                                  __ptext18 1C1E  
                                __ptext19 199C                            ??_rb4_isr_high 0069  
                          fp__rb4_isr_low 0000                            ??_rb5_isr_high 0069  
                          fp__rb5_isr_low 0000                            fp__rb6_isr_low 0000  
                          ??_rb6_isr_high 0069                            fp__rb7_isr_low 0000  
                                isa$xinst 0000                            ??_rb7_isr_high 0069  
                                int$flags 0070                              ?_rb4_isr_low 005E  
                              _INTCONbits 0FF2                              ?_rb5_isr_low 005E  
                            ?_rb6_isr_low 005E                              ?_rb7_isr_low 005E  
            __end_of_gpio_pin_write_logic 1628                                  intlevel2 0000  
                 ?i2_gpio_pin_write_logic 005E                            _port_registers 0001  
                      _Interrupt_RBx_Init 13F8                       ?_Interrupt_RBx_Init 0087  
          __end_ofi2_gpio_pin_write_logic 172E                         ?_InterruptManager 005E  
                          _led_initialize 1926  
