

Microchip MPLAB XC8 Assembler V2.40 build 20220703182018 
                                                                                               Sat Jun 22 13:04:58 2024

Microchip MPLAB XC8 C Compiler v2.40 (Free license) build 20220703182018 Og1 
     1                           	processor	18F4620
     2                           	fnconf	rparam,??,?,0
     3                           	pagewidth 120
     4                           	opt	flic
     5                           	psect	idataCOMRAM,global,class=CODE,delta=1,noexec
     6                           	psect	smallconst,global,reloc=2,class=SMALLCONST,delta=1,noexec
     7                           	psect	cinit,global,reloc=2,class=CODE,delta=1
     8                           	psect	bssCOMRAM,global,class=COMRAM,space=1,delta=1,lowdata,noexec
     9                           	psect	dataCOMRAM,global,class=COMRAM,space=1,delta=1,lowdata,noexec
    10                           	psect	bssBANK0,global,class=BANK0,space=1,delta=1,lowdata,noexec
    11                           	psect	cstackCOMRAM,global,class=COMRAM,space=1,delta=1,lowdata,noexec
    12                           	psect	text0,global,reloc=2,class=CODE,delta=1
    13                           	psect	text1,global,reloc=2,class=CODE,delta=1
    14                           	psect	text2,global,reloc=2,class=CODE,delta=1
    15                           	psect	text3,global,reloc=2,class=CODE,delta=1
    16                           	psect	text4,global,reloc=2,class=CODE,delta=1
    17                           	psect	text5,global,reloc=2,class=CODE,delta=1
    18                           	psect	intcode,global,reloc=2,class=CODE,delta=1
    19                           	psect	intcode_body,global,reloc=2,class=CODE,delta=1
    20                           	psect	text7,global,reloc=2,class=CODE,delta=1
    21                           	psect	text8,global,reloc=2,class=CODE,delta=1
    22                           	psect	text9,global,reloc=2,class=CODE,delta=1
    23                           	psect	text10,global,reloc=2,class=CODE,delta=1
    24                           	psect	text11,global,reloc=2,class=CODE,delta=1
    25                           	psect	text12,global,reloc=2,class=CODE,delta=1
    26                           	psect	text13,global,reloc=2,class=CODE,delta=1
    27                           	psect	text14,global,reloc=2,class=CODE,delta=1
    28                           	psect	text15,global,reloc=2,class=CODE,delta=1
    29                           	psect	text16,global,reloc=2,class=CODE,delta=1
    30                           	psect	text17,global,reloc=2,class=CODE,delta=1
    31                           	psect	intsave_regs,global,class=BIGRAM,space=1,delta=1,noexec
    32                           	psect	rparam,global,class=COMRAM,space=1,delta=1,noexec
    33                           	psect	temp,global,ovrld,common,class=COMRAM,space=1,delta=1
    34                           	psect	config,global,abs,ovrld,class=CONFIG,space=4,delta=1,noexec
    35   000000                     
    36                           ; Version 2.40
    37                           ; Generated 04/07/2022 GMT
    38                           ; 
    39                           ; Copyright © 2022, Microchip Technology Inc. and its subsidiaries ("Microchip")
    40                           ; All rights reserved.
    41                           ; 
    42                           ; This software is developed by Microchip Technology Inc. and its subsidiaries ("Microch
      +                          ip").
    43                           ; 
    44                           ; Redistribution and use in source and binary forms, with or without modification, are
    45                           ; permitted provided that the following conditions are met:
    46                           ; 
    47                           ;     1. Redistributions of source code must retain the above copyright notice, this lis
      +                          t of
    48                           ;        conditions and the following disclaimer.
    49                           ; 
    50                           ;     2. Redistributions in binary form must reproduce the above copyright notice, this 
      +                          list
    51                           ;        of conditions and the following disclaimer in the documentation and/or other
    52                           ;        materials provided with the distribution. Publication is not required when
    53                           ;        this file is used in an embedded application.
    54                           ; 
    55                           ;     3. Microchip's name may not be used to endorse or promote products derived from th
      +                          is
    56                           ;        software without specific prior written permission.
    57                           ; 
    58                           ; THIS SOFTWARE IS PROVIDED BY MICROCHIP "AS IS" AND ANY EXPRESS OR IMPLIED WARRANTIES,
    59                           ; INCLUDING, BUT NOT LIMITED TO, THE IMPLIED WARRANTIES OF MERCHANTABILITY AND FITNESS F
      +                          OR
    60                           ; PURPOSE ARE DISCLAIMED.  IN NO EVENT SHALL MICROCHIP BE LIABLE FOR ANY DIRECT, INDIREC
      +                          T,
    61                           ; INCIDENTAL, SPECIAL, EXEMPLARY, OR CONSEQUENTIAL DAMAGES (INCLUDING BUT NOT LIMITED TO
    62                           ; PROCUREMENT OF SUBSTITUTE GOODS OR SERVICES; LOSS OF USE, DATA OR PROFITS; OR BUSINESS
    63                           ; INTERRUPTION) HOWSOEVER CAUSED AND ON ANY THEORY OF LIABILITY, WHETHER IN CONTRACT, ST
      +                          RICT
    64                           ; LIABILITY, OR TORT (INCLUDING NEGLIGENCE OR OTHERWISE) ARISING IN ANY WAY OUT OF THE U
      +                          SE OF
    65                           ; THIS SOFTWARE, EVEN IF ADVISED OF THE POSSIBILITY OF SUCH DAMAGE.
    66                           ; 
    67                           ; 
    68                           ; Code-generator required, PIC18F4620 Definitions
    69                           ; 
    70                           ; SFR Addresses
    71   000000                     
    72                           	psect	idataCOMRAM
    73   001716                     __pidataCOMRAM:
    74                           	callstack 0
    75                           
    76                           ;initializer for _port_registers
    77   001716  80                 	db	128
    78   001717  0F                 	db	15
    79   001718  81                 	db	129
    80   001719  0F                 	db	15
    81   00171A  82                 	db	130
    82   00171B  0F                 	db	15
    83   00171C  83                 	db	131
    84   00171D  0F                 	db	15
    85   00171E  84                 	db	132
    86   00171F  0F                 	db	15
    87                           
    88                           ;initializer for _lat_registers
    89   001720  89                 	db	137
    90   001721  0F                 	db	15
    91   001722  8A                 	db	138
    92   001723  0F                 	db	15
    93   001724  8B                 	db	139
    94   001725  0F                 	db	15
    95   001726  8C                 	db	140
    96   001727  0F                 	db	15
    97   001728  8D                 	db	141
    98   001729  0F                 	db	15
    99                           
   100                           ;initializer for _tris_registers
   101   00172A  92                 	db	146
   102   00172B  0F                 	db	15
   103   00172C  93                 	db	147
   104   00172D  0F                 	db	15
   105   00172E  94                 	db	148
   106   00172F  0F                 	db	15
   107   001730  95                 	db	149
   108   001731  0F                 	db	15
   109   001732  96                 	db	150
   110   001733  0F                 	db	15
   111                           
   112                           ;initializer for main@F3342
   113   001734  79                 	db	121
   114   001735  6F                 	db	111
   115   001736  75                 	db	117
   116   001737  73                 	db	115
   117   001738  00                 	db	0
   118                           
   119                           ;initializer for MSSP_SPI_SLAVE_MODE_GPIO_PIN_CONFIG@F3103
   120   001739  28                 	db	40
   121                           
   122                           ;initializer for MSSP_SPI_SLAVE_MODE_GPIO_PIN_CONFIG@F3101
   123   00173A  1A                 	db	26
   124                           
   125                           ;initializer for MSSP_SPI_SLAVE_MODE_GPIO_PIN_CONFIG@F3099
   126   00173B  62                 	db	98
   127                           
   128                           ;initializer for MSSP_SPI_SLAVE_MODE_GPIO_PIN_CONFIG@F3097
   129   00173C  2A                 	db	42
   130                           
   131                           ;initializer for MSSP_SPI_MASTER_MODE_GPIO_PIN_CONFIG@F3092
   132   00173D  1A                 	db	26
   133                           
   134                           ;initializer for MSSP_SPI_MASTER_MODE_GPIO_PIN_CONFIG@F3090
   135   00173E  62                 	db	98
   136                           
   137                           ;initializer for MSSP_SPI_MASTER_MODE_GPIO_PIN_CONFIG@F3088
   138   00173F  2A                 	db	42
   139                           
   140                           ;initializer for _RB7_Flag
   141   001740  01                 	db	1
   142                           
   143                           ;initializer for _RB6_Flag
   144   001741  01                 	db	1
   145                           
   146                           ;initializer for _RB5_Flag
   147   001742  01                 	db	1
   148                           
   149                           ;initializer for _RB4_Flag
   150   001743  01                 	db	1
   151                           
   152                           ;initializer for _spi_ob
   153   001744  00                 	db	0
   154   001745  00                 	db	0
   155   001746  00                 	db	0
   156   001747  28                 	db	40
   157                           
   158                           	psect	smallconst
   159   001000                     __psmallconst:
   160                           	callstack 0
   161   001000  00                 	db	0
   162   001001  37                 	db	55
   163   001002  38                 	db	56
   164   001003  39                 	db	57
   165   001004  2F                 	db	47
   166   001005  34                 	db	52
   167   001006  35                 	db	53
   168   001007  36                 	db	54
   169   001008  2A                 	db	42
   170   001009  31                 	db	49
   171   00100A  32                 	db	50
   172   00100B  33                 	db	51
   173   00100C  2D                 	db	45
   174   00100D  23                 	db	35
   175   00100E  38                 	db	56
   176   00100F  3D                 	db	61
   177   001010  2B                 	db	43
   178   001011                     __end_of_btn_values:
   179                           	callstack 0
   180   000000                     _INTCON2bits	set	4081
   181   000000                     _TRISCbits	set	3988
   182   000000                     _EECON2	set	4007
   183   000000                     _ADRESL	set	4035
   184   000000                     _ADRESH	set	4036
   185   000000                     _INTCONbits	set	4082
   186   000000                     _TRISD	set	3989
   187   000000                     _TRISB	set	3987
   188   000000                     _TRISE	set	3990
   189   000000                     _PORTBbits	set	3969
   190   000000                     _TRISC	set	3988
   191   000000                     _PIE1bits	set	3997
   192   000000                     _ADCON2bits	set	4032
   193   000000                     _ADCON1bits	set	4033
   194   000000                     _ADCON0bits	set	4034
   195   000000                     _PORTE	set	3972
   196   000000                     _PORTD	set	3971
   197   000000                     _PORTC	set	3970
   198   000000                     _PORTB	set	3969
   199   000000                     _PORTA	set	3968
   200   000000                     _LATA	set	3977
   201   000000                     _TRISA	set	3986
   202   000000                     _EECON1bits	set	4006
   203   000000                     _EEDATA	set	4008
   204   000000                     _EEADR	set	4009
   205   000000                     _EEADRH	set	4010
   206   000000                     _PIR1bits	set	3998
   207   000000                     _SSPCON1bits	set	4038
   208   000000                     _T0CONbits	set	4053
   209   000000                     _INTCON3bits	set	4080
   210   000000                     _SPBRGH	set	4016
   211   000000                     _SPBRG	set	4015
   212   000000                     _BAUDCONbits	set	4024
   213   000000                     _RCREG	set	4014
   214   000000                     _TXREG	set	4013
   215   000000                     _TXSTAbits	set	4012
   216   000000                     _RCSTAbits	set	4011
   217   000000                     _LATE	set	3981
   218   000000                     _LATD	set	3980
   219   000000                     _LATC	set	3979
   220   000000                     _LATB	set	3978
   221   000000                     _TMR0H	set	4055
   222   000000                     _TMR0L	set	4054
   223   000000                     _SSPBUF	set	4041
   224   000000                     _SSPSTATbits	set	4039
   225   001011                     STR_1:
   226   001011  25                 	db	37
   227   001012  69                 	db	105	;'i'
   228   001013  00                 	db	0
   229   001014  00                 	db	0	; dummy byte at the end
   230   000000                     
   231                           ; #config settings
   232                           
   233                           	psect	cinit
   234   00169C                     __pcinit:
   235                           	callstack 0
   236   00169C                     start_initialization:
   237                           	callstack 0
   238   00169C                     __initialization:
   239                           	callstack 0
   240                           
   241                           ; Initialize objects allocated to COMRAM (50 bytes)
   242                           ; load TBLPTR registers with __pidataCOMRAM
   243   00169C  0E16               	movlw	low __pidataCOMRAM
   244   00169E  6EF6               	movwf	tblptrl,c
   245   0016A0  0E17               	movlw	high __pidataCOMRAM
   246   0016A2  6EF7               	movwf	tblptrh,c
   247   0016A4  0E00               	movlw	low (__pidataCOMRAM shr (0+16))
   248   0016A6  6EF8               	movwf	tblptru,c
   249   0016A8  EE00  F001         	lfsr	0,__pdataCOMRAM
   250   0016AC  EE10 F032          	lfsr	1,50
   251   0016B0                     copy_data0:
   252   0016B0  0009               	tblrd		*+
   253   0016B2  CFF5 FFEE          	movff	tablat,postinc0
   254   0016B6  50E5               	movf	postdec1,w,c
   255   0016B8  50E1               	movf	fsr1l,w,c
   256   0016BA  E1FA               	bnz	copy_data0
   257                           
   258                           ; Clear objects allocated to BANK0 (6 bytes)
   259   0016BC  0100               	movlb	0
   260   0016BE  6B85               	clrf	(__pbssBANK0+5)& (0+255),b
   261   0016C0  6B84               	clrf	(__pbssBANK0+4)& (0+255),b
   262   0016C2  6B83               	clrf	(__pbssBANK0+3)& (0+255),b
   263   0016C4  6B82               	clrf	(__pbssBANK0+2)& (0+255),b
   264   0016C6  6B81               	clrf	(__pbssBANK0+1)& (0+255),b
   265   0016C8  6B80               	clrf	__pbssBANK0& (0+255),b
   266                           
   267                           ; Clear objects allocated to COMRAM (45 bytes)
   268   0016CA  EE00  F033         	lfsr	0,__pbssCOMRAM
   269   0016CE  0E2D               	movlw	45
   270   0016D0                     clear_0:
   271   0016D0  6AEE               	clrf	postinc0,c
   272   0016D2  06E8               	decf	wreg,f,c
   273   0016D4  E1FD               	bnz	clear_0
   274   0016D6                     end_of_initialization:
   275                           	callstack 0
   276   0016D6                     __end_of__initialization:
   277                           	callstack 0
   278   0016D6  907D               	bcf	int$flags,0,c	;clear compiler interrupt flag (level 1)
   279   0016D8  927D               	bcf	int$flags,1,c	;clear compiler interrupt flag (level 2)
   280   0016DA  0100               	movlb	0
   281   0016DC  EFDC  F00A         	goto	_main	;jump to C main() function
   282                           
   283                           	psect	bssCOMRAM
   284   000033                     __pbssCOMRAM:
   285                           	callstack 0
   286   000033                     	ds	2
   287   000035                     _timer0_preload:
   288                           	callstack 0
   289   000035                     	ds	2
   290   000037                     _TMR0_InterruptHandler:
   291                           	callstack 0
   292   000037                     	ds	2
   293   000039                     _RB7_InterruptHandler_LOW:
   294                           	callstack 0
   295   000039                     	ds	2
   296   00003B                     _RB7_InterruptHandler_HIGH:
   297                           	callstack 0
   298   00003B                     	ds	2
   299   00003D                     _RB6_InterruptHandler_LOW:
   300                           	callstack 0
   301   00003D                     	ds	2
   302   00003F                     _RB6_InterruptHandler_HIGH:
   303                           	callstack 0
   304   00003F                     	ds	2
   305   000041                     _RB5_InterruptHandler_LOW:
   306                           	callstack 0
   307   000041                     	ds	2
   308   000043                     _RB5_InterruptHandler_HIGH:
   309                           	callstack 0
   310   000043                     	ds	2
   311   000045                     _RB4_InterruptHandler_LOW:
   312                           	callstack 0
   313   000045                     	ds	2
   314   000047                     _RB4_InterruptHandler_HIGH:
   315                           	callstack 0
   316   000047                     	ds	2
   317   000049                     _INT2_InterruptHandler:
   318                           	callstack 0
   319   000049                     	ds	2
   320   00004B                     _INT1_InterruptHandler:
   321                           	callstack 0
   322   00004B                     	ds	2
   323   00004D                     _INT0_InterruptHandler:
   324                           	callstack 0
   325   00004D                     	ds	2
   326   00004F                     _EUSART_OverrunErrorHandler:
   327                           	callstack 0
   328   00004F                     	ds	2
   329   000051                     _EUSART_FramingErrorHandler:
   330                           	callstack 0
   331   000051                     	ds	2
   332   000053                     _EUSART_RxInterruptHandler:
   333                           	callstack 0
   334   000053                     	ds	2
   335   000055                     _EUSART_TxInterruptHandler:
   336                           	callstack 0
   337   000055                     	ds	2
   338   000057                     _ADC_InterruptHandler:
   339                           	callstack 0
   340   000057                     	ds	2
   341   000059                     relay_turn_off@F3049:
   342                           	callstack 0
   343   000059                     	ds	1
   344   00005A                     relay_turn_on@F3044:
   345                           	callstack 0
   346   00005A                     	ds	1
   347   00005B                     relay_initialize@F3039:
   348                           	callstack 0
   349   00005B                     	ds	1
   350   00005C                     led_turn_toggle@F3060:
   351                           	callstack 0
   352   00005C                     	ds	1
   353   00005D                     led_turn_off@F3055:
   354                           	callstack 0
   355   00005D                     	ds	1
   356   00005E                     led_turn_on@F3050:
   357                           	callstack 0
   358   00005E                     	ds	1
   359   00005F                     led_initialize@F3045:
   360                           	callstack 0
   361   00005F                     	ds	1
   362                           
   363                           	psect	dataCOMRAM
   364   000001                     __pdataCOMRAM:
   365                           	callstack 0
   366   000001                     _port_registers:
   367                           	callstack 0
   368   000001                     	ds	10
   369   00000B                     _lat_registers:
   370                           	callstack 0
   371   00000B                     	ds	10
   372   000015                     _tris_registers:
   373                           	callstack 0
   374   000015                     	ds	10
   375   00001F                     main@F3342:
   376                           	callstack 0
   377   00001F                     	ds	5
   378   000024                     MSSP_SPI_SLAVE_MODE_GPIO_PIN_CONFIG@F3103:
   379                           	callstack 0
   380   000024                     	ds	1
   381   000025                     MSSP_SPI_SLAVE_MODE_GPIO_PIN_CONFIG@F3101:
   382                           	callstack 0
   383   000025                     	ds	1
   384   000026                     MSSP_SPI_SLAVE_MODE_GPIO_PIN_CONFIG@F3099:
   385                           	callstack 0
   386   000026                     	ds	1
   387   000027                     MSSP_SPI_SLAVE_MODE_GPIO_PIN_CONFIG@F3097:
   388                           	callstack 0
   389   000027                     	ds	1
   390   000028                     MSSP_SPI_MASTER_MODE_GPIO_PIN_CONFIG@F3092:
   391                           	callstack 0
   392   000028                     	ds	1
   393   000029                     MSSP_SPI_MASTER_MODE_GPIO_PIN_CONFIG@F3090:
   394                           	callstack 0
   395   000029                     	ds	1
   396   00002A                     MSSP_SPI_MASTER_MODE_GPIO_PIN_CONFIG@F3088:
   397                           	callstack 0
   398   00002A                     	ds	1
   399   00002B                     _RB7_Flag:
   400                           	callstack 0
   401   00002B                     	ds	1
   402   00002C                     _RB6_Flag:
   403                           	callstack 0
   404   00002C                     	ds	1
   405   00002D                     _RB5_Flag:
   406                           	callstack 0
   407   00002D                     	ds	1
   408   00002E                     _RB4_Flag:
   409                           	callstack 0
   410   00002E                     	ds	1
   411   00002F                     _spi_ob:
   412                           	callstack 0
   413   00002F                     	ds	4
   414                           
   415                           	psect	bssBANK0
   416   000080                     __pbssBANK0:
   417                           	callstack 0
   418   000080                     	ds	6
   419                           
   420                           	psect	cstackCOMRAM
   421   000060                     __pcstackCOMRAM:
   422                           	callstack 0
   423   000060                     RB4_ISR@RB4_Source:
   424                           	callstack 0
   425   000060                     RB5_ISR@RB5_Source:
   426                           	callstack 0
   427   000060                     RB6_ISR@RB6_Source:
   428                           	callstack 0
   429   000060                     RB7_ISR@RB7_Source:
   430                           	callstack 0
   431                           
   432                           ; 1 bytes @ 0x0
   433   000060                     	ds	1
   434   000061                     gpio_pin_direction_initialize@_pin_config:
   435                           	callstack 0
   436   000061                     SPI_Send_Byte@_config:
   437                           	callstack 0
   438                           
   439                           ; 2 bytes @ 0x1
   440   000061                     	ds	2
   441   000063                     ??_gpio_pin_direction_initialize:
   442   000063                     SPI_Send_Byte@_data:
   443                           	callstack 0
   444                           
   445                           ; 1 bytes @ 0x3
   446   000063                     	ds	1
   447   000064                     SPI_Send_Byte@ret:
   448                           	callstack 0
   449                           
   450                           ; 1 bytes @ 0x4
   451   000064                     	ds	5
   452   000069                     gpio_pin_direction_initialize@ret:
   453                           	callstack 0
   454                           
   455                           ; 1 bytes @ 0x9
   456   000069                     	ds	1
   457   00006A                     MSSP_SPI_MASTER_MODE_GPIO_PIN_CONFIG@SPI_SDO:
   458                           	callstack 0
   459   00006A                     MSSP_SPI_SLAVE_MODE_GPIO_PIN_CONFIG@_config:
   460                           	callstack 0
   461                           
   462                           ; 2 bytes @ 0xA
   463   00006A                     	ds	1
   464   00006B                     MSSP_SPI_MASTER_MODE_GPIO_PIN_CONFIG@SPI_SDI:
   465                           	callstack 0
   466                           
   467                           ; 1 bytes @ 0xB
   468   00006B                     	ds	1
   469   00006C                     MSSP_SPI_MASTER_MODE_GPIO_PIN_CONFIG@SPI_CLK:
   470                           	callstack 0
   471   00006C                     MSSP_SPI_SLAVE_MODE_GPIO_PIN_CONFIG@SPI_SDO:
   472                           	callstack 0
   473                           
   474                           ; 1 bytes @ 0xC
   475   00006C                     	ds	1
   476   00006D                     MSSP_SPI_SLAVE_MODE_GPIO_PIN_CONFIG@SPI_SDI:
   477                           	callstack 0
   478                           
   479                           ; 1 bytes @ 0xD
   480   00006D                     	ds	1
   481   00006E                     MSSP_SPI_SLAVE_MODE_GPIO_PIN_CONFIG@SPI_CLK:
   482                           	callstack 0
   483                           
   484                           ; 1 bytes @ 0xE
   485   00006E                     	ds	1
   486   00006F                     MSSP_SPI_SLAVE_MODE_GPIO_PIN_CONFIG@SPI_SS:
   487                           	callstack 0
   488                           
   489                           ; 1 bytes @ 0xF
   490   00006F                     	ds	1
   491   000070                     SPI_Init@_config:
   492                           	callstack 0
   493                           
   494                           ; 2 bytes @ 0x10
   495   000070                     	ds	2
   496   000072                     ??_SPI_Init:
   497                           
   498                           ; 1 bytes @ 0x12
   499   000072                     	ds	1
   500   000073                     SPI_Init@ret:
   501                           	callstack 0
   502                           
   503                           ; 1 bytes @ 0x13
   504   000073                     	ds	1
   505   000074                     ??_main:
   506                           
   507                           ; 1 bytes @ 0x14
   508   000074                     	ds	2
   509   000076                     main@str:
   510                           	callstack 0
   511                           
   512                           ; 5 bytes @ 0x16
   513   000076                     	ds	5
   514   00007B                     main@i:
   515                           	callstack 0
   516                           
   517                           ; 2 bytes @ 0x1B
   518   00007B                     	ds	2
   519                           
   520 ;;
   521 ;;Main: autosize = 0, tempsize = 2, incstack = 0, save=0
   522 ;;
   523 ;; *************** function _main *****************
   524 ;; Defined at:
   525 ;;		line 19 in file "appplication.c"
   526 ;; Parameters:    Size  Location     Type
   527 ;;		None
   528 ;; Auto vars:     Size  Location     Type
   529 ;;  i               2   27[COMRAM] int 
   530 ;;  str             5   22[COMRAM] unsigned char [5]
   531 ;;  ret             1    0        unsigned char 
   532 ;; Return value:  Size  Location     Type
   533 ;;                  2  1111[None  ] int 
   534 ;; Registers used:
   535 ;;		wreg, fsr1l, fsr1h, fsr2l, fsr2h, status,2, status,0, prodl, prodh, cstack
   536 ;; Tracked objects:
   537 ;;		On entry : 0/0
   538 ;;		On exit  : 0/0
   539 ;;		Unchanged: 0/0
   540 ;; Data sizes:     COMRAM   BANK0   BANK1   BANK2   BANK3   BANK4   BANK5   BANK6   BANK7   BANK8   BANK9  BANK10  BANK1
      +1  BANK12  BANK13  BANK14  BANK15
   541 ;;      Params:         0       0       0       0       0       0       0       0       0       0       0       0       
      +0       0       0       0       0
   542 ;;      Locals:         7       0       0       0       0       0       0       0       0       0       0       0       
      +0       0       0       0       0
   543 ;;      Temps:          2       0       0       0       0       0       0       0       0       0       0       0       
      +0       0       0       0       0
   544 ;;      Totals:         9       0       0       0       0       0       0       0       0       0       0       0       
      +0       0       0       0       0
   545 ;;Total ram usage:        9 bytes
   546 ;; Hardware stack levels required when called: 5
   547 ;; This function calls:
   548 ;;		_SPI_Init
   549 ;;		_SPI_Send_Byte
   550 ;; This function is called by:
   551 ;;		Startup code after reset
   552 ;; This function uses a non-reentrant model
   553 ;;
   554                           
   555                           	psect	text0
   556   0015B8                     __ptext0:
   557                           	callstack 0
   558   0015B8                     _main:
   559                           	callstack 26
   560   0015B8  0E2F               	movlw	low _spi_ob
   561   0015BA  6E70               	movwf	SPI_Init@_config^0,c
   562   0015BC  0E00               	movlw	high _spi_ob
   563   0015BE  6E71               	movwf	(SPI_Init@_config+1)^0,c
   564   0015C0  EC8E  F009         	call	_SPI_Init	;wreg free
   565   0015C4                     
   566                           ;appplication.c: 23:     uint8 str[]="yous";
   567   0015C4  EE20  F01F         	lfsr	2,main@F3342
   568   0015C8  EE10  F076         	lfsr	1,main@str
   569   0015CC  0E04               	movlw	4
   570   0015CE                     u2941:
   571   0015CE  CFDB FFE3          	movff	plusw2,plusw1
   572   0015D2  06E8               	decf	wreg,f,c
   573   0015D4  E2FC               	bc	u2941
   574   0015D6                     l4353:
   575                           
   576                           ;appplication.c: 26:     {;appplication.c: 27:         for(int i=0;i<4;i++){
   577   0015D6  0E00               	movlw	0
   578   0015D8  6E7C               	movwf	(main@i+1)^0,c
   579   0015DA  0E00               	movlw	0
   580   0015DC  6E7B               	movwf	main@i^0,c
   581   0015DE                     l4359:
   582   0015DE  0E2F               	movlw	low _spi_ob
   583   0015E0  6E61               	movwf	SPI_Send_Byte@_config^0,c
   584   0015E2  0E00               	movlw	high _spi_ob
   585   0015E4  6E62               	movwf	(SPI_Send_Byte@_config+1)^0,c
   586   0015E6  0E76               	movlw	low main@str
   587   0015E8  247B               	addwf	main@i^0,w,c
   588   0015EA  6ED9               	movwf	fsr2l,c
   589   0015EC  0E00               	movlw	high main@str
   590   0015EE  207C               	addwfc	(main@i+1)^0,w,c
   591   0015F0  6EDA               	movwf	fsr2h,c
   592   0015F2  50DF               	movf	indf2,w,c
   593   0015F4  6E63               	movwf	SPI_Send_Byte@_data^0,c
   594   0015F6  EC70  F00B         	call	_SPI_Send_Byte	;wreg free
   595   0015FA                     
   596                           ;appplication.c: 29:             _delay((unsigned long)((100)*(8000000UL/4000.0)));
   597   0015FA  0E02               	movlw	2
   598   0015FC  6E75               	movwf	(??_main+1)^0,c
   599   0015FE  0E04               	movlw	4
   600   001600  6E74               	movwf	??_main^0,c
   601   001602  0EBA               	movlw	186
   602   001604                     u2967:
   603   001604  2EE8               	decfsz	wreg,f,c
   604   001606  D7FE               	bra	u2967
   605   001608  2E74               	decfsz	??_main^0,f,c
   606   00160A  D7FC               	bra	u2967
   607   00160C  2E75               	decfsz	(??_main+1)^0,f,c
   608   00160E  D7FA               	bra	u2967
   609   001610  D000               	nop2	
   610   001612                     
   611                           ;appplication.c: 30:         }
   612   001612  4A7B               	infsnz	main@i^0,f,c
   613   001614  2A7C               	incf	(main@i+1)^0,f,c
   614   001616  BE7C               	btfsc	(main@i+1)^0,7,c
   615   001618  EF17  F00B         	goto	u2951
   616   00161C  507C               	movf	(main@i+1)^0,w,c
   617   00161E  E109               	bnz	u2950
   618   001620  0E04               	movlw	4
   619   001622  5C7B               	subwf	main@i^0,w,c
   620   001624  A0D8               	btfss	status,0,c
   621   001626  EF17  F00B         	goto	u2951
   622   00162A  EF19  F00B         	goto	u2950
   623   00162E                     u2951:
   624   00162E  EFEF  F00A         	goto	l4359
   625   001632                     u2950:
   626   001632  EFEB  F00A         	goto	l4353
   627   001636  EF07  F000         	goto	start
   628   00163A                     __end_of_main:
   629                           	callstack 0
   630                           
   631 ;; *************** function _SPI_Send_Byte *****************
   632 ;; Defined at:
   633 ;;		line 78 in file "MCAL_Layer/SPI/hal_spi.c"
   634 ;; Parameters:    Size  Location     Type
   635 ;;  _config         2    1[COMRAM] PTR struct .
   636 ;;		 -> spi_ob(4), 
   637 ;;  _data           1    3[COMRAM] const unsigned char 
   638 ;; Auto vars:     Size  Location     Type
   639 ;;  ret             1    4[COMRAM] unsigned char 
   640 ;; Return value:  Size  Location     Type
   641 ;;                  1    wreg      unsigned char 
   642 ;; Registers used:
   643 ;;		wreg, status,2, status,0
   644 ;; Tracked objects:
   645 ;;		On entry : 0/0
   646 ;;		On exit  : 0/0
   647 ;;		Unchanged: 0/0
   648 ;; Data sizes:     COMRAM   BANK0   BANK1   BANK2   BANK3   BANK4   BANK5   BANK6   BANK7   BANK8   BANK9  BANK10  BANK1
      +1  BANK12  BANK13  BANK14  BANK15
   649 ;;      Params:         3       0       0       0       0       0       0       0       0       0       0       0       
      +0       0       0       0       0
   650 ;;      Locals:         1       0       0       0       0       0       0       0       0       0       0       0       
      +0       0       0       0       0
   651 ;;      Temps:          0       0       0       0       0       0       0       0       0       0       0       0       
      +0       0       0       0       0
   652 ;;      Totals:         4       0       0       0       0       0       0       0       0       0       0       0       
      +0       0       0       0       0
   653 ;;Total ram usage:        4 bytes
   654 ;; Hardware stack levels used: 1
   655 ;; Hardware stack levels required when called: 2
   656 ;; This function calls:
   657 ;;		Nothing
   658 ;; This function is called by:
   659 ;;		_main
   660 ;; This function uses a non-reentrant model
   661 ;;
   662                           
   663                           	psect	text1
   664   0016E0                     __ptext1:
   665                           	callstack 0
   666   0016E0                     _SPI_Send_Byte:
   667                           	callstack 28
   668   0016E0                     
   669                           ;MCAL_Layer/SPI/hal_spi.c: 80:     if(((void*)0) == _config){
   670   0016E0  5061               	movf	SPI_Send_Byte@_config^0,w,c
   671   0016E2  1062               	iorwf	(SPI_Send_Byte@_config+1)^0,w,c
   672   0016E4  A4D8               	btfss	status,2,c
   673   0016E6  EF77  F00B         	goto	u2631
   674   0016EA  EF79  F00B         	goto	u2630
   675   0016EE                     u2631:
   676   0016EE  EF7D  F00B         	goto	l1159
   677   0016F2                     u2630:
   678   0016F2                     
   679                           ;MCAL_Layer/SPI/hal_spi.c: 81:         ret = (Std_ReturnType)0x00;
   680   0016F2  0E00               	movlw	0
   681   0016F4  6E64               	movwf	SPI_Send_Byte@ret^0,c
   682                           
   683                           ;MCAL_Layer/SPI/hal_spi.c: 82:     }
   684   0016F6  EF89  F00B         	goto	l1160
   685   0016FA                     l1159:
   686                           
   687                           ;MCAL_Layer/SPI/hal_spi.c: 84:         SSPBUF = _data;
   688   0016FA  C063  FFC9         	movff	SPI_Send_Byte@_data,4041	;volatile
   689   0016FE                     l1161:
   690   0016FE  A69E               	btfss	158,3,c	;volatile
   691   001700  EF84  F00B         	goto	u2641
   692   001704  EF86  F00B         	goto	u2640
   693   001708                     u2641:
   694   001708  EF7F  F00B         	goto	l1161
   695   00170C                     u2640:
   696   00170C                     
   697                           ;MCAL_Layer/SPI/hal_spi.c: 86:         PIR1bits.SSPIF=0;
   698   00170C  969E               	bcf	158,3,c	;volatile
   699   00170E                     
   700                           ;MCAL_Layer/SPI/hal_spi.c: 90:         ret = (Std_ReturnType)0x01;
   701   00170E  0E01               	movlw	1
   702   001710  6E64               	movwf	SPI_Send_Byte@ret^0,c
   703   001712                     l1160:
   704                           
   705                           ;MCAL_Layer/SPI/hal_spi.c: 92:     return ret;
   706   001712  5064               	movf	SPI_Send_Byte@ret^0,w,c
   707   001714  0012               	return		;funcret
   708   001716                     __end_of_SPI_Send_Byte:
   709                           	callstack 0
   710                           
   711 ;; *************** function _SPI_Init *****************
   712 ;; Defined at:
   713 ;;		line 20 in file "MCAL_Layer/SPI/hal_spi.c"
   714 ;; Parameters:    Size  Location     Type
   715 ;;  _config         2   16[COMRAM] PTR struct .
   716 ;;		 -> spi_ob(4), 
   717 ;; Auto vars:     Size  Location     Type
   718 ;;  ret             1   19[COMRAM] unsigned char 
   719 ;; Return value:  Size  Location     Type
   720 ;;                  1    wreg      unsigned char 
   721 ;; Registers used:
   722 ;;		wreg, fsr2l, fsr2h, status,2, status,0, prodl, prodh, cstack
   723 ;; Tracked objects:
   724 ;;		On entry : 0/0
   725 ;;		On exit  : 0/0
   726 ;;		Unchanged: 0/0
   727 ;; Data sizes:     COMRAM   BANK0   BANK1   BANK2   BANK3   BANK4   BANK5   BANK6   BANK7   BANK8   BANK9  BANK10  BANK1
      +1  BANK12  BANK13  BANK14  BANK15
   728 ;;      Params:         2       0       0       0       0       0       0       0       0       0       0       0       
      +0       0       0       0       0
   729 ;;      Locals:         1       0       0       0       0       0       0       0       0       0       0       0       
      +0       0       0       0       0
   730 ;;      Temps:          1       0       0       0       0       0       0       0       0       0       0       0       
      +0       0       0       0       0
   731 ;;      Totals:         4       0       0       0       0       0       0       0       0       0       0       0       
      +0       0       0       0       0
   732 ;;Total ram usage:        4 bytes
   733 ;; Hardware stack levels used: 1
   734 ;; Hardware stack levels required when called: 4
   735 ;; This function calls:
   736 ;;		_MSSP_SPI_MASTER_MODE_GPIO_PIN_CONFIG
   737 ;;		_MSSP_SPI_SLAVE_MODE_GPIO_PIN_CONFIG
   738 ;; This function is called by:
   739 ;;		_main
   740 ;; This function uses a non-reentrant model
   741 ;;
   742                           
   743                           	psect	text2
   744   00131C                     __ptext2:
   745                           	callstack 0
   746   00131C                     _SPI_Init:
   747                           	callstack 26
   748   00131C                     
   749                           ;MCAL_Layer/SPI/hal_spi.c: 22:     if(((void*)0) == _config){
   750   00131C  5070               	movf	SPI_Init@_config^0,w,c
   751   00131E  1071               	iorwf	(SPI_Init@_config+1)^0,w,c
   752   001320  A4D8               	btfss	status,2,c
   753   001322  EF95  F009         	goto	u2531
   754   001326  EF97  F009         	goto	u2530
   755   00132A                     u2531:
   756   00132A  EF9B  F009         	goto	l1142
   757   00132E                     u2530:
   758   00132E                     
   759                           ;MCAL_Layer/SPI/hal_spi.c: 23:         ret = (Std_ReturnType)0x00;
   760   00132E  0E00               	movlw	0
   761   001330  6E73               	movwf	SPI_Init@ret^0,c
   762                           
   763                           ;MCAL_Layer/SPI/hal_spi.c: 24:     }
   764   001332  EF38  F00A         	goto	l3995
   765   001336                     l1142:
   766                           
   767                           ;MCAL_Layer/SPI/hal_spi.c: 27:         (SSPCON1bits.SSPEN = 0);
   768   001336  9AC6               	bcf	198,5,c	;volatile
   769   001338                     
   770                           ;MCAL_Layer/SPI/hal_spi.c: 30:         SSPCON1bits.SSPM = _config->spi_mode;
   771   001338  EE20 F003          	lfsr	2,3
   772   00133C  5070               	movf	SPI_Init@_config^0,w,c
   773   00133E  26D9               	addwf	fsr2l,f,c
   774   001340  5071               	movf	(SPI_Init@_config+1)^0,w,c
   775   001342  22DA               	addwfc	fsr2h,f,c
   776   001344  50DF               	movf	223,w,c
   777   001346  0B07               	andlw	7
   778   001348  6E72               	movwf	??_SPI_Init^0,c
   779   00134A  50C6               	movf	198,w,c	;volatile
   780   00134C  1872               	xorwf	??_SPI_Init^0,w,c
   781   00134E  0BF0               	andlw	-16
   782   001350  1872               	xorwf	??_SPI_Init^0,w,c
   783   001352  6EC6               	movwf	198,c	;volatile
   784                           
   785                           ;MCAL_Layer/SPI/hal_spi.c: 33:         if(0 == _config->spi_mode || 1 ==_config->spi_mod
      +                          e ||
   786   001354  EE20 F003          	lfsr	2,3
   787   001358  5070               	movf	SPI_Init@_config^0,w,c
   788   00135A  26D9               	addwf	fsr2l,f,c
   789   00135C  5071               	movf	(SPI_Init@_config+1)^0,w,c
   790   00135E  22DA               	addwfc	fsr2h,f,c
   791   001360  50DF               	movf	223,w,c
   792   001362  0B07               	andlw	7
   793   001364  0900               	iorlw	0
   794   001366  B4D8               	btfsc	status,2,c
   795   001368  EFB8  F009         	goto	u2541
   796   00136C  EFBA  F009         	goto	u2540
   797   001370                     u2541:
   798   001370  EFEA  F009         	goto	l3977
   799   001374                     u2540:
   800   001374  EE20 F003          	lfsr	2,3
   801   001378  5070               	movf	SPI_Init@_config^0,w,c
   802   00137A  26D9               	addwf	fsr2l,f,c
   803   00137C  5071               	movf	(SPI_Init@_config+1)^0,w,c
   804   00137E  22DA               	addwfc	fsr2h,f,c
   805   001380  50DF               	movf	223,w,c
   806   001382  0B07               	andlw	7
   807   001384  06E8               	decf	wreg,f,c
   808   001386  B4D8               	btfsc	status,2,c
   809   001388  EFC8  F009         	goto	u2551
   810   00138C  EFCA  F009         	goto	u2550
   811   001390                     u2551:
   812   001390  EFEA  F009         	goto	l3977
   813   001394                     u2550:
   814   001394  EE20 F003          	lfsr	2,3
   815   001398  5070               	movf	SPI_Init@_config^0,w,c
   816   00139A  26D9               	addwf	fsr2l,f,c
   817   00139C  5071               	movf	(SPI_Init@_config+1)^0,w,c
   818   00139E  22DA               	addwfc	fsr2h,f,c
   819   0013A0  50DF               	movf	223,w,c
   820   0013A2  0B07               	andlw	7
   821   0013A4  0A02               	xorlw	2
   822   0013A6  B4D8               	btfsc	status,2,c
   823   0013A8  EFD8  F009         	goto	u2561
   824   0013AC  EFDA  F009         	goto	u2560
   825   0013B0                     u2561:
   826   0013B0  EFEA  F009         	goto	l3977
   827   0013B4                     u2560:
   828   0013B4  EE20 F003          	lfsr	2,3
   829   0013B8  5070               	movf	SPI_Init@_config^0,w,c
   830   0013BA  26D9               	addwf	fsr2l,f,c
   831   0013BC  5071               	movf	(SPI_Init@_config+1)^0,w,c
   832   0013BE  22DA               	addwfc	fsr2h,f,c
   833   0013C0  50DF               	movf	223,w,c
   834   0013C2  0B07               	andlw	7
   835   0013C4  0A03               	xorlw	3
   836   0013C6  A4D8               	btfss	status,2,c
   837   0013C8  EFE8  F009         	goto	u2571
   838   0013CC  EFEA  F009         	goto	u2570
   839   0013D0                     u2571:
   840   0013D0  EFEE  F009         	goto	l3979
   841   0013D4                     u2570:
   842   0013D4                     l3977:
   843                           
   844                           ;MCAL_Layer/SPI/hal_spi.c: 35:         {;MCAL_Layer/SPI/hal_spi.c: 36:             MSSP_
      +                          SPI_MASTER_MODE_GPIO_PIN_CONFIG();
   845   0013D4  ECA4  F00B         	call	_MSSP_SPI_MASTER_MODE_GPIO_PIN_CONFIG	;wreg free
   846                           
   847                           ;MCAL_Layer/SPI/hal_spi.c: 37:         }
   848   0013D8  EF14  F00A         	goto	l3985
   849   0013DC                     l3979:
   850   0013DC  EE20 F003          	lfsr	2,3
   851   0013E0  5070               	movf	SPI_Init@_config^0,w,c
   852   0013E2  26D9               	addwf	fsr2l,f,c
   853   0013E4  5071               	movf	(SPI_Init@_config+1)^0,w,c
   854   0013E6  22DA               	addwfc	fsr2h,f,c
   855   0013E8  50DF               	movf	223,w,c
   856   0013EA  0B07               	andlw	7
   857   0013EC  0A04               	xorlw	4
   858   0013EE  B4D8               	btfsc	status,2,c
   859   0013F0  EFFC  F009         	goto	u2581
   860   0013F4  EFFE  F009         	goto	u2580
   861   0013F8                     u2581:
   862   0013F8  EF0E  F00A         	goto	l3983
   863   0013FC                     u2580:
   864   0013FC  EE20 F003          	lfsr	2,3
   865   001400  5070               	movf	SPI_Init@_config^0,w,c
   866   001402  26D9               	addwf	fsr2l,f,c
   867   001404  5071               	movf	(SPI_Init@_config+1)^0,w,c
   868   001406  22DA               	addwfc	fsr2h,f,c
   869   001408  50DF               	movf	223,w,c
   870   00140A  0B07               	andlw	7
   871   00140C  0A05               	xorlw	5
   872   00140E  A4D8               	btfss	status,2,c
   873   001410  EF0C  F00A         	goto	u2591
   874   001414  EF0E  F00A         	goto	u2590
   875   001418                     u2591:
   876   001418  EF14  F00A         	goto	l3985
   877   00141C                     u2590:
   878   00141C                     l3983:
   879                           
   880                           ;MCAL_Layer/SPI/hal_spi.c: 39:         {;MCAL_Layer/SPI/hal_spi.c: 40:             MSSP_
      +                          SPI_SLAVE_MODE_GPIO_PIN_CONFIG(_config);
   881   00141C  C070  F06A         	movff	SPI_Init@_config,MSSP_SPI_SLAVE_MODE_GPIO_PIN_CONFIG@_config
   882   001420  C071  F06B         	movff	SPI_Init@_config+1,MSSP_SPI_SLAVE_MODE_GPIO_PIN_CONFIG@_config+1
   883   001424  EC1D  F00B         	call	_MSSP_SPI_SLAVE_MODE_GPIO_PIN_CONFIG	;wreg free
   884   001428                     l3985:
   885                           
   886                           ;MCAL_Layer/SPI/hal_spi.c: 44:         SSPCON1bits.CKP = _config->ClockPolarity;
   887   001428  EE20 F003          	lfsr	2,3
   888   00142C  5070               	movf	SPI_Init@_config^0,w,c
   889   00142E  26D9               	addwf	fsr2l,f,c
   890   001430  5071               	movf	(SPI_Init@_config+1)^0,w,c
   891   001432  22DA               	addwfc	fsr2h,f,c
   892   001434  A6DF               	btfss	indf2,3,c
   893   001436  D002               	bra	u2605
   894   001438  88C6               	bsf	198,4,c	;volatile
   895   00143A  D001               	bra	u2607
   896   00143C                     u2605:
   897   00143C  98C6               	bcf	198,4,c	;volatile
   898   00143E                     u2607:
   899   00143E                     
   900                           ;MCAL_Layer/SPI/hal_spi.c: 47:         SSPSTATbits.SMP = _config->SampleSelect;
   901   00143E  EE20 F003          	lfsr	2,3
   902   001442  5070               	movf	SPI_Init@_config^0,w,c
   903   001444  26D9               	addwf	fsr2l,f,c
   904   001446  5071               	movf	(SPI_Init@_config+1)^0,w,c
   905   001448  22DA               	addwfc	fsr2h,f,c
   906   00144A  A8DF               	btfss	indf2,4,c
   907   00144C  D002               	bra	u2615
   908   00144E  8EC7               	bsf	199,7,c	;volatile
   909   001450  D001               	bra	u2617
   910   001452                     u2615:
   911   001452  9EC7               	bcf	199,7,c	;volatile
   912   001454                     u2617:
   913   001454                     
   914                           ;MCAL_Layer/SPI/hal_spi.c: 50:         SSPSTATbits.CKE = _config->ClockSelect;
   915   001454  EE20 F003          	lfsr	2,3
   916   001458  5070               	movf	SPI_Init@_config^0,w,c
   917   00145A  26D9               	addwf	fsr2l,f,c
   918   00145C  5071               	movf	(SPI_Init@_config+1)^0,w,c
   919   00145E  22DA               	addwfc	fsr2h,f,c
   920   001460  AADF               	btfss	indf2,5,c
   921   001462  D002               	bra	u2625
   922   001464  8CC7               	bsf	199,6,c	;volatile
   923   001466  D001               	bra	u2627
   924   001468                     u2625:
   925   001468  9CC7               	bcf	199,6,c	;volatile
   926   00146A                     u2627:
   927   00146A                     
   928                           ;MCAL_Layer/SPI/hal_spi.c: 53:         (SSPCON1bits.SSPEN = 1);
   929   00146A  8AC6               	bsf	198,5,c	;volatile
   930   00146C                     
   931                           ;MCAL_Layer/SPI/hal_spi.c: 55:         ret = (Std_ReturnType)0x01;
   932   00146C  0E01               	movlw	1
   933   00146E  6E73               	movwf	SPI_Init@ret^0,c
   934   001470                     l3995:
   935                           
   936                           ;MCAL_Layer/SPI/hal_spi.c: 57:     return ret;
   937   001470  5073               	movf	SPI_Init@ret^0,w,c
   938   001472  0012               	return		;funcret
   939   001474                     __end_of_SPI_Init:
   940                           	callstack 0
   941                           
   942 ;; *************** function _MSSP_SPI_SLAVE_MODE_GPIO_PIN_CONFIG *****************
   943 ;; Defined at:
   944 ;;		line 147 in file "MCAL_Layer/SPI/hal_spi.c"
   945 ;; Parameters:    Size  Location     Type
   946 ;;  _config         2   10[COMRAM] PTR struct .
   947 ;;		 -> spi_ob(4), 
   948 ;; Auto vars:     Size  Location     Type
   949 ;;  SPI_SS          1   15[COMRAM] struct .
   950 ;;  SPI_CLK         1   14[COMRAM] struct .
   951 ;;  SPI_SDI         1   13[COMRAM] struct .
   952 ;;  SPI_SDO         1   12[COMRAM] struct .
   953 ;;  ret             1    0        unsigned char 
   954 ;; Return value:  Size  Location     Type
   955 ;;                  1    wreg      void 
   956 ;; Registers used:
   957 ;;		wreg, fsr2l, fsr2h, status,2, status,0, prodl, prodh, cstack
   958 ;; Tracked objects:
   959 ;;		On entry : 0/0
   960 ;;		On exit  : 0/0
   961 ;;		Unchanged: 0/0
   962 ;; Data sizes:     COMRAM   BANK0   BANK1   BANK2   BANK3   BANK4   BANK5   BANK6   BANK7   BANK8   BANK9  BANK10  BANK1
      +1  BANK12  BANK13  BANK14  BANK15
   963 ;;      Params:         2       0       0       0       0       0       0       0       0       0       0       0       
      +0       0       0       0       0
   964 ;;      Locals:         4       0       0       0       0       0       0       0       0       0       0       0       
      +0       0       0       0       0
   965 ;;      Temps:          0       0       0       0       0       0       0       0       0       0       0       0       
      +0       0       0       0       0
   966 ;;      Totals:         6       0       0       0       0       0       0       0       0       0       0       0       
      +0       0       0       0       0
   967 ;;Total ram usage:        6 bytes
   968 ;; Hardware stack levels used: 1
   969 ;; Hardware stack levels required when called: 3
   970 ;; This function calls:
   971 ;;		_gpio_pin_direction_initialize
   972 ;; This function is called by:
   973 ;;		_SPI_Init
   974 ;; This function uses a non-reentrant model
   975 ;;
   976                           
   977                           	psect	text3
   978   00163A                     __ptext3:
   979                           	callstack 0
   980   00163A                     _MSSP_SPI_SLAVE_MODE_GPIO_PIN_CONFIG:
   981                           	callstack 26
   982   00163A                     
   983                           ;MCAL_Layer/SPI/hal_spi.c: 150:     pin_config_t SPI_SDO = {.direction = GPIO_DIRECTION_
      +                          OUTPUT, .port = PORTC_INDEX, .pin = GPIO_PIN5};
   984   00163A  C027  F06C         	movff	MSSP_SPI_SLAVE_MODE_GPIO_PIN_CONFIG@F3097,MSSP_SPI_SLAVE_MODE_GPIO_PIN_CONFIG@SPI
      +                          _SDO
   985   00163E                     
   986                           ;MCAL_Layer/SPI/hal_spi.c: 151:     pin_config_t SPI_SDI = {.direction = GPIO_DIRECTION_
      +                          INPUT , .port = PORTC_INDEX, .pin = GPIO_PIN4};
   987   00163E  C026  F06D         	movff	MSSP_SPI_SLAVE_MODE_GPIO_PIN_CONFIG@F3099,MSSP_SPI_SLAVE_MODE_GPIO_PIN_CONFIG@SPI
      +                          _SDI
   988   001642                     
   989                           ;MCAL_Layer/SPI/hal_spi.c: 152:     pin_config_t SPI_CLK = {.direction = GPIO_DIRECTION_
      +                          OUTPUT, .port = PORTC_INDEX, .pin = GPIO_PIN3};
   990   001642  C025  F06E         	movff	MSSP_SPI_SLAVE_MODE_GPIO_PIN_CONFIG@F3101,MSSP_SPI_SLAVE_MODE_GPIO_PIN_CONFIG@SPI
      +                          _CLK
   991   001646                     
   992                           ;MCAL_Layer/SPI/hal_spi.c: 153:     pin_config_t SPI_SS = {.direction = GPIO_DIRECTION_O
      +                          UTPUT, .port = PORTA_INDEX, .pin = GPIO_PIN5};
   993   001646  C024  F06F         	movff	MSSP_SPI_SLAVE_MODE_GPIO_PIN_CONFIG@F3103,MSSP_SPI_SLAVE_MODE_GPIO_PIN_CONFIG@SPI
      +                          _SS
   994   00164A  0E6E               	movlw	low MSSP_SPI_SLAVE_MODE_GPIO_PIN_CONFIG@SPI_CLK
   995   00164C  6E61               	movwf	gpio_pin_direction_initialize@_pin_config^0,c
   996   00164E  0E00               	movlw	high MSSP_SPI_SLAVE_MODE_GPIO_PIN_CONFIG@SPI_CLK
   997   001650  6E62               	movwf	(gpio_pin_direction_initialize@_pin_config+1)^0,c
   998   001652  EC3A  F00A         	call	_gpio_pin_direction_initialize	;wreg free
   999   001656  0E6C               	movlw	low MSSP_SPI_SLAVE_MODE_GPIO_PIN_CONFIG@SPI_SDO
  1000   001658  6E61               	movwf	gpio_pin_direction_initialize@_pin_config^0,c
  1001   00165A  0E00               	movlw	high MSSP_SPI_SLAVE_MODE_GPIO_PIN_CONFIG@SPI_SDO
  1002   00165C  6E62               	movwf	(gpio_pin_direction_initialize@_pin_config+1)^0,c
  1003   00165E  EC3A  F00A         	call	_gpio_pin_direction_initialize	;wreg free
  1004   001662  0E6D               	movlw	low MSSP_SPI_SLAVE_MODE_GPIO_PIN_CONFIG@SPI_SDI
  1005   001664  6E61               	movwf	gpio_pin_direction_initialize@_pin_config^0,c
  1006   001666  0E00               	movlw	high MSSP_SPI_SLAVE_MODE_GPIO_PIN_CONFIG@SPI_SDI
  1007   001668  6E62               	movwf	(gpio_pin_direction_initialize@_pin_config+1)^0,c
  1008   00166A  EC3A  F00A         	call	_gpio_pin_direction_initialize	;wreg free
  1009   00166E                     
  1010                           ;MCAL_Layer/SPI/hal_spi.c: 159:     if(4 == _config->spi_mode){
  1011   00166E  EE20 F003          	lfsr	2,3
  1012   001672  506A               	movf	MSSP_SPI_SLAVE_MODE_GPIO_PIN_CONFIG@_config^0,w,c
  1013   001674  26D9               	addwf	fsr2l,f,c
  1014   001676  506B               	movf	(MSSP_SPI_SLAVE_MODE_GPIO_PIN_CONFIG@_config+1)^0,w,c
  1015   001678  22DA               	addwfc	fsr2h,f,c
  1016   00167A  50DF               	movf	223,w,c
  1017   00167C  0B07               	andlw	7
  1018   00167E  0A04               	xorlw	4
  1019   001680  A4D8               	btfss	status,2,c
  1020   001682  EF45  F00B         	goto	u2521
  1021   001686  EF47  F00B         	goto	u2520
  1022   00168A                     u2521:
  1023   00168A  EF4D  F00B         	goto	l1203
  1024   00168E                     u2520:
  1025   00168E  0E6F               	movlw	low MSSP_SPI_SLAVE_MODE_GPIO_PIN_CONFIG@SPI_SS
  1026   001690  6E61               	movwf	gpio_pin_direction_initialize@_pin_config^0,c
  1027   001692  0E00               	movlw	high MSSP_SPI_SLAVE_MODE_GPIO_PIN_CONFIG@SPI_SS
  1028   001694  6E62               	movwf	(gpio_pin_direction_initialize@_pin_config+1)^0,c
  1029   001696  EC3A  F00A         	call	_gpio_pin_direction_initialize	;wreg free
  1030   00169A                     l1203:
  1031   00169A  0012               	return		;funcret
  1032   00169C                     __end_of_MSSP_SPI_SLAVE_MODE_GPIO_PIN_CONFIG:
  1033                           	callstack 0
  1034                           
  1035 ;; *************** function _MSSP_SPI_MASTER_MODE_GPIO_PIN_CONFIG *****************
  1036 ;; Defined at:
  1037 ;;		line 134 in file "MCAL_Layer/SPI/hal_spi.c"
  1038 ;; Parameters:    Size  Location     Type
  1039 ;;		None
  1040 ;; Auto vars:     Size  Location     Type
  1041 ;;  SPI_CLK         1   12[COMRAM] struct .
  1042 ;;  SPI_SDI         1   11[COMRAM] struct .
  1043 ;;  SPI_SDO         1   10[COMRAM] struct .
  1044 ;;  ret             1    0        unsigned char 
  1045 ;; Return value:  Size  Location     Type
  1046 ;;                  1    wreg      void 
  1047 ;; Registers used:
  1048 ;;		wreg, fsr2l, fsr2h, status,2, status,0, prodl, prodh, cstack
  1049 ;; Tracked objects:
  1050 ;;		On entry : 0/0
  1051 ;;		On exit  : 0/0
  1052 ;;		Unchanged: 0/0
  1053 ;; Data sizes:     COMRAM   BANK0   BANK1   BANK2   BANK3   BANK4   BANK5   BANK6   BANK7   BANK8   BANK9  BANK10  BANK1
      +1  BANK12  BANK13  BANK14  BANK15
  1054 ;;      Params:         0       0       0       0       0       0       0       0       0       0       0       0       
      +0       0       0       0       0
  1055 ;;      Locals:         3       0       0       0       0       0       0       0       0       0       0       0       
      +0       0       0       0       0
  1056 ;;      Temps:          0       0       0       0       0       0       0       0       0       0       0       0       
      +0       0       0       0       0
  1057 ;;      Totals:         3       0       0       0       0       0       0       0       0       0       0       0       
      +0       0       0       0       0
  1058 ;;Total ram usage:        3 bytes
  1059 ;; Hardware stack levels used: 1
  1060 ;; Hardware stack levels required when called: 3
  1061 ;; This function calls:
  1062 ;;		_gpio_pin_direction_initialize
  1063 ;; This function is called by:
  1064 ;;		_SPI_Init
  1065 ;; This function uses a non-reentrant model
  1066 ;;
  1067                           
  1068                           	psect	text4
  1069   001748                     __ptext4:
  1070                           	callstack 0
  1071   001748                     _MSSP_SPI_MASTER_MODE_GPIO_PIN_CONFIG:
  1072                           	callstack 26
  1073   001748                     
  1074                           ;MCAL_Layer/SPI/hal_spi.c: 137:     pin_config_t SPI_SDO = {.direction = GPIO_DIRECTION_
      +                          OUTPUT, .port = PORTC_INDEX, .pin = GPIO_PIN5};
  1075   001748  C02A  F06A         	movff	MSSP_SPI_MASTER_MODE_GPIO_PIN_CONFIG@F3088,MSSP_SPI_MASTER_MODE_GPIO_PIN_CONFIG@S
      +                          PI_SDO
  1076   00174C                     
  1077                           ;MCAL_Layer/SPI/hal_spi.c: 138:     pin_config_t SPI_SDI = {.direction = GPIO_DIRECTION_
      +                          INPUT , .port = PORTC_INDEX, .pin = GPIO_PIN4};
  1078   00174C  C029  F06B         	movff	MSSP_SPI_MASTER_MODE_GPIO_PIN_CONFIG@F3090,MSSP_SPI_MASTER_MODE_GPIO_PIN_CONFIG@S
      +                          PI_SDI
  1079   001750                     
  1080                           ;MCAL_Layer/SPI/hal_spi.c: 139:     pin_config_t SPI_CLK = {.direction = GPIO_DIRECTION_
      +                          OUTPUT, .port = PORTC_INDEX, .pin = GPIO_PIN3};
  1081   001750  C028  F06C         	movff	MSSP_SPI_MASTER_MODE_GPIO_PIN_CONFIG@F3092,MSSP_SPI_MASTER_MODE_GPIO_PIN_CONFIG@S
      +                          PI_CLK
  1082   001754  0E6C               	movlw	low MSSP_SPI_MASTER_MODE_GPIO_PIN_CONFIG@SPI_CLK
  1083   001756  6E61               	movwf	gpio_pin_direction_initialize@_pin_config^0,c
  1084   001758  0E00               	movlw	high MSSP_SPI_MASTER_MODE_GPIO_PIN_CONFIG@SPI_CLK
  1085   00175A  6E62               	movwf	(gpio_pin_direction_initialize@_pin_config+1)^0,c
  1086   00175C  EC3A  F00A         	call	_gpio_pin_direction_initialize	;wreg free
  1087   001760  0E6A               	movlw	low MSSP_SPI_MASTER_MODE_GPIO_PIN_CONFIG@SPI_SDO
  1088   001762  6E61               	movwf	gpio_pin_direction_initialize@_pin_config^0,c
  1089   001764  0E00               	movlw	high MSSP_SPI_MASTER_MODE_GPIO_PIN_CONFIG@SPI_SDO
  1090   001766  6E62               	movwf	(gpio_pin_direction_initialize@_pin_config+1)^0,c
  1091   001768  EC3A  F00A         	call	_gpio_pin_direction_initialize	;wreg free
  1092   00176C  0E6B               	movlw	low MSSP_SPI_MASTER_MODE_GPIO_PIN_CONFIG@SPI_SDI
  1093   00176E  6E61               	movwf	gpio_pin_direction_initialize@_pin_config^0,c
  1094   001770  0E00               	movlw	high MSSP_SPI_MASTER_MODE_GPIO_PIN_CONFIG@SPI_SDI
  1095   001772  6E62               	movwf	(gpio_pin_direction_initialize@_pin_config+1)^0,c
  1096   001774  EC3A  F00A         	call	_gpio_pin_direction_initialize	;wreg free
  1097   001778  0012               	return		;funcret
  1098   00177A                     __end_of_MSSP_SPI_MASTER_MODE_GPIO_PIN_CONFIG:
  1099                           	callstack 0
  1100                           
  1101 ;; *************** function _gpio_pin_direction_initialize *****************
  1102 ;; Defined at:
  1103 ;;		line 22 in file "MCAL_Layer/GPIO/hal_gpio.c"
  1104 ;; Parameters:    Size  Location     Type
  1105 ;;  _pin_config     2    1[COMRAM] PTR struct .
  1106 ;;		 -> MSSP_SPI_SLAVE_MODE_GPIO_PIN_CONFIG@SPI_SS(1), MSSP_SPI_SLAVE_MODE_GPIO_PIN_CONFIG@SPI_CLK(1), MSSP_SPI_SLAVE_MO
      +DE_GPIO_PIN_CONFIG@SPI_SDI(1), MSSP_SPI_SLAVE_MODE_GPIO_PIN_CONFIG@SPI_SDO(1), 
  1107 ;;		 -> MSSP_SPI_MASTER_MODE_GPIO_PIN_CONFIG@SPI_CLK(1), MSSP_SPI_MASTER_MODE_GPIO_PIN_CONFIG@SPI_SDI(1), MSSP_SPI_MASTE
      +R_MODE_GPIO_PIN_CONFIG@SPI_SDO(1), relay_initialize@pin_obj(1), 
  1108 ;;		 -> led_initialize@pin_obj(1), 
  1109 ;; Auto vars:     Size  Location     Type
  1110 ;;  ret             1    9[COMRAM] unsigned char 
  1111 ;; Return value:  Size  Location     Type
  1112 ;;                  1    wreg      unsigned char 
  1113 ;; Registers used:
  1114 ;;		wreg, fsr2l, fsr2h, status,2, status,0, prodl, prodh
  1115 ;; Tracked objects:
  1116 ;;		On entry : 0/0
  1117 ;;		On exit  : 0/0
  1118 ;;		Unchanged: 0/0
  1119 ;; Data sizes:     COMRAM   BANK0   BANK1   BANK2   BANK3   BANK4   BANK5   BANK6   BANK7   BANK8   BANK9  BANK10  BANK1
      +1  BANK12  BANK13  BANK14  BANK15
  1120 ;;      Params:         2       0       0       0       0       0       0       0       0       0       0       0       
      +0       0       0       0       0
  1121 ;;      Locals:         1       0       0       0       0       0       0       0       0       0       0       0       
      +0       0       0       0       0
  1122 ;;      Temps:          6       0       0       0       0       0       0       0       0       0       0       0       
      +0       0       0       0       0
  1123 ;;      Totals:         9       0       0       0       0       0       0       0       0       0       0       0       
      +0       0       0       0       0
  1124 ;;Total ram usage:        9 bytes
  1125 ;; Hardware stack levels used: 1
  1126 ;; Hardware stack levels required when called: 2
  1127 ;; This function calls:
  1128 ;;		Nothing
  1129 ;; This function is called by:
  1130 ;;		_MSSP_SPI_MASTER_MODE_GPIO_PIN_CONFIG
  1131 ;;		_MSSP_SPI_SLAVE_MODE_GPIO_PIN_CONFIG
  1132 ;;		_seven_segment_initialize
  1133 ;;		_button_initialize
  1134 ;;		_dc_motor_initialize
  1135 ;;		_keypad_initialize
  1136 ;;		_relay_initialize
  1137 ;;		_gpio_pin_initialize
  1138 ;;		_Interrupt_RBx_Init
  1139 ;;		_Interrupt_INTx_Pin_Init
  1140 ;; This function uses a non-reentrant model
  1141 ;;
  1142                           
  1143                           	psect	text5
  1144   001474                     __ptext5:
  1145                           	callstack 0
  1146   001474                     _gpio_pin_direction_initialize:
  1147                           	callstack 26
  1148   001474                     
  1149                           ;MCAL_Layer/GPIO/hal_gpio.c: 22: Std_ReturnType gpio_pin_direction_initialize(pin_config
      +                          _t *_pin_config);MCAL_Layer/GPIO/hal_gpio.c: 23: {;MCAL_Layer/GPIO/hal_gpio.c: 24:     S
      +                          td_ReturnType ret = (Std_ReturnType)0x01 ;
  1150   001474  0E01               	movlw	1
  1151   001476  6E69               	movwf	gpio_pin_direction_initialize@ret^0,c
  1152   001478                     
  1153                           ;MCAL_Layer/GPIO/hal_gpio.c: 25:     if(((void*)0) == _pin_config || _pin_config->pin > 
      +                          (8 - 1))
  1154   001478  5061               	movf	gpio_pin_direction_initialize@_pin_config^0,w,c
  1155   00147A  1062               	iorwf	(gpio_pin_direction_initialize@_pin_config+1)^0,w,c
  1156   00147C  B4D8               	btfsc	status,2,c
  1157   00147E  EF43  F00A         	goto	u2461
  1158   001482  EF45  F00A         	goto	u2460
  1159   001486                     u2461:
  1160   001486  EF56  F00A         	goto	l3911
  1161   00148A                     u2460:
  1162   00148A  C061  FFD9         	movff	gpio_pin_direction_initialize@_pin_config,fsr2l
  1163   00148E  C062  FFDA         	movff	gpio_pin_direction_initialize@_pin_config+1,fsr2h
  1164   001492  30DF               	rrcf	223,w,c
  1165   001494  32E8               	rrcf	wreg,f,c
  1166   001496  32E8               	rrcf	wreg,f,c
  1167   001498  0B07               	andlw	7
  1168   00149A  6E63               	movwf	??_gpio_pin_direction_initialize^0,c
  1169   00149C  0E07               	movlw	7
  1170   00149E  6463               	cpfsgt	??_gpio_pin_direction_initialize^0,c
  1171   0014A0  EF54  F00A         	goto	u2471
  1172   0014A4  EF56  F00A         	goto	u2470
  1173   0014A8                     u2471:
  1174   0014A8  EFB9  F00A         	goto	l3919
  1175   0014AC                     u2470:
  1176   0014AC                     l3911:
  1177                           
  1178                           ;MCAL_Layer/GPIO/hal_gpio.c: 26:     {;MCAL_Layer/GPIO/hal_gpio.c: 27:         ret = (St
      +                          d_ReturnType)0x00;
  1179   0014AC  0E00               	movlw	0
  1180   0014AE  6E69               	movwf	gpio_pin_direction_initialize@ret^0,c
  1181                           
  1182                           ;MCAL_Layer/GPIO/hal_gpio.c: 28:     }
  1183   0014B0  EFDA  F00A         	goto	l3921
  1184   0014B4                     l3913:
  1185                           
  1186                           ;MCAL_Layer/GPIO/hal_gpio.c: 33:                 (*tris_registers[_pin_config->port] &= 
      +                          ~(((uint8)1) << _pin_config->pin));
  1187   0014B4  C061  FFD9         	movff	gpio_pin_direction_initialize@_pin_config,fsr2l
  1188   0014B8  C062  FFDA         	movff	gpio_pin_direction_initialize@_pin_config+1,fsr2h
  1189   0014BC  30DF               	rrcf	223,w,c
  1190   0014BE  32E8               	rrcf	wreg,f,c
  1191   0014C0  32E8               	rrcf	wreg,f,c
  1192   0014C2  0B07               	andlw	7
  1193   0014C4  6E63               	movwf	??_gpio_pin_direction_initialize^0,c
  1194   0014C6  0E01               	movlw	1
  1195   0014C8  6E64               	movwf	(??_gpio_pin_direction_initialize+1)^0,c
  1196   0014CA  2A63               	incf	??_gpio_pin_direction_initialize^0,f,c
  1197   0014CC  EF6A  F00A         	goto	u2484
  1198   0014D0                     u2485:
  1199   0014D0  90D8               	bcf	status,0,c
  1200   0014D2  3664               	rlcf	(??_gpio_pin_direction_initialize+1)^0,f,c
  1201   0014D4                     u2484:
  1202   0014D4  2E63               	decfsz	??_gpio_pin_direction_initialize^0,f,c
  1203   0014D6  EF68  F00A         	goto	u2485
  1204   0014DA  5064               	movf	(??_gpio_pin_direction_initialize+1)^0,w,c
  1205   0014DC  0AFF               	xorlw	255
  1206   0014DE  6E65               	movwf	(??_gpio_pin_direction_initialize+2)^0,c
  1207   0014E0  C061  FFD9         	movff	gpio_pin_direction_initialize@_pin_config,fsr2l
  1208   0014E4  C062  FFDA         	movff	gpio_pin_direction_initialize@_pin_config+1,fsr2h
  1209   0014E8  50DF               	movf	223,w,c
  1210   0014EA  0B07               	andlw	7
  1211   0014EC  6E66               	movwf	(??_gpio_pin_direction_initialize+3)^0,c
  1212   0014EE  5066               	movf	(??_gpio_pin_direction_initialize+3)^0,w,c
  1213   0014F0  0D02               	mullw	2
  1214   0014F2  0E15               	movlw	low _tris_registers
  1215   0014F4  24F3               	addwf	243,w,c
  1216   0014F6  6ED9               	movwf	fsr2l,c
  1217   0014F8  0E00               	movlw	high _tris_registers
  1218   0014FA  20F4               	addwfc	prodh,w,c
  1219   0014FC  6EDA               	movwf	fsr2h,c
  1220   0014FE  CFDE F067          	movff	postinc2,??_gpio_pin_direction_initialize+4
  1221   001502  CFDD F068          	movff	postdec2,??_gpio_pin_direction_initialize+5
  1222   001506  C067  FFD9         	movff	??_gpio_pin_direction_initialize+4,fsr2l
  1223   00150A  C068  FFDA         	movff	??_gpio_pin_direction_initialize+5,fsr2h
  1224   00150E  5065               	movf	(??_gpio_pin_direction_initialize+2)^0,w,c
  1225   001510  16DF               	andwf	indf2,f,c
  1226                           
  1227                           ;MCAL_Layer/GPIO/hal_gpio.c: 34:                 break;
  1228   001512  EFDA  F00A         	goto	l3921
  1229   001516                     l3915:
  1230                           
  1231                           ;MCAL_Layer/GPIO/hal_gpio.c: 36:                 (*tris_registers[_pin_config->port] |= 
      +                          (((uint8)1) << _pin_config->pin));
  1232   001516  C061  FFD9         	movff	gpio_pin_direction_initialize@_pin_config,fsr2l
  1233   00151A  C062  FFDA         	movff	gpio_pin_direction_initialize@_pin_config+1,fsr2h
  1234   00151E  30DF               	rrcf	223,w,c
  1235   001520  32E8               	rrcf	wreg,f,c
  1236   001522  32E8               	rrcf	wreg,f,c
  1237   001524  0B07               	andlw	7
  1238   001526  6E63               	movwf	??_gpio_pin_direction_initialize^0,c
  1239   001528  0E01               	movlw	1
  1240   00152A  6E64               	movwf	(??_gpio_pin_direction_initialize+1)^0,c
  1241   00152C  2A63               	incf	??_gpio_pin_direction_initialize^0,f,c
  1242   00152E  EF9B  F00A         	goto	u2494
  1243   001532                     u2495:
  1244   001532  90D8               	bcf	status,0,c
  1245   001534  3664               	rlcf	(??_gpio_pin_direction_initialize+1)^0,f,c
  1246   001536                     u2494:
  1247   001536  2E63               	decfsz	??_gpio_pin_direction_initialize^0,f,c
  1248   001538  EF99  F00A         	goto	u2495
  1249   00153C  C061  FFD9         	movff	gpio_pin_direction_initialize@_pin_config,fsr2l
  1250   001540  C062  FFDA         	movff	gpio_pin_direction_initialize@_pin_config+1,fsr2h
  1251   001544  50DF               	movf	223,w,c
  1252   001546  0B07               	andlw	7
  1253   001548  6E65               	movwf	(??_gpio_pin_direction_initialize+2)^0,c
  1254   00154A  5065               	movf	(??_gpio_pin_direction_initialize+2)^0,w,c
  1255   00154C  0D02               	mullw	2
  1256   00154E  0E15               	movlw	low _tris_registers
  1257   001550  24F3               	addwf	243,w,c
  1258   001552  6ED9               	movwf	fsr2l,c
  1259   001554  0E00               	movlw	high _tris_registers
  1260   001556  20F4               	addwfc	prodh,w,c
  1261   001558  6EDA               	movwf	fsr2h,c
  1262   00155A  CFDE F066          	movff	postinc2,??_gpio_pin_direction_initialize+3
  1263   00155E  CFDD F067          	movff	postdec2,??_gpio_pin_direction_initialize+4
  1264   001562  C066  FFD9         	movff	??_gpio_pin_direction_initialize+3,fsr2l
  1265   001566  C067  FFDA         	movff	??_gpio_pin_direction_initialize+4,fsr2h
  1266   00156A  5064               	movf	(??_gpio_pin_direction_initialize+1)^0,w,c
  1267   00156C  12DF               	iorwf	indf2,f,c
  1268                           
  1269                           ;MCAL_Layer/GPIO/hal_gpio.c: 37:                 break;
  1270   00156E  EFDA  F00A         	goto	l3921
  1271   001572                     l3919:
  1272   001572  C061  FFD9         	movff	gpio_pin_direction_initialize@_pin_config,fsr2l
  1273   001576  C062  FFDA         	movff	gpio_pin_direction_initialize@_pin_config+1,fsr2h
  1274   00157A  BCDF               	btfsc	indf2,6,c
  1275   00157C  EFC2  F00A         	goto	u2501
  1276   001580  EFC5  F00A         	goto	u2500
  1277   001584                     u2501:
  1278   001584  0E01               	movlw	1
  1279   001586  EFC6  F00A         	goto	u2510
  1280   00158A                     u2500:
  1281   00158A  0E00               	movlw	0
  1282   00158C                     u2510:
  1283   00158C  6E63               	movwf	??_gpio_pin_direction_initialize^0,c
  1284   00158E  6A64               	clrf	(??_gpio_pin_direction_initialize+1)^0,c
  1285                           
  1286                           ; Switch on 2 bytes has been partitioned into a top level switch of size 1, and 1 sub-sw
      +                          itches
  1287                           ; Switch size 1, requested type "simple"
  1288                           ; Number of cases is 1, Range of values is 0 to 0
  1289                           ; switch strategies available:
  1290                           ; Name         Instructions Cycles
  1291                           ; simple_byte            4     3 (average)
  1292                           ;	Chosen strategy is simple_byte
  1293   001590  5064               	movf	(??_gpio_pin_direction_initialize+1)^0,w,c
  1294   001592  0A00               	xorlw	0	; case 0
  1295   001594  B4D8               	btfsc	status,2,c
  1296   001596  EFCF  F00A         	goto	l4371
  1297   00159A  EF56  F00A         	goto	l3911
  1298   00159E                     l4371:
  1299                           
  1300                           ; Switch size 1, requested type "simple"
  1301                           ; Number of cases is 2, Range of values is 0 to 1
  1302                           ; switch strategies available:
  1303                           ; Name         Instructions Cycles
  1304                           ; simple_byte            7     4 (average)
  1305                           ;	Chosen strategy is simple_byte
  1306   00159E  5063               	movf	??_gpio_pin_direction_initialize^0,w,c
  1307   0015A0  0A00               	xorlw	0	; case 0
  1308   0015A2  B4D8               	btfsc	status,2,c
  1309   0015A4  EF5A  F00A         	goto	l3913
  1310   0015A8  0A01               	xorlw	1	; case 1
  1311   0015AA  B4D8               	btfsc	status,2,c
  1312   0015AC  EF8B  F00A         	goto	l3915
  1313   0015B0  EF56  F00A         	goto	l3911
  1314   0015B4                     l3921:
  1315                           
  1316                           ;MCAL_Layer/GPIO/hal_gpio.c: 42:     return ret;
  1317   0015B4  5069               	movf	gpio_pin_direction_initialize@ret^0,w,c
  1318   0015B6  0012               	return		;funcret
  1319   0015B8                     __end_of_gpio_pin_direction_initialize:
  1320                           	callstack 0
  1321                           
  1322 ;; *************** function _InterruptManager *****************
  1323 ;; Defined at:
  1324 ;;		line 33 in file "MCAL_Layer/Interrupt/mcal_interrupt_manager.c"
  1325 ;; Parameters:    Size  Location     Type
  1326 ;;		None
  1327 ;; Auto vars:     Size  Location     Type
  1328 ;;		None
  1329 ;; Return value:  Size  Location     Type
  1330 ;;                  1    wreg      void 
  1331 ;; Registers used:
  1332 ;;		wreg, status,2, status,0, cstack
  1333 ;; Tracked objects:
  1334 ;;		On entry : 0/0
  1335 ;;		On exit  : 0/0
  1336 ;;		Unchanged: 0/0
  1337 ;; Data sizes:     COMRAM   BANK0   BANK1   BANK2   BANK3   BANK4   BANK5   BANK6   BANK7   BANK8   BANK9  BANK10  BANK1
      +1  BANK12  BANK13  BANK14  BANK15
  1338 ;;      Params:         0       0       0       0       0       0       0       0       0       0       0       0       
      +0       0       0       0       0
  1339 ;;      Locals:         0       0       0       0       0       0       0       0       0       0       0       0       
      +0       0       0       0       0
  1340 ;;      Temps:          0       0       0       0       0       0       0       0       0       0       0       0       
      +0       0       0       0       0
  1341 ;;      Totals:         0       0       0       0       0       0       0       0       0       0       0       0       
      +0       0       0       0       0
  1342 ;;Total ram usage:        0 bytes
  1343 ;; Hardware stack levels used: 1
  1344 ;; Hardware stack levels required when called: 1
  1345 ;; This function calls:
  1346 ;;		_ADC_ISR
  1347 ;;		_EUSART_RX_ISR
  1348 ;;		_EUSART_TX_ISR
  1349 ;;		_INT0_ISR
  1350 ;;		_INT1_ISR
  1351 ;;		_INT2_ISR
  1352 ;;		_RB4_ISR
  1353 ;;		_RB5_ISR
  1354 ;;		_RB6_ISR
  1355 ;;		_RB7_ISR
  1356 ;;		_TMR0_ISR
  1357 ;; This function is called by:
  1358 ;;		Interrupt level 2
  1359 ;; This function uses a non-reentrant model
  1360 ;;
  1361                           
  1362                           	psect	intcode
  1363   000008                     __pintcode:
  1364                           	callstack 0
  1365   000008                     _InterruptManager:
  1366                           	callstack 26
  1367                           
  1368                           ;incstack = 0
  1369   000008  827D               	bsf	int$flags,1,c	;set compiler interrupt flag (level 2)
  1370   00000A  ED0B  F008         	call	int_func,f	;refresh shadow registers
  1371                           
  1372                           	psect	intcode_body
  1373   001016                     __pintcode_body:
  1374                           	callstack 26
  1375   001016                     int_func:
  1376                           	callstack 26
  1377   001016  0006               	pop		; remove dummy address from shadow register refresh
  1378   001018                     
  1379                           ;MCAL_Layer/Interrupt/mcal_interrupt_manager.c: 34:     if((1 == INTCONbits.INT0IE) && (
      +                          1 == INTCONbits.INT0IF)){
  1380   001018  A8F2               	btfss	242,4,c	;volatile
  1381   00101A  EF11  F008         	goto	i2u181_41
  1382   00101E  EF13  F008         	goto	i2u181_40
  1383   001022                     i2u181_41:
  1384   001022  EF1C  F008         	goto	i2l1002
  1385   001026                     i2u181_40:
  1386   001026  A2F2               	btfss	242,1,c	;volatile
  1387   001028  EF18  F008         	goto	i2u182_41
  1388   00102C  EF1A  F008         	goto	i2u182_40
  1389   001030                     i2u182_41:
  1390   001030  EF1C  F008         	goto	i2l1002
  1391   001034                     i2u182_40:
  1392   001034                     
  1393                           ;MCAL_Layer/Interrupt/mcal_interrupt_manager.c: 35:         INT0_ISR();
  1394   001034  ECFB  F00B         	call	_INT0_ISR	;wreg free
  1395   001038                     i2l1002:
  1396                           
  1397                           ;MCAL_Layer/Interrupt/mcal_interrupt_manager.c: 38:     if((1 == INTCON3bits.INT1E) && (
      +                          1 == INTCON3bits.INT1F)){
  1398   001038  A6F0               	btfss	240,3,c	;volatile
  1399   00103A  EF21  F008         	goto	i2u183_41
  1400   00103E  EF23  F008         	goto	i2u183_40
  1401   001042                     i2u183_41:
  1402   001042  EF2C  F008         	goto	i2l1004
  1403   001046                     i2u183_40:
  1404   001046  A0F0               	btfss	240,0,c	;volatile
  1405   001048  EF28  F008         	goto	i2u184_41
  1406   00104C  EF2A  F008         	goto	i2u184_40
  1407   001050                     i2u184_41:
  1408   001050  EF2C  F008         	goto	i2l1004
  1409   001054                     i2u184_40:
  1410   001054                     
  1411                           ;MCAL_Layer/Interrupt/mcal_interrupt_manager.c: 39:         INT1_ISR();
  1412   001054  ECF9  F00B         	call	_INT1_ISR	;wreg free
  1413   001058                     i2l1004:
  1414                           
  1415                           ;MCAL_Layer/Interrupt/mcal_interrupt_manager.c: 42:     if((1 == INTCON3bits.INT2IE) && 
      +                          (1 == INTCON3bits.INT2IF)){
  1416   001058  A8F0               	btfss	240,4,c	;volatile
  1417   00105A  EF31  F008         	goto	i2u185_41
  1418   00105E  EF33  F008         	goto	i2u185_40
  1419   001062                     i2u185_41:
  1420   001062  EF3C  F008         	goto	i2l1006
  1421   001066                     i2u185_40:
  1422   001066  A2F0               	btfss	240,1,c	;volatile
  1423   001068  EF38  F008         	goto	i2u186_41
  1424   00106C  EF3A  F008         	goto	i2u186_40
  1425   001070                     i2u186_41:
  1426   001070  EF3C  F008         	goto	i2l1006
  1427   001074                     i2u186_40:
  1428   001074                     
  1429                           ;MCAL_Layer/Interrupt/mcal_interrupt_manager.c: 43:         INT2_ISR();
  1430   001074  ECF7  F00B         	call	_INT2_ISR	;wreg free
  1431   001078                     i2l1006:
  1432                           
  1433                           ;MCAL_Layer/Interrupt/mcal_interrupt_manager.c: 49:     if((1 == INTCONbits.RBIE) && (1 
      +                          == INTCONbits.RBIF )
  1434   001078  A6F2               	btfss	242,3,c	;volatile
  1435   00107A  EF41  F008         	goto	i2u187_41
  1436   00107E  EF43  F008         	goto	i2u187_40
  1437   001082                     i2u187_41:
  1438   001082  EF5E  F008         	goto	i2l1008
  1439   001086                     i2u187_40:
  1440   001086  A0F2               	btfss	242,0,c	;volatile
  1441   001088  EF48  F008         	goto	i2u188_41
  1442   00108C  EF4A  F008         	goto	i2u188_40
  1443   001090                     i2u188_41:
  1444   001090  EF5E  F008         	goto	i2l1008
  1445   001094                     i2u188_40:
  1446   001094  A881               	btfss	129,4,c	;volatile
  1447   001096  EF4F  F008         	goto	i2u189_41
  1448   00109A  EF51  F008         	goto	i2u189_40
  1449   00109E                     i2u189_41:
  1450   00109E  EF5E  F008         	goto	i2l1008
  1451   0010A2                     i2u189_40:
  1452   0010A2  042E               	decf	_RB4_Flag^0,w,c	;volatile
  1453   0010A4  A4D8               	btfss	status,2,c
  1454   0010A6  EF57  F008         	goto	i2u190_41
  1455   0010AA  EF59  F008         	goto	i2u190_40
  1456   0010AE                     i2u190_41:
  1457   0010AE  EF5E  F008         	goto	i2l1008
  1458   0010B2                     i2u190_40:
  1459   0010B2                     
  1460                           ;MCAL_Layer/Interrupt/mcal_interrupt_manager.c: 50:     && (PORTBbits.RB4 == GPIO_HIGH) 
      +                          && (RB4_Flag == 1)){;MCAL_Layer/Interrupt/mcal_interrupt_manager.c: 51:         RB4_Flag
      +                           = 0;
  1461   0010B2  0E00               	movlw	0
  1462   0010B4  6E2E               	movwf	_RB4_Flag^0,c	;volatile
  1463   0010B6                     
  1464                           ;MCAL_Layer/Interrupt/mcal_interrupt_manager.c: 52:         RB4_ISR(0);
  1465   0010B6  0E00               	movlw	0
  1466   0010B8  ECE4  F00B         	call	_RB4_ISR
  1467   0010BC                     i2l1008:
  1468                           
  1469                           ;MCAL_Layer/Interrupt/mcal_interrupt_manager.c: 55:     if((1 == INTCONbits.RBIE) && (1 
      +                          == INTCONbits.RBIF )
  1470   0010BC  A6F2               	btfss	242,3,c	;volatile
  1471   0010BE  EF63  F008         	goto	i2u191_41
  1472   0010C2  EF65  F008         	goto	i2u191_40
  1473   0010C6                     i2u191_41:
  1474   0010C6  EF80  F008         	goto	i2l1010
  1475   0010CA                     i2u191_40:
  1476   0010CA  A0F2               	btfss	242,0,c	;volatile
  1477   0010CC  EF6A  F008         	goto	i2u192_41
  1478   0010D0  EF6C  F008         	goto	i2u192_40
  1479   0010D4                     i2u192_41:
  1480   0010D4  EF80  F008         	goto	i2l1010
  1481   0010D8                     i2u192_40:
  1482   0010D8  B881               	btfsc	129,4,c	;volatile
  1483   0010DA  EF71  F008         	goto	i2u193_41
  1484   0010DE  EF73  F008         	goto	i2u193_40
  1485   0010E2                     i2u193_41:
  1486   0010E2  EF80  F008         	goto	i2l1010
  1487   0010E6                     i2u193_40:
  1488   0010E6  502E               	movf	_RB4_Flag^0,w,c	;volatile
  1489   0010E8  A4D8               	btfss	status,2,c
  1490   0010EA  EF79  F008         	goto	i2u194_41
  1491   0010EE  EF7B  F008         	goto	i2u194_40
  1492   0010F2                     i2u194_41:
  1493   0010F2  EF80  F008         	goto	i2l1010
  1494   0010F6                     i2u194_40:
  1495   0010F6                     
  1496                           ;MCAL_Layer/Interrupt/mcal_interrupt_manager.c: 56:     && (PORTBbits.RB4 == GPIO_LOW) &
      +                          & (RB4_Flag == 0)){;MCAL_Layer/Interrupt/mcal_interrupt_manager.c: 57:         RB4_Flag 
      +                          = 1;
  1497   0010F6  0E01               	movlw	1
  1498   0010F8  6E2E               	movwf	_RB4_Flag^0,c	;volatile
  1499   0010FA                     
  1500                           ;MCAL_Layer/Interrupt/mcal_interrupt_manager.c: 58:         RB4_ISR(1);
  1501   0010FA  0E01               	movlw	1
  1502   0010FC  ECE4  F00B         	call	_RB4_ISR
  1503   001100                     i2l1010:
  1504                           
  1505                           ;MCAL_Layer/Interrupt/mcal_interrupt_manager.c: 62:     if((1 == INTCONbits.RBIE) && (1 
      +                          == INTCONbits.RBIF )
  1506   001100  A6F2               	btfss	242,3,c	;volatile
  1507   001102  EF85  F008         	goto	i2u195_41
  1508   001106  EF87  F008         	goto	i2u195_40
  1509   00110A                     i2u195_41:
  1510   00110A  EFA2  F008         	goto	i2l1012
  1511   00110E                     i2u195_40:
  1512   00110E  A0F2               	btfss	242,0,c	;volatile
  1513   001110  EF8C  F008         	goto	i2u196_41
  1514   001114  EF8E  F008         	goto	i2u196_40
  1515   001118                     i2u196_41:
  1516   001118  EFA2  F008         	goto	i2l1012
  1517   00111C                     i2u196_40:
  1518   00111C  AA81               	btfss	129,5,c	;volatile
  1519   00111E  EF93  F008         	goto	i2u197_41
  1520   001122  EF95  F008         	goto	i2u197_40
  1521   001126                     i2u197_41:
  1522   001126  EFA2  F008         	goto	i2l1012
  1523   00112A                     i2u197_40:
  1524   00112A  042D               	decf	_RB5_Flag^0,w,c	;volatile
  1525   00112C  A4D8               	btfss	status,2,c
  1526   00112E  EF9B  F008         	goto	i2u198_41
  1527   001132  EF9D  F008         	goto	i2u198_40
  1528   001136                     i2u198_41:
  1529   001136  EFA2  F008         	goto	i2l1012
  1530   00113A                     i2u198_40:
  1531   00113A                     
  1532                           ;MCAL_Layer/Interrupt/mcal_interrupt_manager.c: 63:     && (PORTBbits.RB5 == GPIO_HIGH) 
      +                          && (RB5_Flag == 1)){;MCAL_Layer/Interrupt/mcal_interrupt_manager.c: 64:         RB5_Flag
      +                           = 0;
  1533   00113A  0E00               	movlw	0
  1534   00113C  6E2D               	movwf	_RB5_Flag^0,c	;volatile
  1535   00113E                     
  1536                           ;MCAL_Layer/Interrupt/mcal_interrupt_manager.c: 65:         RB5_ISR(0);
  1537   00113E  0E00               	movlw	0
  1538   001140  ECD7  F00B         	call	_RB5_ISR
  1539   001144                     i2l1012:
  1540                           
  1541                           ;MCAL_Layer/Interrupt/mcal_interrupt_manager.c: 68:     if((1 == INTCONbits.RBIE) && (1 
      +                          == INTCONbits.RBIF )
  1542   001144  A6F2               	btfss	242,3,c	;volatile
  1543   001146  EFA7  F008         	goto	i2u199_41
  1544   00114A  EFA9  F008         	goto	i2u199_40
  1545   00114E                     i2u199_41:
  1546   00114E  EFC4  F008         	goto	i2l1014
  1547   001152                     i2u199_40:
  1548   001152  A0F2               	btfss	242,0,c	;volatile
  1549   001154  EFAE  F008         	goto	i2u200_41
  1550   001158  EFB0  F008         	goto	i2u200_40
  1551   00115C                     i2u200_41:
  1552   00115C  EFC4  F008         	goto	i2l1014
  1553   001160                     i2u200_40:
  1554   001160  BA81               	btfsc	129,5,c	;volatile
  1555   001162  EFB5  F008         	goto	i2u201_41
  1556   001166  EFB7  F008         	goto	i2u201_40
  1557   00116A                     i2u201_41:
  1558   00116A  EFC4  F008         	goto	i2l1014
  1559   00116E                     i2u201_40:
  1560   00116E  502D               	movf	_RB5_Flag^0,w,c	;volatile
  1561   001170  A4D8               	btfss	status,2,c
  1562   001172  EFBD  F008         	goto	i2u202_41
  1563   001176  EFBF  F008         	goto	i2u202_40
  1564   00117A                     i2u202_41:
  1565   00117A  EFC4  F008         	goto	i2l1014
  1566   00117E                     i2u202_40:
  1567   00117E                     
  1568                           ;MCAL_Layer/Interrupt/mcal_interrupt_manager.c: 69:     && (PORTBbits.RB5 == GPIO_LOW) &
      +                          & (RB5_Flag == 0)){;MCAL_Layer/Interrupt/mcal_interrupt_manager.c: 70:         RB5_Flag 
      +                          = 1;
  1569   00117E  0E01               	movlw	1
  1570   001180  6E2D               	movwf	_RB5_Flag^0,c	;volatile
  1571   001182                     
  1572                           ;MCAL_Layer/Interrupt/mcal_interrupt_manager.c: 71:         RB5_ISR(1);
  1573   001182  0E01               	movlw	1
  1574   001184  ECD7  F00B         	call	_RB5_ISR
  1575   001188                     i2l1014:
  1576                           
  1577                           ;MCAL_Layer/Interrupt/mcal_interrupt_manager.c: 75:     if((1 == INTCONbits.RBIE) && (1 
      +                          == INTCONbits.RBIF )
  1578   001188  A6F2               	btfss	242,3,c	;volatile
  1579   00118A  EFC9  F008         	goto	i2u203_41
  1580   00118E  EFCB  F008         	goto	i2u203_40
  1581   001192                     i2u203_41:
  1582   001192  EFE6  F008         	goto	i2l1016
  1583   001196                     i2u203_40:
  1584   001196  A0F2               	btfss	242,0,c	;volatile
  1585   001198  EFD0  F008         	goto	i2u204_41
  1586   00119C  EFD2  F008         	goto	i2u204_40
  1587   0011A0                     i2u204_41:
  1588   0011A0  EFE6  F008         	goto	i2l1016
  1589   0011A4                     i2u204_40:
  1590   0011A4  AC81               	btfss	129,6,c	;volatile
  1591   0011A6  EFD7  F008         	goto	i2u205_41
  1592   0011AA  EFD9  F008         	goto	i2u205_40
  1593   0011AE                     i2u205_41:
  1594   0011AE  EFE6  F008         	goto	i2l1016
  1595   0011B2                     i2u205_40:
  1596   0011B2  042C               	decf	_RB6_Flag^0,w,c	;volatile
  1597   0011B4  A4D8               	btfss	status,2,c
  1598   0011B6  EFDF  F008         	goto	i2u206_41
  1599   0011BA  EFE1  F008         	goto	i2u206_40
  1600   0011BE                     i2u206_41:
  1601   0011BE  EFE6  F008         	goto	i2l1016
  1602   0011C2                     i2u206_40:
  1603   0011C2                     
  1604                           ;MCAL_Layer/Interrupt/mcal_interrupt_manager.c: 76:     && (PORTBbits.RB6 == GPIO_HIGH) 
      +                          && (RB6_Flag == 1)){;MCAL_Layer/Interrupt/mcal_interrupt_manager.c: 77:         RB6_Flag
      +                           = 0;
  1605   0011C2  0E00               	movlw	0
  1606   0011C4  6E2C               	movwf	_RB6_Flag^0,c	;volatile
  1607   0011C6                     
  1608                           ;MCAL_Layer/Interrupt/mcal_interrupt_manager.c: 78:         RB6_ISR(0);
  1609   0011C6  0E00               	movlw	0
  1610   0011C8  ECCA  F00B         	call	_RB6_ISR
  1611   0011CC                     i2l1016:
  1612                           
  1613                           ;MCAL_Layer/Interrupt/mcal_interrupt_manager.c: 81:     if((1 == INTCONbits.RBIE) && (1 
      +                          == INTCONbits.RBIF )
  1614   0011CC  A6F2               	btfss	242,3,c	;volatile
  1615   0011CE  EFEB  F008         	goto	i2u207_41
  1616   0011D2  EFED  F008         	goto	i2u207_40
  1617   0011D6                     i2u207_41:
  1618   0011D6  EF08  F009         	goto	i2l1018
  1619   0011DA                     i2u207_40:
  1620   0011DA  A0F2               	btfss	242,0,c	;volatile
  1621   0011DC  EFF2  F008         	goto	i2u208_41
  1622   0011E0  EFF4  F008         	goto	i2u208_40
  1623   0011E4                     i2u208_41:
  1624   0011E4  EF08  F009         	goto	i2l1018
  1625   0011E8                     i2u208_40:
  1626   0011E8  BC81               	btfsc	129,6,c	;volatile
  1627   0011EA  EFF9  F008         	goto	i2u209_41
  1628   0011EE  EFFB  F008         	goto	i2u209_40
  1629   0011F2                     i2u209_41:
  1630   0011F2  EF08  F009         	goto	i2l1018
  1631   0011F6                     i2u209_40:
  1632   0011F6  502C               	movf	_RB6_Flag^0,w,c	;volatile
  1633   0011F8  A4D8               	btfss	status,2,c
  1634   0011FA  EF01  F009         	goto	i2u210_41
  1635   0011FE  EF03  F009         	goto	i2u210_40
  1636   001202                     i2u210_41:
  1637   001202  EF08  F009         	goto	i2l1018
  1638   001206                     i2u210_40:
  1639   001206                     
  1640                           ;MCAL_Layer/Interrupt/mcal_interrupt_manager.c: 82:     && (PORTBbits.RB6 == GPIO_LOW) &
      +                          & (RB6_Flag == 0)){;MCAL_Layer/Interrupt/mcal_interrupt_manager.c: 83:         RB6_Flag 
      +                          = 1;
  1641   001206  0E01               	movlw	1
  1642   001208  6E2C               	movwf	_RB6_Flag^0,c	;volatile
  1643   00120A                     
  1644                           ;MCAL_Layer/Interrupt/mcal_interrupt_manager.c: 84:         RB6_ISR(1);
  1645   00120A  0E01               	movlw	1
  1646   00120C  ECCA  F00B         	call	_RB6_ISR
  1647   001210                     i2l1018:
  1648                           
  1649                           ;MCAL_Layer/Interrupt/mcal_interrupt_manager.c: 88:     if((1 == INTCONbits.RBIE) && (1 
      +                          == INTCONbits.RBIF )
  1650   001210  A6F2               	btfss	242,3,c	;volatile
  1651   001212  EF0D  F009         	goto	i2u211_41
  1652   001216  EF0F  F009         	goto	i2u211_40
  1653   00121A                     i2u211_41:
  1654   00121A  EF2A  F009         	goto	i2l1020
  1655   00121E                     i2u211_40:
  1656   00121E  A0F2               	btfss	242,0,c	;volatile
  1657   001220  EF14  F009         	goto	i2u212_41
  1658   001224  EF16  F009         	goto	i2u212_40
  1659   001228                     i2u212_41:
  1660   001228  EF2A  F009         	goto	i2l1020
  1661   00122C                     i2u212_40:
  1662   00122C  AE81               	btfss	129,7,c	;volatile
  1663   00122E  EF1B  F009         	goto	i2u213_41
  1664   001232  EF1D  F009         	goto	i2u213_40
  1665   001236                     i2u213_41:
  1666   001236  EF2A  F009         	goto	i2l1020
  1667   00123A                     i2u213_40:
  1668   00123A  042B               	decf	_RB7_Flag^0,w,c	;volatile
  1669   00123C  A4D8               	btfss	status,2,c
  1670   00123E  EF23  F009         	goto	i2u214_41
  1671   001242  EF25  F009         	goto	i2u214_40
  1672   001246                     i2u214_41:
  1673   001246  EF2A  F009         	goto	i2l1020
  1674   00124A                     i2u214_40:
  1675   00124A                     
  1676                           ;MCAL_Layer/Interrupt/mcal_interrupt_manager.c: 89:     && (PORTBbits.RB7 == GPIO_HIGH) 
      +                          && (RB7_Flag == 1)){;MCAL_Layer/Interrupt/mcal_interrupt_manager.c: 90:         RB7_Flag
      +                           = 0;
  1677   00124A  0E00               	movlw	0
  1678   00124C  6E2B               	movwf	_RB7_Flag^0,c	;volatile
  1679   00124E                     
  1680                           ;MCAL_Layer/Interrupt/mcal_interrupt_manager.c: 91:         RB7_ISR(0);
  1681   00124E  0E00               	movlw	0
  1682   001250  ECBD  F00B         	call	_RB7_ISR
  1683   001254                     i2l1020:
  1684                           
  1685                           ;MCAL_Layer/Interrupt/mcal_interrupt_manager.c: 94:     if((1 == INTCONbits.RBIE) && (1 
      +                          == INTCONbits.RBIF )
  1686   001254  A6F2               	btfss	242,3,c	;volatile
  1687   001256  EF2F  F009         	goto	i2u215_41
  1688   00125A  EF31  F009         	goto	i2u215_40
  1689   00125E                     i2u215_41:
  1690   00125E  EF4C  F009         	goto	i2l1022
  1691   001262                     i2u215_40:
  1692   001262  A0F2               	btfss	242,0,c	;volatile
  1693   001264  EF36  F009         	goto	i2u216_41
  1694   001268  EF38  F009         	goto	i2u216_40
  1695   00126C                     i2u216_41:
  1696   00126C  EF4C  F009         	goto	i2l1022
  1697   001270                     i2u216_40:
  1698   001270  BE81               	btfsc	129,7,c	;volatile
  1699   001272  EF3D  F009         	goto	i2u217_41
  1700   001276  EF3F  F009         	goto	i2u217_40
  1701   00127A                     i2u217_41:
  1702   00127A  EF4C  F009         	goto	i2l1022
  1703   00127E                     i2u217_40:
  1704   00127E  502B               	movf	_RB7_Flag^0,w,c	;volatile
  1705   001280  A4D8               	btfss	status,2,c
  1706   001282  EF45  F009         	goto	i2u218_41
  1707   001286  EF47  F009         	goto	i2u218_40
  1708   00128A                     i2u218_41:
  1709   00128A  EF4C  F009         	goto	i2l1022
  1710   00128E                     i2u218_40:
  1711   00128E                     
  1712                           ;MCAL_Layer/Interrupt/mcal_interrupt_manager.c: 95:     && (PORTBbits.RB7 == GPIO_LOW) &
      +                          & (RB7_Flag == 0)){;MCAL_Layer/Interrupt/mcal_interrupt_manager.c: 96:         RB7_Flag 
      +                          = 1;
  1713   00128E  0E01               	movlw	1
  1714   001290  6E2B               	movwf	_RB7_Flag^0,c	;volatile
  1715   001292                     
  1716                           ;MCAL_Layer/Interrupt/mcal_interrupt_manager.c: 97:         RB7_ISR(1);
  1717   001292  0E01               	movlw	1
  1718   001294  ECBD  F00B         	call	_RB7_ISR
  1719   001298                     i2l1022:
  1720                           
  1721                           ;MCAL_Layer/Interrupt/mcal_interrupt_manager.c: 102:     if((1 == PIE1bits.ADIE) && (1 =
      +                          = PIR1bits.ADIF)){
  1722   001298  AC9D               	btfss	157,6,c	;volatile
  1723   00129A  EF51  F009         	goto	i2u219_41
  1724   00129E  EF53  F009         	goto	i2u219_40
  1725   0012A2                     i2u219_41:
  1726   0012A2  EF5C  F009         	goto	i2l1024
  1727   0012A6                     i2u219_40:
  1728   0012A6  AC9E               	btfss	158,6,c	;volatile
  1729   0012A8  EF58  F009         	goto	i2u220_41
  1730   0012AC  EF5A  F009         	goto	i2u220_40
  1731   0012B0                     i2u220_41:
  1732   0012B0  EF5C  F009         	goto	i2l1024
  1733   0012B4                     i2u220_40:
  1734   0012B4                     
  1735                           ;MCAL_Layer/Interrupt/mcal_interrupt_manager.c: 103:         ADC_ISR();
  1736   0012B4  ECFF  F00B         	call	_ADC_ISR	;wreg free
  1737   0012B8                     i2l1024:
  1738                           
  1739                           ;MCAL_Layer/Interrupt/mcal_interrupt_manager.c: 108:     if((1 == INTCONbits.TMR0IE) && 
      +                          (INTCONbits.TMR0IF)){
  1740   0012B8  AAF2               	btfss	242,5,c	;volatile
  1741   0012BA  EF61  F009         	goto	i2u221_41
  1742   0012BE  EF63  F009         	goto	i2u221_40
  1743   0012C2                     i2u221_41:
  1744   0012C2  EF6C  F009         	goto	i2l1026
  1745   0012C6                     i2u221_40:
  1746   0012C6  A4F2               	btfss	242,2,c	;volatile
  1747   0012C8  EF68  F009         	goto	i2u222_41
  1748   0012CC  EF6A  F009         	goto	i2u222_40
  1749   0012D0                     i2u222_41:
  1750   0012D0  EF6C  F009         	goto	i2l1026
  1751   0012D4                     i2u222_40:
  1752   0012D4                     
  1753                           ;MCAL_Layer/Interrupt/mcal_interrupt_manager.c: 109:         TMR0_ISR();
  1754   0012D4  ECF1  F00B         	call	_TMR0_ISR	;wreg free
  1755   0012D8                     i2l1026:
  1756                           
  1757                           ;MCAL_Layer/Interrupt/mcal_interrupt_manager.c: 114:     if((1 == PIE1bits.TXIE) && (PIR
      +                          1bits.TXIF)){
  1758   0012D8  A89D               	btfss	157,4,c	;volatile
  1759   0012DA  EF71  F009         	goto	i2u223_41
  1760   0012DE  EF73  F009         	goto	i2u223_40
  1761   0012E2                     i2u223_41:
  1762   0012E2  EF7C  F009         	goto	i2l1028
  1763   0012E6                     i2u223_40:
  1764   0012E6  A89E               	btfss	158,4,c	;volatile
  1765   0012E8  EF78  F009         	goto	i2u224_41
  1766   0012EC  EF7A  F009         	goto	i2u224_40
  1767   0012F0                     i2u224_41:
  1768   0012F0  EF7C  F009         	goto	i2l1028
  1769   0012F4                     i2u224_40:
  1770   0012F4                     
  1771                           ;MCAL_Layer/Interrupt/mcal_interrupt_manager.c: 115:         EUSART_TX_ISR();
  1772   0012F4  ECFD  F00B         	call	_EUSART_TX_ISR	;wreg free
  1773   0012F8                     i2l1028:
  1774                           
  1775                           ;MCAL_Layer/Interrupt/mcal_interrupt_manager.c: 119:     if((1 == PIE1bits.RCIE) && (PIR
      +                          1bits.RCIF)){
  1776   0012F8  AA9D               	btfss	157,5,c	;volatile
  1777   0012FA  EF81  F009         	goto	i2u225_41
  1778   0012FE  EF83  F009         	goto	i2u225_40
  1779   001302                     i2u225_41:
  1780   001302  EF8C  F009         	goto	i2l1031
  1781   001306                     i2u225_40:
  1782   001306  AA9E               	btfss	158,5,c	;volatile
  1783   001308  EF88  F009         	goto	i2u226_41
  1784   00130C  EF8A  F009         	goto	i2u226_40
  1785   001310                     i2u226_41:
  1786   001310  EF8C  F009         	goto	i2l1031
  1787   001314                     i2u226_40:
  1788   001314                     
  1789                           ;MCAL_Layer/Interrupt/mcal_interrupt_manager.c: 120:         EUSART_RX_ISR();
  1790   001314  EC01  F00C         	call	_EUSART_RX_ISR	;wreg free
  1791   001318                     i2l1031:
  1792   001318  927D               	bcf	int$flags,1,c	;clear compiler interrupt flag (level 2)
  1793   00131A  0011               	retfie		f
  1794   00131C                     __end_of_InterruptManager:
  1795                           	callstack 0
  1796                           
  1797 ;; *************** function _TMR0_ISR *****************
  1798 ;; Defined at:
  1799 ;;		line 129 in file "MCAL_Layer/Timer0/timer0.c"
  1800 ;; Parameters:    Size  Location     Type
  1801 ;;		None
  1802 ;; Auto vars:     Size  Location     Type
  1803 ;;		None
  1804 ;; Return value:  Size  Location     Type
  1805 ;;                  1    wreg      void 
  1806 ;; Registers used:
  1807 ;;		wreg, status,2
  1808 ;; Tracked objects:
  1809 ;;		On entry : 0/0
  1810 ;;		On exit  : 0/0
  1811 ;;		Unchanged: 0/0
  1812 ;; Data sizes:     COMRAM   BANK0   BANK1   BANK2   BANK3   BANK4   BANK5   BANK6   BANK7   BANK8   BANK9  BANK10  BANK1
      +1  BANK12  BANK13  BANK14  BANK15
  1813 ;;      Params:         0       0       0       0       0       0       0       0       0       0       0       0       
      +0       0       0       0       0
  1814 ;;      Locals:         0       0       0       0       0       0       0       0       0       0       0       0       
      +0       0       0       0       0
  1815 ;;      Temps:          0       0       0       0       0       0       0       0       0       0       0       0       
      +0       0       0       0       0
  1816 ;;      Totals:         0       0       0       0       0       0       0       0       0       0       0       0       
      +0       0       0       0       0
  1817 ;;Total ram usage:        0 bytes
  1818 ;; Hardware stack levels used: 1
  1819 ;; This function calls:
  1820 ;;		Nothing
  1821 ;; This function is called by:
  1822 ;;		_InterruptManager
  1823 ;; This function uses a non-reentrant model
  1824 ;;
  1825                           
  1826                           	psect	text7
  1827   0017E2                     __ptext7:
  1828                           	callstack 0
  1829   0017E2                     _TMR0_ISR:
  1830                           	callstack 26
  1831   0017E2                     
  1832                           ;MCAL_Layer/Timer0/timer0.c: 131:     (INTCONbits.TMR0IF = 0);
  1833   0017E2  94F2               	bcf	242,2,c	;volatile
  1834                           
  1835                           ;MCAL_Layer/Timer0/timer0.c: 132:     TMR0L = (uint8)(timer0_preload);
  1836   0017E4  C035  FFD6         	movff	_timer0_preload,4054	;volatile
  1837   0017E8                     
  1838                           ;MCAL_Layer/Timer0/timer0.c: 133:     TMR0H = ((timer0_preload)>> 8);
  1839   0017E8  5036               	movf	(_timer0_preload+1)^0,w,c
  1840   0017EA  6ED7               	movwf	215,c	;volatile
  1841   0017EC  0012               	return		;funcret
  1842   0017EE                     __end_of_TMR0_ISR:
  1843                           	callstack 0
  1844                           
  1845 ;; *************** function _RB7_ISR *****************
  1846 ;; Defined at:
  1847 ;;		line 159 in file "MCAL_Layer/Interrupt/mcal_external_interrup.c"
  1848 ;; Parameters:    Size  Location     Type
  1849 ;;  RB7_Source      1    wreg     unsigned char 
  1850 ;; Auto vars:     Size  Location     Type
  1851 ;;  RB7_Source      1    0[COMRAM] unsigned char 
  1852 ;; Return value:  Size  Location     Type
  1853 ;;                  1    wreg      void 
  1854 ;; Registers used:
  1855 ;;		wreg, status,2, status,0
  1856 ;; Tracked objects:
  1857 ;;		On entry : 0/0
  1858 ;;		On exit  : 0/0
  1859 ;;		Unchanged: 0/0
  1860 ;; Data sizes:     COMRAM   BANK0   BANK1   BANK2   BANK3   BANK4   BANK5   BANK6   BANK7   BANK8   BANK9  BANK10  BANK1
      +1  BANK12  BANK13  BANK14  BANK15
  1861 ;;      Params:         0       0       0       0       0       0       0       0       0       0       0       0       
      +0       0       0       0       0
  1862 ;;      Locals:         1       0       0       0       0       0       0       0       0       0       0       0       
      +0       0       0       0       0
  1863 ;;      Temps:          0       0       0       0       0       0       0       0       0       0       0       0       
      +0       0       0       0       0
  1864 ;;      Totals:         1       0       0       0       0       0       0       0       0       0       0       0       
      +0       0       0       0       0
  1865 ;;Total ram usage:        1 bytes
  1866 ;; Hardware stack levels used: 1
  1867 ;; This function calls:
  1868 ;;		Nothing
  1869 ;; This function is called by:
  1870 ;;		_InterruptManager
  1871 ;; This function uses a non-reentrant model
  1872 ;;
  1873                           
  1874                           	psect	text8
  1875   00177A                     __ptext8:
  1876                           	callstack 0
  1877   00177A                     _RB7_ISR:
  1878                           	callstack 26
  1879                           
  1880                           ;incstack = 0
  1881                           ;RB7_ISR@RB7_Source stored from wreg
  1882   00177A  6E60               	movwf	RB7_ISR@RB7_Source^0,c
  1883   00177C                     
  1884                           ;MCAL_Layer/Interrupt/mcal_external_interrup.c: 159: void RB7_ISR(uint8 RB7_Source);MCAL
      +                          _Layer/Interrupt/mcal_external_interrup.c: 160: {;MCAL_Layer/Interrupt/mcal_external_int
      +                          errup.c: 162:     (INTCONbits.RBIF = 0);
  1885   00177C  90F2               	bcf	242,0,c	;volatile
  1886   00177E                     
  1887                           ;MCAL_Layer/Interrupt/mcal_external_interrup.c: 166:     if(0 == RB7_Source) {
  1888   00177E  5060               	movf	RB7_ISR@RB7_Source^0,w,c
  1889   001780  A4D8               	btfss	status,2,c
  1890   001782  EFC5  F00B         	goto	i2u37_41
  1891   001786  EFC7  F00B         	goto	i2u37_40
  1892   00178A                     i2u37_41:
  1893   00178A  EFC9  F00B         	goto	i2l2299
  1894   00178E                     i2u37_40:
  1895   00178E  EFC9  F00B         	goto	i2l847
  1896   001792                     i2l2299:
  1897   001792                     i2l847:
  1898   001792  0012               	return		;funcret
  1899   001794                     __end_of_RB7_ISR:
  1900                           	callstack 0
  1901                           
  1902 ;; *************** function _RB6_ISR *****************
  1903 ;; Defined at:
  1904 ;;		line 141 in file "MCAL_Layer/Interrupt/mcal_external_interrup.c"
  1905 ;; Parameters:    Size  Location     Type
  1906 ;;  RB6_Source      1    wreg     unsigned char 
  1907 ;; Auto vars:     Size  Location     Type
  1908 ;;  RB6_Source      1    0[COMRAM] unsigned char 
  1909 ;; Return value:  Size  Location     Type
  1910 ;;                  1    wreg      void 
  1911 ;; Registers used:
  1912 ;;		wreg, status,2, status,0
  1913 ;; Tracked objects:
  1914 ;;		On entry : 0/0
  1915 ;;		On exit  : 0/0
  1916 ;;		Unchanged: 0/0
  1917 ;; Data sizes:     COMRAM   BANK0   BANK1   BANK2   BANK3   BANK4   BANK5   BANK6   BANK7   BANK8   BANK9  BANK10  BANK1
      +1  BANK12  BANK13  BANK14  BANK15
  1918 ;;      Params:         0       0       0       0       0       0       0       0       0       0       0       0       
      +0       0       0       0       0
  1919 ;;      Locals:         1       0       0       0       0       0       0       0       0       0       0       0       
      +0       0       0       0       0
  1920 ;;      Temps:          0       0       0       0       0       0       0       0       0       0       0       0       
      +0       0       0       0       0
  1921 ;;      Totals:         1       0       0       0       0       0       0       0       0       0       0       0       
      +0       0       0       0       0
  1922 ;;Total ram usage:        1 bytes
  1923 ;; Hardware stack levels used: 1
  1924 ;; This function calls:
  1925 ;;		Nothing
  1926 ;; This function is called by:
  1927 ;;		_InterruptManager
  1928 ;; This function uses a non-reentrant model
  1929 ;;
  1930                           
  1931                           	psect	text9
  1932   001794                     __ptext9:
  1933                           	callstack 0
  1934   001794                     _RB6_ISR:
  1935                           	callstack 26
  1936                           
  1937                           ;incstack = 0
  1938                           ;RB6_ISR@RB6_Source stored from wreg
  1939   001794  6E60               	movwf	RB6_ISR@RB6_Source^0,c
  1940   001796                     
  1941                           ;MCAL_Layer/Interrupt/mcal_external_interrup.c: 141: void RB6_ISR(uint8 RB6_Source);MCAL
      +                          _Layer/Interrupt/mcal_external_interrup.c: 142: {;MCAL_Layer/Interrupt/mcal_external_int
      +                          errup.c: 144:     (INTCONbits.RBIF = 0);
  1942   001796  90F2               	bcf	242,0,c	;volatile
  1943   001798                     
  1944                           ;MCAL_Layer/Interrupt/mcal_external_interrup.c: 148:     if(0 == RB6_Source) {
  1945   001798  5060               	movf	RB6_ISR@RB6_Source^0,w,c
  1946   00179A  A4D8               	btfss	status,2,c
  1947   00179C  EFD2  F00B         	goto	i2u36_41
  1948   0017A0  EFD4  F00B         	goto	i2u36_40
  1949   0017A4                     i2u36_41:
  1950   0017A4  EFD6  F00B         	goto	i2l2285
  1951   0017A8                     i2u36_40:
  1952   0017A8  EFD6  F00B         	goto	i2l836
  1953   0017AC                     i2l2285:
  1954   0017AC                     i2l836:
  1955   0017AC  0012               	return		;funcret
  1956   0017AE                     __end_of_RB6_ISR:
  1957                           	callstack 0
  1958                           
  1959 ;; *************** function _RB5_ISR *****************
  1960 ;; Defined at:
  1961 ;;		line 123 in file "MCAL_Layer/Interrupt/mcal_external_interrup.c"
  1962 ;; Parameters:    Size  Location     Type
  1963 ;;  RB5_Source      1    wreg     unsigned char 
  1964 ;; Auto vars:     Size  Location     Type
  1965 ;;  RB5_Source      1    0[COMRAM] unsigned char 
  1966 ;; Return value:  Size  Location     Type
  1967 ;;                  1    wreg      void 
  1968 ;; Registers used:
  1969 ;;		wreg, status,2, status,0
  1970 ;; Tracked objects:
  1971 ;;		On entry : 0/0
  1972 ;;		On exit  : 0/0
  1973 ;;		Unchanged: 0/0
  1974 ;; Data sizes:     COMRAM   BANK0   BANK1   BANK2   BANK3   BANK4   BANK5   BANK6   BANK7   BANK8   BANK9  BANK10  BANK1
      +1  BANK12  BANK13  BANK14  BANK15
  1975 ;;      Params:         0       0       0       0       0       0       0       0       0       0       0       0       
      +0       0       0       0       0
  1976 ;;      Locals:         1       0       0       0       0       0       0       0       0       0       0       0       
      +0       0       0       0       0
  1977 ;;      Temps:          0       0       0       0       0       0       0       0       0       0       0       0       
      +0       0       0       0       0
  1978 ;;      Totals:         1       0       0       0       0       0       0       0       0       0       0       0       
      +0       0       0       0       0
  1979 ;;Total ram usage:        1 bytes
  1980 ;; Hardware stack levels used: 1
  1981 ;; This function calls:
  1982 ;;		Nothing
  1983 ;; This function is called by:
  1984 ;;		_InterruptManager
  1985 ;; This function uses a non-reentrant model
  1986 ;;
  1987                           
  1988                           	psect	text10
  1989   0017AE                     __ptext10:
  1990                           	callstack 0
  1991   0017AE                     _RB5_ISR:
  1992                           	callstack 26
  1993                           
  1994                           ;incstack = 0
  1995                           ;RB5_ISR@RB5_Source stored from wreg
  1996   0017AE  6E60               	movwf	RB5_ISR@RB5_Source^0,c
  1997   0017B0                     
  1998                           ;MCAL_Layer/Interrupt/mcal_external_interrup.c: 123: void RB5_ISR(uint8 RB5_Source);MCAL
      +                          _Layer/Interrupt/mcal_external_interrup.c: 124: {;MCAL_Layer/Interrupt/mcal_external_int
      +                          errup.c: 126:     (INTCONbits.RBIF = 0);
  1999   0017B0  90F2               	bcf	242,0,c	;volatile
  2000   0017B2                     
  2001                           ;MCAL_Layer/Interrupt/mcal_external_interrup.c: 130:     if(0 == RB5_Source) {
  2002   0017B2  5060               	movf	RB5_ISR@RB5_Source^0,w,c
  2003   0017B4  A4D8               	btfss	status,2,c
  2004   0017B6  EFDF  F00B         	goto	i2u35_41
  2005   0017BA  EFE1  F00B         	goto	i2u35_40
  2006   0017BE                     i2u35_41:
  2007   0017BE  EFE3  F00B         	goto	i2l2271
  2008   0017C2                     i2u35_40:
  2009   0017C2  EFE3  F00B         	goto	i2l825
  2010   0017C6                     i2l2271:
  2011   0017C6                     i2l825:
  2012   0017C6  0012               	return		;funcret
  2013   0017C8                     __end_of_RB5_ISR:
  2014                           	callstack 0
  2015                           
  2016 ;; *************** function _RB4_ISR *****************
  2017 ;; Defined at:
  2018 ;;		line 104 in file "MCAL_Layer/Interrupt/mcal_external_interrup.c"
  2019 ;; Parameters:    Size  Location     Type
  2020 ;;  RB4_Source      1    wreg     unsigned char 
  2021 ;; Auto vars:     Size  Location     Type
  2022 ;;  RB4_Source      1    0[COMRAM] unsigned char 
  2023 ;; Return value:  Size  Location     Type
  2024 ;;                  1    wreg      void 
  2025 ;; Registers used:
  2026 ;;		wreg, status,2, status,0
  2027 ;; Tracked objects:
  2028 ;;		On entry : 0/0
  2029 ;;		On exit  : 0/0
  2030 ;;		Unchanged: 0/0
  2031 ;; Data sizes:     COMRAM   BANK0   BANK1   BANK2   BANK3   BANK4   BANK5   BANK6   BANK7   BANK8   BANK9  BANK10  BANK1
      +1  BANK12  BANK13  BANK14  BANK15
  2032 ;;      Params:         0       0       0       0       0       0       0       0       0       0       0       0       
      +0       0       0       0       0
  2033 ;;      Locals:         1       0       0       0       0       0       0       0       0       0       0       0       
      +0       0       0       0       0
  2034 ;;      Temps:          0       0       0       0       0       0       0       0       0       0       0       0       
      +0       0       0       0       0
  2035 ;;      Totals:         1       0       0       0       0       0       0       0       0       0       0       0       
      +0       0       0       0       0
  2036 ;;Total ram usage:        1 bytes
  2037 ;; Hardware stack levels used: 1
  2038 ;; This function calls:
  2039 ;;		Nothing
  2040 ;; This function is called by:
  2041 ;;		_InterruptManager
  2042 ;; This function uses a non-reentrant model
  2043 ;;
  2044                           
  2045                           	psect	text11
  2046   0017C8                     __ptext11:
  2047                           	callstack 0
  2048   0017C8                     _RB4_ISR:
  2049                           	callstack 26
  2050                           
  2051                           ;incstack = 0
  2052                           ;RB4_ISR@RB4_Source stored from wreg
  2053   0017C8  6E60               	movwf	RB4_ISR@RB4_Source^0,c
  2054   0017CA                     
  2055                           ;MCAL_Layer/Interrupt/mcal_external_interrup.c: 104: void RB4_ISR(uint8 RB4_Source);MCAL
      +                          _Layer/Interrupt/mcal_external_interrup.c: 105: {;MCAL_Layer/Interrupt/mcal_external_int
      +                          errup.c: 107:     (INTCONbits.RBIF = 0);
  2056   0017CA  90F2               	bcf	242,0,c	;volatile
  2057   0017CC                     
  2058                           ;MCAL_Layer/Interrupt/mcal_external_interrup.c: 111:     if(0 == RB4_Source) {
  2059   0017CC  5060               	movf	RB4_ISR@RB4_Source^0,w,c
  2060   0017CE  A4D8               	btfss	status,2,c
  2061   0017D0  EFEC  F00B         	goto	i2u34_41
  2062   0017D4  EFEE  F00B         	goto	i2u34_40
  2063   0017D8                     i2u34_41:
  2064   0017D8  EFF0  F00B         	goto	i2l2257
  2065   0017DC                     i2u34_40:
  2066   0017DC  EFF0  F00B         	goto	i2l814
  2067   0017E0                     i2l2257:
  2068   0017E0                     i2l814:
  2069   0017E0  0012               	return		;funcret
  2070   0017E2                     __end_of_RB4_ISR:
  2071                           	callstack 0
  2072                           
  2073 ;; *************** function _INT2_ISR *****************
  2074 ;; Defined at:
  2075 ;;		line 93 in file "MCAL_Layer/Interrupt/mcal_external_interrup.c"
  2076 ;; Parameters:    Size  Location     Type
  2077 ;;		None
  2078 ;; Auto vars:     Size  Location     Type
  2079 ;;		None
  2080 ;; Return value:  Size  Location     Type
  2081 ;;                  1    wreg      void 
  2082 ;; Registers used:
  2083 ;;		None
  2084 ;; Tracked objects:
  2085 ;;		On entry : 0/0
  2086 ;;		On exit  : 0/0
  2087 ;;		Unchanged: 0/0
  2088 ;; Data sizes:     COMRAM   BANK0   BANK1   BANK2   BANK3   BANK4   BANK5   BANK6   BANK7   BANK8   BANK9  BANK10  BANK1
      +1  BANK12  BANK13  BANK14  BANK15
  2089 ;;      Params:         0       0       0       0       0       0       0       0       0       0       0       0       
      +0       0       0       0       0
  2090 ;;      Locals:         0       0       0       0       0       0       0       0       0       0       0       0       
      +0       0       0       0       0
  2091 ;;      Temps:          0       0       0       0       0       0       0       0       0       0       0       0       
      +0       0       0       0       0
  2092 ;;      Totals:         0       0       0       0       0       0       0       0       0       0       0       0       
      +0       0       0       0       0
  2093 ;;Total ram usage:        0 bytes
  2094 ;; Hardware stack levels used: 1
  2095 ;; This function calls:
  2096 ;;		Nothing
  2097 ;; This function is called by:
  2098 ;;		_InterruptManager
  2099 ;; This function uses a non-reentrant model
  2100 ;;
  2101                           
  2102                           	psect	text12
  2103   0017EE                     __ptext12:
  2104                           	callstack 0
  2105   0017EE                     _INT2_ISR:
  2106                           	callstack 26
  2107   0017EE                     
  2108                           ;MCAL_Layer/Interrupt/mcal_external_interrup.c: 96:     (INTCON3bits.INT2IF = 0);
  2109   0017EE  92F0               	bcf	240,1,c	;volatile
  2110   0017F0  0012               	return		;funcret
  2111   0017F2                     __end_of_INT2_ISR:
  2112                           	callstack 0
  2113                           
  2114 ;; *************** function _INT1_ISR *****************
  2115 ;; Defined at:
  2116 ;;		line 81 in file "MCAL_Layer/Interrupt/mcal_external_interrup.c"
  2117 ;; Parameters:    Size  Location     Type
  2118 ;;		None
  2119 ;; Auto vars:     Size  Location     Type
  2120 ;;		None
  2121 ;; Return value:  Size  Location     Type
  2122 ;;                  1    wreg      void 
  2123 ;; Registers used:
  2124 ;;		None
  2125 ;; Tracked objects:
  2126 ;;		On entry : 0/0
  2127 ;;		On exit  : 0/0
  2128 ;;		Unchanged: 0/0
  2129 ;; Data sizes:     COMRAM   BANK0   BANK1   BANK2   BANK3   BANK4   BANK5   BANK6   BANK7   BANK8   BANK9  BANK10  BANK1
      +1  BANK12  BANK13  BANK14  BANK15
  2130 ;;      Params:         0       0       0       0       0       0       0       0       0       0       0       0       
      +0       0       0       0       0
  2131 ;;      Locals:         0       0       0       0       0       0       0       0       0       0       0       0       
      +0       0       0       0       0
  2132 ;;      Temps:          0       0       0       0       0       0       0       0       0       0       0       0       
      +0       0       0       0       0
  2133 ;;      Totals:         0       0       0       0       0       0       0       0       0       0       0       0       
      +0       0       0       0       0
  2134 ;;Total ram usage:        0 bytes
  2135 ;; Hardware stack levels used: 1
  2136 ;; This function calls:
  2137 ;;		Nothing
  2138 ;; This function is called by:
  2139 ;;		_InterruptManager
  2140 ;; This function uses a non-reentrant model
  2141 ;;
  2142                           
  2143                           	psect	text13
  2144   0017F2                     __ptext13:
  2145                           	callstack 0
  2146   0017F2                     _INT1_ISR:
  2147                           	callstack 26
  2148   0017F2                     
  2149                           ;MCAL_Layer/Interrupt/mcal_external_interrup.c: 84:     (INTCON3bits.INT1IF = 0);
  2150   0017F2  90F0               	bcf	240,0,c	;volatile
  2151   0017F4  0012               	return		;funcret
  2152   0017F6                     __end_of_INT1_ISR:
  2153                           	callstack 0
  2154                           
  2155 ;; *************** function _INT0_ISR *****************
  2156 ;; Defined at:
  2157 ;;		line 70 in file "MCAL_Layer/Interrupt/mcal_external_interrup.c"
  2158 ;; Parameters:    Size  Location     Type
  2159 ;;		None
  2160 ;; Auto vars:     Size  Location     Type
  2161 ;;		None
  2162 ;; Return value:  Size  Location     Type
  2163 ;;                  1    wreg      void 
  2164 ;; Registers used:
  2165 ;;		None
  2166 ;; Tracked objects:
  2167 ;;		On entry : 0/0
  2168 ;;		On exit  : 0/0
  2169 ;;		Unchanged: 0/0
  2170 ;; Data sizes:     COMRAM   BANK0   BANK1   BANK2   BANK3   BANK4   BANK5   BANK6   BANK7   BANK8   BANK9  BANK10  BANK1
      +1  BANK12  BANK13  BANK14  BANK15
  2171 ;;      Params:         0       0       0       0       0       0       0       0       0       0       0       0       
      +0       0       0       0       0
  2172 ;;      Locals:         0       0       0       0       0       0       0       0       0       0       0       0       
      +0       0       0       0       0
  2173 ;;      Temps:          0       0       0       0       0       0       0       0       0       0       0       0       
      +0       0       0       0       0
  2174 ;;      Totals:         0       0       0       0       0       0       0       0       0       0       0       0       
      +0       0       0       0       0
  2175 ;;Total ram usage:        0 bytes
  2176 ;; Hardware stack levels used: 1
  2177 ;; This function calls:
  2178 ;;		Nothing
  2179 ;; This function is called by:
  2180 ;;		_InterruptManager
  2181 ;; This function uses a non-reentrant model
  2182 ;;
  2183                           
  2184                           	psect	text14
  2185   0017F6                     __ptext14:
  2186                           	callstack 0
  2187   0017F6                     _INT0_ISR:
  2188                           	callstack 26
  2189   0017F6                     
  2190                           ;MCAL_Layer/Interrupt/mcal_external_interrup.c: 73:     (INTCONbits.INT0IF = 0);
  2191   0017F6  92F2               	bcf	242,1,c	;volatile
  2192   0017F8  0012               	return		;funcret
  2193   0017FA                     __end_of_INT0_ISR:
  2194                           	callstack 0
  2195                           
  2196 ;; *************** function _EUSART_TX_ISR *****************
  2197 ;; Defined at:
  2198 ;;		line 315 in file "MCAL_Layer/EUSART/hal_usart.c"
  2199 ;; Parameters:    Size  Location     Type
  2200 ;;		None
  2201 ;; Auto vars:     Size  Location     Type
  2202 ;;		None
  2203 ;; Return value:  Size  Location     Type
  2204 ;;                  1    wreg      void 
  2205 ;; Registers used:
  2206 ;;		None
  2207 ;; Tracked objects:
  2208 ;;		On entry : 0/0
  2209 ;;		On exit  : 0/0
  2210 ;;		Unchanged: 0/0
  2211 ;; Data sizes:     COMRAM   BANK0   BANK1   BANK2   BANK3   BANK4   BANK5   BANK6   BANK7   BANK8   BANK9  BANK10  BANK1
      +1  BANK12  BANK13  BANK14  BANK15
  2212 ;;      Params:         0       0       0       0       0       0       0       0       0       0       0       0       
      +0       0       0       0       0
  2213 ;;      Locals:         0       0       0       0       0       0       0       0       0       0       0       0       
      +0       0       0       0       0
  2214 ;;      Temps:          0       0       0       0       0       0       0       0       0       0       0       0       
      +0       0       0       0       0
  2215 ;;      Totals:         0       0       0       0       0       0       0       0       0       0       0       0       
      +0       0       0       0       0
  2216 ;;Total ram usage:        0 bytes
  2217 ;; Hardware stack levels used: 1
  2218 ;; This function calls:
  2219 ;;		Nothing
  2220 ;; This function is called by:
  2221 ;;		_InterruptManager
  2222 ;; This function uses a non-reentrant model
  2223 ;;
  2224                           
  2225                           	psect	text15
  2226   0017FA                     __ptext15:
  2227                           	callstack 0
  2228   0017FA                     _EUSART_TX_ISR:
  2229                           	callstack 26
  2230   0017FA                     
  2231                           ;MCAL_Layer/EUSART/hal_usart.c: 316:     (PIE1bits.TXIE = 0);
  2232   0017FA  989D               	bcf	157,4,c	;volatile
  2233   0017FC  0012               	return		;funcret
  2234   0017FE                     __end_of_EUSART_TX_ISR:
  2235                           	callstack 0
  2236                           
  2237 ;; *************** function _EUSART_RX_ISR *****************
  2238 ;; Defined at:
  2239 ;;		line 324 in file "MCAL_Layer/EUSART/hal_usart.c"
  2240 ;; Parameters:    Size  Location     Type
  2241 ;;		None
  2242 ;; Auto vars:     Size  Location     Type
  2243 ;;		None
  2244 ;; Return value:  Size  Location     Type
  2245 ;;                  1    wreg      void 
  2246 ;; Registers used:
  2247 ;;		wreg, status,2, status,0
  2248 ;; Tracked objects:
  2249 ;;		On entry : 0/0
  2250 ;;		On exit  : 0/0
  2251 ;;		Unchanged: 0/0
  2252 ;; Data sizes:     COMRAM   BANK0   BANK1   BANK2   BANK3   BANK4   BANK5   BANK6   BANK7   BANK8   BANK9  BANK10  BANK1
      +1  BANK12  BANK13  BANK14  BANK15
  2253 ;;      Params:         0       0       0       0       0       0       0       0       0       0       0       0       
      +0       0       0       0       0
  2254 ;;      Locals:         0       0       0       0       0       0       0       0       0       0       0       0       
      +0       0       0       0       0
  2255 ;;      Temps:          0       0       0       0       0       0       0       0       0       0       0       0       
      +0       0       0       0       0
  2256 ;;      Totals:         0       0       0       0       0       0       0       0       0       0       0       0       
      +0       0       0       0       0
  2257 ;;Total ram usage:        0 bytes
  2258 ;; Hardware stack levels used: 1
  2259 ;; This function calls:
  2260 ;;		Nothing
  2261 ;; This function is called by:
  2262 ;;		_InterruptManager
  2263 ;; This function uses a non-reentrant model
  2264 ;;
  2265                           
  2266                           	psect	text16
  2267   001802                     __ptext16:
  2268                           	callstack 0
  2269   001802                     _EUSART_RX_ISR:
  2270                           	callstack 26
  2271   001802  0012               	return		;funcret
  2272   001804                     __end_of_EUSART_RX_ISR:
  2273                           	callstack 0
  2274                           
  2275 ;; *************** function _ADC_ISR *****************
  2276 ;; Defined at:
  2277 ;;		line 269 in file "MCAL_Layer/ADC/hal_adc.c"
  2278 ;; Parameters:    Size  Location     Type
  2279 ;;		None
  2280 ;; Auto vars:     Size  Location     Type
  2281 ;;		None
  2282 ;; Return value:  Size  Location     Type
  2283 ;;                  1    wreg      void 
  2284 ;; Registers used:
  2285 ;;		None
  2286 ;; Tracked objects:
  2287 ;;		On entry : 0/0
  2288 ;;		On exit  : 0/0
  2289 ;;		Unchanged: 0/0
  2290 ;; Data sizes:     COMRAM   BANK0   BANK1   BANK2   BANK3   BANK4   BANK5   BANK6   BANK7   BANK8   BANK9  BANK10  BANK1
      +1  BANK12  BANK13  BANK14  BANK15
  2291 ;;      Params:         0       0       0       0       0       0       0       0       0       0       0       0       
      +0       0       0       0       0
  2292 ;;      Locals:         0       0       0       0       0       0       0       0       0       0       0       0       
      +0       0       0       0       0
  2293 ;;      Temps:          0       0       0       0       0       0       0       0       0       0       0       0       
      +0       0       0       0       0
  2294 ;;      Totals:         0       0       0       0       0       0       0       0       0       0       0       0       
      +0       0       0       0       0
  2295 ;;Total ram usage:        0 bytes
  2296 ;; Hardware stack levels used: 1
  2297 ;; This function calls:
  2298 ;;		Nothing
  2299 ;; This function is called by:
  2300 ;;		_InterruptManager
  2301 ;; This function uses a non-reentrant model
  2302 ;;
  2303                           
  2304                           	psect	text17
  2305   0017FE                     __ptext17:
  2306                           	callstack 0
  2307   0017FE                     _ADC_ISR:
  2308                           	callstack 26
  2309   0017FE                     
  2310                           ;MCAL_Layer/ADC/hal_adc.c: 272:     (PIR1bits.ADIF = 0);
  2311   0017FE  9C9E               	bcf	158,6,c	;volatile
  2312   001800  0012               	return		;funcret
  2313   001802                     __end_of_ADC_ISR:
  2314                           	callstack 0
  2315                           
  2316                           	psect	rparam
  2317   000000                     
  2318                           	psect	temp
  2319   00007D                     btemp:
  2320                           	callstack 0
  2321   00007D                     	ds	1
  2322   000000                     int$flags	set	btemp
  2323   000000                     wtemp8	set	btemp+1
  2324   000000                     ttemp5	set	btemp+1
  2325   000000                     ttemp6	set	btemp+4
  2326   000000                     ttemp7	set	btemp+8
  2327                           
  2328                           	psect	config
  2329                           
  2330                           ; Padding undefined space
  2331   300000                     	org	3145728
  2332   300000  FF                 	db	255
  2333                           
  2334                           ;Config register CONFIG1H @ 0x300001
  2335                           ;	Oscillator Selection bits
  2336                           ;	OSC = HS, HS oscillator
  2337                           ;	Fail-Safe Clock Monitor Enable bit
  2338                           ;	FCMEN = OFF, Fail-Safe Clock Monitor disabled
  2339                           ;	Internal/External Oscillator Switchover bit
  2340                           ;	IESO = OFF, Oscillator Switchover mode disabled
  2341   300001                     	org	3145729
  2342   300001  02                 	db	2
  2343                           
  2344                           ;Config register CONFIG2L @ 0x300002
  2345                           ;	Power-up Timer Enable bit
  2346                           ;	PWRT = OFF, PWRT disabled
  2347                           ;	Brown-out Reset Enable bits
  2348                           ;	BOREN = OFF, Brown-out Reset disabled in hardware and software
  2349                           ;	Brown Out Reset Voltage bits
  2350                           ;	BORV = 1, 
  2351   300002                     	org	3145730
  2352   300002  09                 	db	9
  2353                           
  2354                           ;Config register CONFIG2H @ 0x300003
  2355                           ;	Watchdog Timer Enable bit
  2356                           ;	WDT = OFF, WDT disabled (control is placed on the SWDTEN bit)
  2357                           ;	Watchdog Timer Postscale Select bits
  2358                           ;	WDTPS = 32768, 1:32768
  2359   300003                     	org	3145731
  2360   300003  1E                 	db	30
  2361                           
  2362                           ; Padding undefined space
  2363   300004                     	org	3145732
  2364   300004  FF                 	db	255
  2365                           
  2366                           ;Config register CONFIG3H @ 0x300005
  2367                           ;	CCP2 MUX bit
  2368                           ;	CCP2MX = PORTC, CCP2 input/output is multiplexed with RC1
  2369                           ;	PORTB A/D Enable bit
  2370                           ;	PBADEN = OFF, PORTB<4:0> pins are configured as digital I/O on Reset
  2371                           ;	Low-Power Timer1 Oscillator Enable bit
  2372                           ;	LPT1OSC = OFF, Timer1 configured for higher power operation
  2373                           ;	MCLR Pin Enable bit
  2374                           ;	MCLRE = ON, MCLR pin enabled; RE3 input pin disabled
  2375   300005                     	org	3145733
  2376   300005  81                 	db	129
  2377                           
  2378                           ;Config register CONFIG4L @ 0x300006
  2379                           ;	Stack Full/Underflow Reset Enable bit
  2380                           ;	STVREN = ON, Stack full/underflow will cause Reset
  2381                           ;	Single-Supply ICSP Enable bit
  2382                           ;	LVP = OFF, Single-Supply ICSP disabled
  2383                           ;	Extended Instruction Set Enable bit
  2384                           ;	XINST = OFF, Instruction set extension and Indexed Addressing mode disabled (Legacy mo
      +                          de)
  2385                           ;	Background Debugger Enable bit
  2386                           ;	DEBUG = 0x1, unprogrammed default
  2387   300006                     	org	3145734
  2388   300006  81                 	db	129
  2389                           
  2390                           ; Padding undefined space
  2391   300007                     	org	3145735
  2392   300007  FF                 	db	255
  2393                           
  2394                           ;Config register CONFIG5L @ 0x300008
  2395                           ;	Code Protection bit
  2396                           ;	CP0 = OFF, Block 0 (000800-003FFFh) not code-protected
  2397                           ;	Code Protection bit
  2398                           ;	CP1 = OFF, Block 1 (004000-007FFFh) not code-protected
  2399                           ;	Code Protection bit
  2400                           ;	CP2 = OFF, Block 2 (008000-00BFFFh) not code-protected
  2401                           ;	Code Protection bit
  2402                           ;	CP3 = OFF, Block 3 (00C000-00FFFFh) not code-protected
  2403   300008                     	org	3145736
  2404   300008  0F                 	db	15
  2405                           
  2406                           ;Config register CONFIG5H @ 0x300009
  2407                           ;	Boot Block Code Protection bit
  2408                           ;	CPB = OFF, Boot block (000000-0007FFh) not code-protected
  2409                           ;	Data EEPROM Code Protection bit
  2410                           ;	CPD = OFF, Data EEPROM not code-protected
  2411   300009                     	org	3145737
  2412   300009  C0                 	db	192
  2413                           
  2414                           ;Config register CONFIG6L @ 0x30000A
  2415                           ;	Write Protection bit
  2416                           ;	WRT0 = OFF, Block 0 (000800-003FFFh) not write-protected
  2417                           ;	Write Protection bit
  2418                           ;	WRT1 = OFF, Block 1 (004000-007FFFh) not write-protected
  2419                           ;	Write Protection bit
  2420                           ;	WRT2 = OFF, Block 2 (008000-00BFFFh) not write-protected
  2421                           ;	Write Protection bit
  2422                           ;	WRT3 = OFF, Block 3 (00C000-00FFFFh) not write-protected
  2423   30000A                     	org	3145738
  2424   30000A  0F                 	db	15
  2425                           
  2426                           ;Config register CONFIG6H @ 0x30000B
  2427                           ;	Configuration Register Write Protection bit
  2428                           ;	WRTC = OFF, Configuration registers (300000-3000FFh) not write-protected
  2429                           ;	Boot Block Write Protection bit
  2430                           ;	WRTB = OFF, Boot Block (000000-0007FFh) not write-protected
  2431                           ;	Data EEPROM Write Protection bit
  2432                           ;	WRTD = OFF, Data EEPROM not write-protected
  2433   30000B                     	org	3145739
  2434   30000B  E0                 	db	224
  2435                           
  2436                           ;Config register CONFIG7L @ 0x30000C
  2437                           ;	Table Read Protection bit
  2438                           ;	EBTR0 = OFF, Block 0 (000800-003FFFh) not protected from table reads executed in other
      +                           blocks
  2439                           ;	Table Read Protection bit
  2440                           ;	EBTR1 = OFF, Block 1 (004000-007FFFh) not protected from table reads executed in other
      +                           blocks
  2441                           ;	Table Read Protection bit
  2442                           ;	EBTR2 = OFF, Block 2 (008000-00BFFFh) not protected from table reads executed in other
      +                           blocks
  2443                           ;	Table Read Protection bit
  2444                           ;	EBTR3 = OFF, Block 3 (00C000-00FFFFh) not protected from table reads executed in other
      +                           blocks
  2445   30000C                     	org	3145740
  2446   30000C  0F                 	db	15
  2447                           
  2448                           ;Config register CONFIG7H @ 0x30000D
  2449                           ;	Boot Block Table Read Protection bit
  2450                           ;	EBTRB = OFF, Boot Block (000000-0007FFh) not protected from table reads executed in ot
      +                          her blocks
  2451   30000D                     	org	3145741
  2452   30000D  40                 	db	64
  2453                           tosu	equ	0xFFF
  2454                           tosh	equ	0xFFE
  2455                           tosl	equ	0xFFD
  2456                           stkptr	equ	0xFFC
  2457                           pclatu	equ	0xFFB
  2458                           pclath	equ	0xFFA
  2459                           pcl	equ	0xFF9
  2460                           tblptru	equ	0xFF8
  2461                           tblptrh	equ	0xFF7
  2462                           tblptrl	equ	0xFF6
  2463                           tablat	equ	0xFF5
  2464                           prodh	equ	0xFF4
  2465                           prodl	equ	0xFF3
  2466                           indf0	equ	0xFEF
  2467                           postinc0	equ	0xFEE
  2468                           postdec0	equ	0xFED
  2469                           preinc0	equ	0xFEC
  2470                           plusw0	equ	0xFEB
  2471                           fsr0h	equ	0xFEA
  2472                           fsr0l	equ	0xFE9
  2473                           wreg	equ	0xFE8
  2474                           indf1	equ	0xFE7
  2475                           postinc1	equ	0xFE6
  2476                           postdec1	equ	0xFE5
  2477                           preinc1	equ	0xFE4
  2478                           plusw1	equ	0xFE3
  2479                           fsr1h	equ	0xFE2
  2480                           fsr1l	equ	0xFE1
  2481                           bsr	equ	0xFE0
  2482                           indf2	equ	0xFDF
  2483                           postinc2	equ	0xFDE
  2484                           postdec2	equ	0xFDD
  2485                           preinc2	equ	0xFDC
  2486                           plusw2	equ	0xFDB
  2487                           fsr2h	equ	0xFDA
  2488                           fsr2l	equ	0xFD9
  2489                           status	equ	0xFD8

Data Sizes:
    Strings     3
    Constant    16
    Data        50
    BSS         51
    Persistent  0
    Stack       0

Auto Spaces:
    Space          Size  Autos    Used
    COMRAM          126     29     124
    BANK0           128      0       6
    BANK1           256      0       0
    BANK2           256      0       0
    BANK3           256      0       0
    BANK4           256      0       0
    BANK5           256      0       0
    BANK6           256      0       0
    BANK7           256      0       0
    BANK8           256      0       0
    BANK9           256      0       0
    BANK10          256      0       0
    BANK11          256      0       0
    BANK12          256      0       0
    BANK13          256      0       0
    BANK14          256      0       0
    BANK15          128      0       0

Pointer List with Targets:

    vfprintf$2	PTR PTR void  size(2) Largest target is 2
		 -> sprintf@ap(COMRAM[2]), 

    vfprintf$1	PTR const unsigned char  size(2) Largest target is 3
		 -> STR_3(CODE[3]), STR_2(CODE[3]), STR_1(CODE[3]), 

    vfprintf$0	PTR struct _IO_FILE size(2) Largest target is 11
		 -> sprintf@f(COMRAM[11]), 

    SPI_InterruptHandler	PTR FTN()void  size(2) Largest target is 1
		 -> Absolute function(), 

    S3325$source	PTR const unsigned char  size(2) Largest target is 0

    f...source	PTR const unsigned char  size(2) Largest target is 0

    S3325$buffer	PTR unsigned char  size(2) Largest target is 0

    f...buffer	PTR unsigned char  size(2) Largest target is 0

    MSSP_SPI_SLAVE_MODE_GPIO_PIN_CONFIG@_config.MSSP_SPI_Interrupt_Handler	PTR FTN()void  size(2) Largest target is 1
		 -> Absolute function(), 

    MSSP_SPI_SLAVE_MODE_GPIO_PIN_CONFIG@_config	PTR struct . size(2) Largest target is 4
		 -> spi_ob(COMRAM[4]), 

    SPI_Send_Byte@_config	PTR struct . size(2) Largest target is 4
		 -> spi_ob(COMRAM[4]), 

    SPI_Init@_config.MSSP_SPI_Interrupt_Handler	PTR FTN()void  size(2) Largest target is 1
		 -> Absolute function(), 

    SPI_Init@_config	PTR struct . size(2) Largest target is 4
		 -> spi_ob(COMRAM[4]), 

    S2457$MSSP_SPI_Interrupt_Handler	PTR FTN()void  size(2) Largest target is 1
		 -> Absolute function(), 

    spi_ob.MSSP_SPI_Interrupt_Handler	PTR FTN()void  size(2) Largest target is 1
		 -> Absolute function(), 

    Timer0_Register_Size_Config@_timer0.TMR0_InterruptHandler	PTR FTN()void  size(2) Largest target is 0

    Timer0_Mode_Select@_timer0.TMR0_InterruptHandler	PTR FTN()void  size(2) Largest target is 0

    Timer0_Prescaler_Config@_timer0.TMR0_InterruptHandler	PTR FTN()void  size(2) Largest target is 0

    TMR0_InterruptHandler	PTR FTN()void  size(2) Largest target is 1
		 -> Absolute function(), 

    S2296$TMR0_InterruptHandler	PTR FTN()void  size(2) Largest target is 0

    TIMER0_Init@_timer0.TMR0_InterruptHandler	PTR FTN()void  size(2) Largest target is 0

    Interrupt_INTx_SetInterruptHandler@int_obj.EXT_InterruptHandler	PTR FTN()void  size(2) Largest target is 0

    Interrupt_INTx_Clear_Flag@int_obj.EXT_InterruptHandler	PTR FTN()void  size(2) Largest target is 0

    Interrupt_INTx_Pin_Init@int_obj.EXT_InterruptHandler	PTR FTN()void  size(2) Largest target is 0

    Interrupt_INTx_Edge_Init@int_obj.EXT_InterruptHandler	PTR FTN()void  size(2) Largest target is 0

    Interrupt_INTx_Disable@int_obj.EXT_InterruptHandler	PTR FTN()void  size(2) Largest target is 0

    S1744$EXT_InterruptHandler	PTR FTN()void  size(2) Largest target is 0

    Interrupt_INTx_Enable@int_obj.EXT_InterruptHandler	PTR FTN()void  size(2) Largest target is 0

    S1860$EXT_InterruptHandler_LOW	PTR FTN()void  size(2) Largest target is 0

    Interrupt_RBx_Init@int_obj.EXT_InterruptHandler_LOW	PTR FTN()void  size(2) Largest target is 0

    S1860$EXT_InterruptHandler_HIGH	PTR FTN()void  size(2) Largest target is 0

    Interrupt_RBx_Init@int_obj.EXT_InterruptHandler_HIGH	PTR FTN()void  size(2) Largest target is 0

    RB7_InterruptHandler_LOW	PTR FTN()void  size(2) Largest target is 1
		 -> Absolute function(), 

    RB7_InterruptHandler_HIGH	PTR FTN()void  size(2) Largest target is 1
		 -> Absolute function(), 

    RB6_InterruptHandler_LOW	PTR FTN()void  size(2) Largest target is 1
		 -> Absolute function(), 

    RB6_InterruptHandler_HIGH	PTR FTN()void  size(2) Largest target is 1
		 -> Absolute function(), 

    RB5_InterruptHandler_LOW	PTR FTN()void  size(2) Largest target is 1
		 -> Absolute function(), 

    RB5_InterruptHandler_HIGH	PTR FTN()void  size(2) Largest target is 1
		 -> Absolute function(), 

    RB4_InterruptHandler_LOW	PTR FTN()void  size(2) Largest target is 1
		 -> Absolute function(), 

    RB4_InterruptHandler_HIGH	PTR FTN()void  size(2) Largest target is 1
		 -> Absolute function(), 

    INT2_InterruptHandler	PTR FTN()void  size(2) Largest target is 1
		 -> Absolute function(), 

    INT1_InterruptHandler	PTR FTN()void  size(2) Largest target is 1
		 -> Absolute function(), 

    INT0_InterruptHandler	PTR FTN()void  size(2) Largest target is 1
		 -> Absolute function(), 

    gpio_pin_direction_initialize@_pin_config	PTR struct . size(2) Largest target is 1
		 -> MSSP_SPI_SLAVE_MODE_GPIO_PIN_CONFIG@SPI_SS(COMRAM[1]), MSSP_SPI_SLAVE_MODE_GPIO_PIN_CONFIG@SPI_CLK(COMRAM[1]), MSSP_SPI_SLAVE_MODE_GPIO_PIN_CONFIG@SPI_SDI(COMRAM[1]), MSSP_SPI_SLAVE_MODE_GPIO_PIN_CONFIG@SPI_SDO(COMRAM[1]), 
		 -> MSSP_SPI_MASTER_MODE_GPIO_PIN_CONFIG@SPI_CLK(COMRAM[1]), MSSP_SPI_MASTER_MODE_GPIO_PIN_CONFIG@SPI_SDI(COMRAM[1]), MSSP_SPI_MASTER_MODE_GPIO_PIN_CONFIG@SPI_SDO(COMRAM[1]), relay_initialize@pin_obj(COMRAM[1]), 
		 -> led_initialize@pin_obj(COMRAM[1]), 

    port_registers	PTR volatile unsigned char [5] size(2) Largest target is 1
		 -> PORTE(BITBIGSFRllll[1]), PORTD(BITBIGSFRllll[1]), PORTC(BITBIGSFRllll[1]), PORTB(BITBIGSFRllll[1]), 
		 -> PORTA(BITBIGSFRllll[1]), 

    lat_registers	PTR volatile unsigned char [5] size(2) Largest target is 1
		 -> LATE(BITBIGSFRlllh[1]), LATD(BITBIGSFRlllh[1]), LATC(BITBIGSFRlllh[1]), LATB(BITBIGSFRlllh[1]), 
		 -> LATA(BITBIGSFRllll[1]), 

    tris_registers	PTR volatile unsigned char [5] size(2) Largest target is 1
		 -> TRISD(ABS[1]), TRISC(SFR[1]), TRISB(ABS[1]), TRISE(ABS[1]), 
		 -> TRISA(BITBIGSFRllll[1]), 

    EUSART_OverrunErrorHandler	PTR FTN()void  size(2) Largest target is 1
		 -> Absolute function(), 

    EUSART_FramingErrorHandler	PTR FTN()void  size(2) Largest target is 1
		 -> Absolute function(), 

    EUSART_RxInterruptHandler	PTR FTN()void  size(2) Largest target is 1
		 -> Absolute function(), 

    EUSART_ASYNC_RX_Init@_eusart.EUSART_OverrunErrorHandler	PTR FTN()void  size(2) Largest target is 0

    EUSART_ASYNC_RX_Init@_eusart.EUSART_FramingErrorHandler	PTR FTN()void  size(2) Largest target is 0

    EUSART_ASYNC_RX_Init@_eusart.EUSART_Rx_DefaultInterruptHandler	PTR FTN()void  size(2) Largest target is 0

    EUSART_ASYNC_RX_Init@_eusart.EUSART_Tx_DefaultInterruptHandler	PTR FTN()void  size(2) Largest target is 0

    EUSART_TxInterruptHandler	PTR FTN()void  size(2) Largest target is 1
		 -> Absolute function(), 

    EUSART_ASYNC_TX_Init@_eusart.EUSART_OverrunErrorHandler	PTR FTN()void  size(2) Largest target is 0

    EUSART_ASYNC_TX_Init@_eusart.EUSART_FramingErrorHandler	PTR FTN()void  size(2) Largest target is 0

    EUSART_ASYNC_TX_Init@_eusart.EUSART_Rx_DefaultInterruptHandler	PTR FTN()void  size(2) Largest target is 0

    EUSART_ASYNC_TX_Init@_eusart.EUSART_Tx_DefaultInterruptHandler	PTR FTN()void  size(2) Largest target is 0

    S1174$EUSART_OverrunErrorHandler	PTR FTN()void  size(2) Largest target is 0

    EUSART_Baud_Rate_Calculation@_eusart.EUSART_OverrunErrorHandler	PTR FTN()void  size(2) Largest target is 0

    S1174$EUSART_FramingErrorHandler	PTR FTN()void  size(2) Largest target is 0

    EUSART_Baud_Rate_Calculation@_eusart.EUSART_FramingErrorHandler	PTR FTN()void  size(2) Largest target is 0

    S1174$EUSART_Rx_DefaultInterruptHandler	PTR FTN()void  size(2) Largest target is 0

    EUSART_Baud_Rate_Calculation@_eusart.EUSART_Rx_DefaultInterruptHandler	PTR FTN()void  size(2) Largest target is 0

    S1174$EUSART_Tx_DefaultInterruptHandler	PTR FTN()void  size(2) Largest target is 0

    EUSART_Baud_Rate_Calculation@_eusart.EUSART_Tx_DefaultInterruptHandler	PTR FTN()void  size(2) Largest target is 0

    configure_voltage_reference@_adc.ADC_InterruptHandler	PTR FTN()void  size(2) Largest target is 0

    select_result_format@_adc.ADC_InterruptHandler	PTR FTN()void  size(2) Largest target is 0

    ADC_GetConversionResult@_adc.ADC_InterruptHandler	PTR FTN()void  size(2) Largest target is 0

    ADC_InterruptHandler	PTR FTN()void  size(2) Largest target is 1
		 -> Absolute function(), 

    S658$ADC_InterruptHandler	PTR FTN()void  size(2) Largest target is 0

    ADC_Init@_adc.ADC_InterruptHandler	PTR FTN()void  size(2) Largest target is 0

    sp__memset	PTR void  size(2) Largest target is 0


Critical Paths under _main in COMRAM

    _main->_SPI_Init
    _SPI_Init->_MSSP_SPI_SLAVE_MODE_GPIO_PIN_CONFIG
    _MSSP_SPI_SLAVE_MODE_GPIO_PIN_CONFIG->_gpio_pin_direction_initialize
    _MSSP_SPI_MASTER_MODE_GPIO_PIN_CONFIG->_gpio_pin_direction_initialize

Critical Paths under _InterruptManager in COMRAM

    _InterruptManager->_RB4_ISR
    _InterruptManager->_RB5_ISR
    _InterruptManager->_RB6_ISR
    _InterruptManager->_RB7_ISR

Critical Paths under _main in BANK0

    None.

Critical Paths under _InterruptManager in BANK0

    None.

Critical Paths under _main in BANK1

    None.

Critical Paths under _InterruptManager in BANK1

    None.

Critical Paths under _main in BANK2

    None.

Critical Paths under _InterruptManager in BANK2

    None.

Critical Paths under _main in BANK3

    None.

Critical Paths under _InterruptManager in BANK3

    None.

Critical Paths under _main in BANK4

    None.

Critical Paths under _InterruptManager in BANK4

    None.

Critical Paths under _main in BANK5

    None.

Critical Paths under _InterruptManager in BANK5

    None.

Critical Paths under _main in BANK6

    None.

Critical Paths under _InterruptManager in BANK6

    None.

Critical Paths under _main in BANK7

    None.

Critical Paths under _InterruptManager in BANK7

    None.

Critical Paths under _main in BANK8

    None.

Critical Paths under _InterruptManager in BANK8

    None.

Critical Paths under _main in BANK9

    None.

Critical Paths under _InterruptManager in BANK9

    None.

Critical Paths under _main in BANK10

    None.

Critical Paths under _InterruptManager in BANK10

    None.

Critical Paths under _main in BANK11

    None.

Critical Paths under _InterruptManager in BANK11

    None.

Critical Paths under _main in BANK12

    None.

Critical Paths under _InterruptManager in BANK12

    None.

Critical Paths under _main in BANK13

    None.

Critical Paths under _InterruptManager in BANK13

    None.

Critical Paths under _main in BANK14

    None.

Critical Paths under _InterruptManager in BANK14

    None.

Critical Paths under _main in BANK15

    None.

Critical Paths under _InterruptManager in BANK15

    None.

Call Graph Tables:

 ---------------------------------------------------------------------------------
 (Depth) Function   	        Calls       Base Space   Used Autos Params    Refs
 ---------------------------------------------------------------------------------
 (0) _main                                                10    10      0    4237
                                             20 COMRAM     9     9      0
                           _SPI_Init
                      _SPI_Send_Byte
 ---------------------------------------------------------------------------------
 (1) _SPI_Send_Byte                                        4     1      3     221
                                              1 COMRAM     4     1      3
 ---------------------------------------------------------------------------------
 (1) _SPI_Init                                             4     2      2    3921
                                             16 COMRAM     4     2      2
_MSSP_SPI_MASTER_MODE_GPIO_PIN_CONFI
_MSSP_SPI_SLAVE_MODE_GPIO_PIN_CONFIG
 ---------------------------------------------------------------------------------
 (2) _MSSP_SPI_SLAVE_MODE_GPIO_PIN_CONFIG                  7     5      2    1842
                                             10 COMRAM     6     4      2
      _gpio_pin_direction_initialize
 ---------------------------------------------------------------------------------
 (2) _MSSP_SPI_MASTER_MODE_GPIO_PIN_CONFIG                 4     4      0    1714
                                             10 COMRAM     3     3      0
      _gpio_pin_direction_initialize
 ---------------------------------------------------------------------------------
 (3) _gpio_pin_direction_initialize                        9     7      2    1623
                                              1 COMRAM     9     7      2
 ---------------------------------------------------------------------------------
 Estimated maximum stack depth 3
 ---------------------------------------------------------------------------------
 (Depth) Function   	        Calls       Base Space   Used Autos Params    Refs
 ---------------------------------------------------------------------------------
 (4) _InterruptManager                                     0     0      0     120
                            _ADC_ISR
                      _EUSART_RX_ISR
                      _EUSART_TX_ISR
                           _INT0_ISR
                           _INT1_ISR
                           _INT2_ISR
                            _RB4_ISR
                            _RB5_ISR
                            _RB6_ISR
                            _RB7_ISR
                           _TMR0_ISR
 ---------------------------------------------------------------------------------
 (5) _TMR0_ISR                                             0     0      0       0
 ---------------------------------------------------------------------------------
 (5) _RB7_ISR                                              1     1      0      30
                                              0 COMRAM     1     1      0
 ---------------------------------------------------------------------------------
 (5) _RB6_ISR                                              1     1      0      30
                                              0 COMRAM     1     1      0
 ---------------------------------------------------------------------------------
 (5) _RB5_ISR                                              1     1      0      30
                                              0 COMRAM     1     1      0
 ---------------------------------------------------------------------------------
 (5) _RB4_ISR                                              1     1      0      30
                                              0 COMRAM     1     1      0
 ---------------------------------------------------------------------------------
 (5) _INT2_ISR                                             0     0      0       0
 ---------------------------------------------------------------------------------
 (5) _INT1_ISR                                             0     0      0       0
 ---------------------------------------------------------------------------------
 (5) _INT0_ISR                                             0     0      0       0
 ---------------------------------------------------------------------------------
 (5) _EUSART_TX_ISR                                        0     0      0       0
 ---------------------------------------------------------------------------------
 (5) _EUSART_RX_ISR                                        0     0      0       0
 ---------------------------------------------------------------------------------
 (5) _ADC_ISR                                              0     0      0       0
 ---------------------------------------------------------------------------------
 Estimated maximum stack depth 5
 ---------------------------------------------------------------------------------

 Call Graph Graphs:

 _main (ROOT)
   _SPI_Init
     _MSSP_SPI_MASTER_MODE_GPIO_PIN_CONFIG
       _gpio_pin_direction_initialize
     _MSSP_SPI_SLAVE_MODE_GPIO_PIN_CONFIG
       _gpio_pin_direction_initialize
   _SPI_Send_Byte

 _InterruptManager (ROOT)
   _ADC_ISR
   _EUSART_RX_ISR
   _EUSART_TX_ISR
   _INT0_ISR
   _INT1_ISR
   _INT2_ISR
   _RB4_ISR
   _RB5_ISR
   _RB6_ISR
   _RB7_ISR
   _TMR0_ISR

 Address spaces:
Name               Size   Autos  Total    Cost      Usage
BIGRAM             F7F      0       0      48        0.0%
EEDATA             400      0       0       0        0.0%
BITBANK14          100      0       0      32        0.0%
BANK14             100      0       0      33        0.0%
BITBANK13          100      0       0      30        0.0%
BANK13             100      0       0      31        0.0%
BITBANK12          100      0       0      28        0.0%
BANK12             100      0       0      29        0.0%
BITBANK11          100      0       0      26        0.0%
BANK11             100      0       0      27        0.0%
BITBANK10          100      0       0      24        0.0%
BANK10             100      0       0      25        0.0%
BITBANK9           100      0       0      22        0.0%
BANK9              100      0       0      23        0.0%
BITBANK8           100      0       0      20        0.0%
BANK8              100      0       0      21        0.0%
BITBANK7           100      0       0      18        0.0%
BANK7              100      0       0      19        0.0%
BITBANK6           100      0       0      16        0.0%
BANK6              100      0       0      17        0.0%
BITBANK5           100      0       0      14        0.0%
BANK5              100      0       0      15        0.0%
BITBANK4           100      0       0      12        0.0%
BANK4              100      0       0      13        0.0%
BITBANK3           100      0       0      10        0.0%
BANK3              100      0       0      11        0.0%
BITBANK2           100      0       0       8        0.0%
BANK2              100      0       0       9        0.0%
BITBANK1           100      0       0       6        0.0%
BANK1              100      0       0       7        0.0%
BITBANK15           80      0       0      34        0.0%
BANK15              80      0       0      35        0.0%
BITBANK0            80      0       0       4        0.0%
BANK0               80      0       6       5        4.7%
BITCOMRAM           7E      0       0       0        0.0%
COMRAM              7E     1D      7C       1       98.4%
BITBIGSFRhlhlh      18      0       0      37        0.0%
BITBIGSFRhh          D      0       0      36        0.0%
BITBIGSFRhlhllh      B      0       0      38        0.0%
BITBIGSFRlhhh        7      0       0      41        0.0%
BITBIGSFRlhhl        7      0       0      42        0.0%
BITBIGSFRlhll        7      0       0      43        0.0%
BITBIGSFRllhh        6      0       0      44        0.0%
BITBIGSFRlllh        4      0       0      45        0.0%
BITBIGSFRllll        4      0       0      46        0.0%
BITBIGSFRhlhllh      1      0       0      39        0.0%
BITBIGSFRhlhlll      1      0       0      40        0.0%
BIGSFR               0      0       0     200        0.0%
BITSFR               0      0       0     200        0.0%
SFR                  0      0       0     200        0.0%
STACK                0      0       0       2        0.0%
NULL                 0      0       0       0        0.0%
ABS                  0      0      82      47        0.0%
DATA                 0      0      82       3        0.0%
CODE                 0      0       0       0        0.0%


Microchip Technology PIC18 Macro Assembler V2.40 build 20220703182018 
Symbol Table                                                                                   Sat Jun 22 13:04:58 2024

                          ??_InterruptManager 0061                               SPI_Init@_config 0070  
                                 _SSPSTATbits 000FC7                                 _SPI_Send_Byte 16E0  
                                         l672 15B6                     _RB5_InterruptHandler_HIGH 0043  
                             __end_of_ADC_ISR 1802                           led_initialize@F3045 005F  
                                         prod 000FF3                                           wreg 000FE8  
                       relay_initialize@F3039 005B                               __end_of_RB4_ISR 17E2  
                             __end_of_RB5_ISR 17C8                               __end_of_RB6_ISR 17AE  
                             __end_of_RB7_ISR 1794                                          l1203 169A  
                                        l1142 1336                                          l1151 1472  
                                        l1160 1712                                          l1161 16FE  
                                        l1163 170C                                          l1164 1714  
                                        l1191 1778                                          l1159 16FA  
                                        l4001 16E0                                          l4003 16F2  
                                        l4005 170E                                          l4351 15C4  
                                        l4361 15FA                                          l4353 15D6  
                                        l4371 159E                                          l4363 1612  
                                        l4347 15B8                                          l4365 1616  
                                        l4349 15B8                                          l3911 14AC  
                                        l4359 15DE                                          l3913 14B4  
                                        l3921 15B4                                          l3905 1474  
                                        l3915 1516                                          l3907 1478  
                                        l3931 1748                                          l3909 148A  
                                        l3941 176C                                          l3933 174C  
                                        l3919 1572                                          l3935 1750  
                                        l3951 1646                                          l3943 163A  
                                        l3937 1754                                          l3929 1748  
                                        l3961 168E                                          l3953 164A  
                                        l3945 163A                                          l3939 1760  
                                        l3955 1656                                          l3947 163E  
                                        l3971 1374                                          l3963 131C  
                                        l3957 1662                                          l3949 1642  
                                        l3981 13FC                                          l3973 1394  
                                        l3965 131C                                          l3959 166E  
                                        l3991 146A                                          l3983 141C  
                                        l3975 13B4                                          l3967 132E  
                                        l3993 146C                                          l3985 1428  
                                        l3977 13D4                                          l3969 1338  
                                        l3987 143E                                          l3979 13DC  
                                        l3995 1470                                          l3989 1454  
                                        l3999 16E0                                          STR_1 1011  
                                        _LATA 000F89                                          _LATB 000F8A  
                                        _LATC 000F8B                                          _LATD 000F8C  
                                        _LATE 000F8D                                          u2500 158A  
                                        u2501 1584                                          u2510 158C  
                                        u2520 168E                                          u2521 168A  
                                        u2530 132E                                          u2531 132A  
                                        u2460 148A                                          u2540 1374  
                                        u2461 1486                                          u2605 143C  
                                        u2541 1370                                          u2470 14AC  
                                        u2550 1394                                          u2630 16F2  
                                        u2471 14A8                                          u2615 1452  
                                        u2607 143E                                          u2551 1390  
                                        u2631 16EE                                          u2560 13B4  
                                        u2640 170C                                          u2625 1468  
                                        u2617 1454                                          u2561 13B0  
                                        u2641 1708                                          u2570 13D4  
                                        u2627 146A                                          u2571 13D0  
                                        u2484 14D4                                          u2580 13FC  
                                        u2485 14D0                                          u2581 13F8  
                                        u2494 1536                                          u2590 141C  
                                        u2495 1532                                          u2591 1418  
                                        u2941 15CE                                          u2950 1632  
                                        u2951 162E                                          u2967 1604  
                    _RB4_InterruptHandler_LOW 0045                                          _main 15B8  
                    _RB7_InterruptHandler_LOW 0039                                          fsr2h 000FDA  
                                        indf2 000FDF                                          fsr1l 000FE1  
                                        fsr2l 000FD9                                          btemp 007D  
                                        prodl 000FF3                                          start 000E  
                                ___param_bank 000000                                ?_SPI_Send_Byte 0061  
                            __end_of_INT0_ISR 17FA                              __end_of_INT1_ISR 17F6  
                            __end_of_INT2_ISR 17F2                                 _EUSART_RX_ISR 1802  
                               _EUSART_TX_ISR 17FA                                         ?_main 0060  
                                       _EEADR 000FA9                                         i2l615 17FC  
                                       i2l624 1802                                         i2l459 1800  
                                       i2l803 17F0                                         i2l814 17E0  
                                       i2l825 17C6                                         i2l836 17AC  
                                       i2l847 1792                                         i2l793 17F8  
                                       i2l798 17F4                                         _RCREG 000FAE  
                         relay_turn_off@F3049 0059                                         _TMR0H 000FD7  
                                       _TMR0L 000FD6                                         _SPBRG 000FAF  
                                       _PORTA 000F80                                         _PORTB 000F81  
                                       _PORTC 000F82                                         _PORTD 000F83  
                                       _PORTE 000F84                                         _TRISA 000F92  
                                       _TRISB 000F93                                         _TRISC 000F94  
                                       _TRISD 000F95                                         _TRISE 000F96  
                                       _TXREG 000FAD                              __end_of_TMR0_ISR 17EE  
                                       main@i 007B                              __end_of_SPI_Init 1474  
                                       tablat 000FF5                                         plusw1 000FE3  
                                       plusw2 000FDB                                         ttemp5 007E  
                                       ttemp6 0081                                         ttemp7 0085  
                                       status 000FD8                                         wtemp8 007E  
              ?_gpio_pin_direction_initialize 0061                               __initialization 169C  
                                __end_of_main 163A                                     ??_ADC_ISR 0060  
                              ?_EUSART_RX_ISR 0060                                ?_EUSART_TX_ISR 0060  
                               _lat_registers 000B                                        ??_main 0074  
   MSSP_SPI_SLAVE_MODE_GPIO_PIN_CONFIG@SPI_SS 006F                                 __activetblptr 000003  
                            led_turn_on@F3050 005E                                     ??_RB4_ISR 0060  
                                   ??_RB5_ISR 0060                                     ??_RB6_ISR 0060  
                                   ??_RB7_ISR 0060                    _EUSART_OverrunErrorHandler 004F  
                                      _ADRESH 000FC4                                        _EEADRH 000FAA  
                                      _ADRESL 000FC3                                        _EEDATA 000FA8  
                                      _EECON2 000FA7                                        i2l1010 1100  
                                      i2l1002 1038                                        i2l1020 1254  
                                      i2l1012 1144                                        i2l1004 1058  
                                      i2l1022 1298                                        i2l1014 1188  
                                      i2l1006 1078                                        i2l1031 1318  
                                      i2l1024 12B8                                        i2l1016 11CC  
                                      i2l1008 10BC                                        i2l1026 12D8  
                                      i2l1018 1210                                        i2l1028 12F8  
                                      i2l1074 17EC                                        i2l2213 17FA  
                                      i2l2231 17F6                                        i2l2219 1802  
                                      i2l2243 17EE                                        i2l2251 17CC  
                                      i2l2237 17F2                                        i2l2183 17FE  
                                      i2l2271 17C6                                        i2l2263 17B0  
                                      i2l2257 17E0                                        i2l2249 17CA  
                                      i2l2265 17B2                                        i2l2291 177C  
                                      i2l2347 17E2                                        i2l2285 17AC  
                                      i2l2277 1796                                        i2l2293 177E  
                                      i2l2349 17E8                                        i2l2279 1798  
                                      i2l2299 1792                                        i2l3701 1206  
                                      i2l3711 124A                                        i2l3703 120A  
                                      i2l3631 1018                                        i2l3721 128E  
                                      i2l3713 124E                                        i2l3705 121E  
                                      i2l3641 1066                                        i2l3633 1026  
                                      i2l3731 12D4                                        i2l3723 1292  
                                      i2l3715 1262                                        i2l3707 122C  
                                      i2l3651 10B2                                        i2l3643 1074  
                                      i2l3635 1034                                        i2l3733 12E6  
                                      i2l3725 12A6                                        i2l3717 1270  
                                      i2l3709 123A                                        i2l3661 10F6  
                                      i2l3653 10B6                                        i2l3645 1086  
                                      i2l3637 1046                                        i2l3735 12F4  
                                      i2l3727 12B4                                        i2l3719 127E  
                                      i2l3671 113A                                        i2l3663 10FA  
                                      i2l3655 10CA                                        i2l3647 1094  
                                      i2l3639 1054                                        i2l3737 1306  
                                      i2l3729 12C6                                        i2l3681 117E  
                                      i2l3673 113E                                        i2l3665 110E  
                                      i2l3657 10D8                                        i2l3649 10A2  
                                      i2l3739 1314                                        i2l3691 11C2  
                                      i2l3683 1182                                        i2l3675 1152  
                                      i2l3667 111C                                        i2l3659 10E6  
                                      i2l3693 11C6                                        i2l3685 1196  
                                      i2l3677 1160                                        i2l3669 112A  
                                      i2l3695 11DA                                        i2l3687 11A4  
                                      i2l3679 116E                                        i2l3697 11E8  
                                      i2l3689 11B2                                        i2l3699 11F6  
                                      _SPBRGH 000FB0                                        _SSPBUF 000FC9  
                             ??_SPI_Send_Byte 0064                                        clear_0 16D0  
                                      isa$std 000001                                        _spi_ob 002F  
                                __pdataCOMRAM 0001                                  __mediumconst 0000  
                                      tblptrh 000FF7                                        tblptrl 000FF6  
                                      tblptru 000FF8                                    __accesstop 0080  
                     __end_of__initialization 16D6                                     ?_INT0_ISR 0060  
                                   ?_INT1_ISR 0060                                     ?_INT2_ISR 0060  
                               ___rparam_used 000001                             RB5_ISR@RB5_Source 0060  
                              __pcstackCOMRAM 0060                                     ?_TMR0_ISR 0060  
                             ??_EUSART_RX_ISR 0060                               ??_EUSART_TX_ISR 0060  
                                   ?_SPI_Init 0070      gpio_pin_direction_initialize@_pin_config 0061  
                                  __pbssBANK0 0080                         _INT0_InterruptHandler 004D  
                                  ??_INT0_ISR 0060                                    ??_INT1_ISR 0060  
                                  ??_INT2_ISR 0060     MSSP_SPI_MASTER_MODE_GPIO_PIN_CONFIG@F3090 0029  
   MSSP_SPI_MASTER_MODE_GPIO_PIN_CONFIG@F3092 0028     MSSP_SPI_MASTER_MODE_GPIO_PIN_CONFIG@F3088 002A  
                                  ??_TMR0_ISR 0060                             led_turn_off@F3055 005D  
                                     _ADC_ISR 17FE                                    ??_SPI_Init 0072  
                           RB7_ISR@RB7_Source 0060                                       _RB4_ISR 17C8  
                                     _RB5_ISR 17AE                                       _RB6_ISR 1794  
                                     _RB7_ISR 177A                     _RB6_InterruptHandler_HIGH 003F  
                        led_turn_toggle@F3060 005C                                       i2u34_40 17DC  
                                     i2u34_41 17D8                                       i2u35_40 17C2  
                                     i2u35_41 17BE                                       i2u36_40 17A8  
                                     i2u36_41 17A4                                       i2u37_40 178E  
                                     i2u37_41 178A                                    _btn_values 1001  
                              _tris_registers 0015                      _RB6_InterruptHandler_LOW 003D  
                        _ADC_InterruptHandler 0057                                       __Hparam 0000  
                                     __Lparam 0000                          _SPI_InterruptHandler 0033  
                                __psmallconst 1000                                       __pcinit 169C  
                                     __ramtop 1000                              SPI_Send_Byte@ret 0064  
                                     __ptext0 15B8                                       __ptext1 16E0  
                                     __ptext2 131C                                       __ptext3 163A  
                                     __ptext4 1748                                       __ptext5 1474  
                                     __ptext7 17E2                                       __ptext8 177A  
                                     __ptext9 1794                                     _T0CONbits 000FD5  
             ??_gpio_pin_direction_initialize 0063                                       main@str 0076  
                              __pintcode_body 1016                          end_of_initialization 16D6  
                                     int_func 1016                                     _RCSTAbits 000FAB  
                                     postdec1 000FE5                                       postdec2 000FDD  
                                     postinc0 000FEE                                       postinc2 000FDE  
                       _INT1_InterruptHandler 004B                                     _PORTBbits 000F81  
                            _InterruptManager 0008                                     _TRISCbits 000F94  
                                   _TXSTAbits 000FAC                            relay_turn_on@F3044 005A  
               convert_uint16_to_string@F3215 0080                         __end_of_SPI_Send_Byte 1716  
                                 _BAUDCONbits 000FB8                                 __pidataCOMRAM 1716  
                              _timer0_preload 0035                           start_initialization 169C  
                                 SPI_Init@ret 0073         __end_of_gpio_pin_direction_initialize 15B8  
               _gpio_pin_direction_initialize 1474                     _EUSART_RxInterruptHandler 0053  
                  _EUSART_FramingErrorHandler 0051                                      ?_ADC_ISR 0060  
                       __end_of_EUSART_RX_ISR 1804                         __end_of_EUSART_TX_ISR 17FE  
                                    ?_RB4_ISR 0060                                      ?_RB5_ISR 0060  
                                    ?_RB6_ISR 0060                                      ?_RB7_ISR 0060  
                                 __pbssCOMRAM 0033                         _INT2_InterruptHandler 0049  
                       _TMR0_InterruptHandler 0037                            SPI_Send_Byte@_data 0063  
                                   __pintcode 0008                          SPI_Send_Byte@_config 0061  
                                 __smallconst 1000                     _RB4_InterruptHandler_HIGH 0047  
                   _RB7_InterruptHandler_HIGH 003B                      _RB5_InterruptHandler_LOW 0041  
                                    _INT0_ISR 17F6                                      _INT1_ISR 17F2  
                                    _INT2_ISR 17EE                                      _RB4_Flag 002E  
                                    _RB5_Flag 002D                                      _RB6_Flag 002C  
                                    _RB7_Flag 002B                             RB4_ISR@RB4_Source 0060  
                    __end_of_InterruptManager 131C                                      _PIE1bits 000F9D  
                                    i2u200_40 1160                                      i2u200_41 115C  
                                    i2u201_40 116E                                      i2u201_41 116A  
                                    i2u210_40 1206                                      i2u202_40 117E  
                                    i2u210_41 1202                                      i2u202_41 117A  
                                    i2u211_40 121E                                      i2u203_40 1196  
                                    i2u211_41 121A                                      i2u203_41 1192  
                                    i2u220_40 12B4                                      i2u212_40 122C  
                                    i2u204_40 11A4                                      i2u220_41 12B0  
                                    i2u212_41 1228                                      i2u204_41 11A0  
                                    i2u221_40 12C6                                      i2u213_40 123A  
                                    i2u205_40 11B2                                      i2u221_41 12C2  
                                    i2u213_41 1236                                      i2u205_41 11AE  
                                    i2u222_40 12D4                                      i2u214_40 124A  
                                    i2u206_40 11C2                                      i2u222_41 12D0  
                                    i2u214_41 1246                                      i2u206_41 11BE  
                                    i2u223_40 12E6                                      i2u215_40 1262  
                                    i2u207_40 11DA                                      i2u223_41 12E2  
                                    i2u215_41 125E                                      i2u207_41 11D6  
                                    i2u224_40 12F4                                      i2u216_40 1270  
                                    i2u208_40 11E8                                      i2u224_41 12F0  
                                    i2u216_41 126C                                      i2u208_41 11E4  
                                    i2u225_40 1306                                      i2u217_40 127E  
                                    i2u209_40 11F6                                      i2u225_41 1302  
                                    i2u217_41 127A                                      i2u209_41 11F2  
                                    i2u226_40 1314                                      i2u218_40 128E  
                                    i2u226_41 1310                                      i2u218_41 128A  
                                    i2u219_40 12A6                                      i2u219_41 12A2  
                                    i2u181_40 1026                                      i2u181_41 1022  
                                    i2u190_40 10B2                                      i2u182_40 1034  
                                    i2u190_41 10AE                                      i2u182_41 1030  
                                    i2u191_40 10CA                                      i2u183_40 1046  
                                    i2u191_41 10C6                                      i2u183_41 1042  
                                    i2u192_40 10D8                                      i2u184_40 1054  
                                    i2u192_41 10D4                                      i2u184_41 1050  
                                    i2u193_40 10E6                                      i2u185_40 1066  
                                    i2u193_41 10E2                                      i2u185_41 1062  
                                    _PIR1bits 000F9E                                      i2u194_40 10F6  
                                    i2u186_40 1074                                      i2u194_41 10F2  
                                    i2u186_41 1070                                      i2u195_40 110E  
                                    i2u187_40 1086                                      i2u195_41 110A  
                                    i2u187_41 1082                                      i2u196_40 111C  
                                    i2u188_40 1094                                      i2u196_41 1118  
                                    i2u188_41 1090                                      i2u197_40 112A  
                                    i2u189_40 10A2                                      i2u197_41 1126  
                                    i2u189_41 109E                                      i2u198_40 113A  
                                    i2u198_41 1136                                      i2u199_40 1152  
                                    i2u199_41 114E                                     main@F3342 001F  
            gpio_pin_direction_initialize@ret 0069                                      _TMR0_ISR 17E2  
 __end_of_MSSP_SPI_SLAVE_MODE_GPIO_PIN_CONFIG 169C         ??_MSSP_SPI_SLAVE_MODE_GPIO_PIN_CONFIG 006C  
        ?_MSSP_SPI_SLAVE_MODE_GPIO_PIN_CONFIG 006A           _MSSP_SPI_SLAVE_MODE_GPIO_PIN_CONFIG 163A  
                                    _SPI_Init 131C                                    _ADCON0bits 000FC2  
                                  _ADCON1bits 000FC1                                    _ADCON2bits 000FC0  
__end_of_MSSP_SPI_MASTER_MODE_GPIO_PIN_CONFIG 177A        ??_MSSP_SPI_MASTER_MODE_GPIO_PIN_CONFIG 006A  
       ?_MSSP_SPI_MASTER_MODE_GPIO_PIN_CONFIG 0060          _MSSP_SPI_MASTER_MODE_GPIO_PIN_CONFIG 1748  
    MSSP_SPI_SLAVE_MODE_GPIO_PIN_CONFIG@F3101 0025      MSSP_SPI_SLAVE_MODE_GPIO_PIN_CONFIG@F3103 0024  
    MSSP_SPI_SLAVE_MODE_GPIO_PIN_CONFIG@F3097 0027      MSSP_SPI_SLAVE_MODE_GPIO_PIN_CONFIG@F3099 0026  
                                 _INTCON2bits 000FF1                                   _INTCON3bits 000FF0  
                                   copy_data0 16B0                                    _EECON1bits 000FA6  
                                    __Hrparam 0000                                      __Lrparam 0000  
                           RB6_ISR@RB6_Source 0060                            __end_of_btn_values 1011  
                                    __ptext10 17AE                                      __ptext11 17C8  
                                    __ptext12 17EE                                      __ptext13 17F2  
                                    __ptext14 17F6                                      __ptext15 17FA  
                                    __ptext16 1802                                      __ptext17 17FE  
                                    isa$xinst 000000                                      int$flags 007D  
                                  _INTCONbits 000FF2    MSSP_SPI_SLAVE_MODE_GPIO_PIN_CONFIG@SPI_CLK 006E  
  MSSP_SPI_SLAVE_MODE_GPIO_PIN_CONFIG@SPI_SDI 006D    MSSP_SPI_SLAVE_MODE_GPIO_PIN_CONFIG@SPI_SDO 006C  
                                    intlevel2 0000                     _EUSART_TxInterruptHandler 0055  
  MSSP_SPI_SLAVE_MODE_GPIO_PIN_CONFIG@_config 006A                                _port_registers 0001  
                                 _SSPCON1bits 000FC6   MSSP_SPI_MASTER_MODE_GPIO_PIN_CONFIG@SPI_CLK 006C  
 MSSP_SPI_MASTER_MODE_GPIO_PIN_CONFIG@SPI_SDI 006B   MSSP_SPI_MASTER_MODE_GPIO_PIN_CONFIG@SPI_SDO 006A  
                           ?_InterruptManager 0060  
