

Microchip MPLAB XC8 Assembler V2.40 build 20220703182018 
                                                                                               Sun Apr 28 06:36:47 2024

Microchip MPLAB XC8 C Compiler v2.40 (Free license) build 20220703182018 Og1 
     1                           	processor	18F4620
     2                           	fnconf	rparam,??,?,0
     3                           	pagewidth 120
     4                           	opt	flic
     5                           	psect	idataCOMRAM,global,class=CODE,delta=1,noexec
     6                           	psect	idataBANK0,global,class=CODE,delta=1,noexec
     7                           	psect	smallconst,global,reloc=2,class=SMALLCONST,delta=1,noexec
     8                           	psect	cinit,global,reloc=2,class=CODE,delta=1
     9                           	psect	bssCOMRAM,global,class=COMRAM,space=1,delta=1,lowdata,noexec
    10                           	psect	dataCOMRAM,global,class=COMRAM,space=1,delta=1,lowdata,noexec
    11                           	psect	bssBANK0,global,class=BANK0,space=1,delta=1,lowdata,noexec
    12                           	psect	dataBANK0,global,class=BANK0,space=1,delta=1,lowdata,noexec
    13                           	psect	cstackBANK0,global,class=BANK0,space=1,delta=1,lowdata,noexec
    14                           	psect	cstackCOMRAM,global,class=COMRAM,space=1,delta=1,lowdata,noexec
    15                           	psect	text0,global,reloc=2,class=CODE,delta=1
    16                           	psect	text1,global,reloc=2,class=CODE,delta=1
    17                           	psect	text2,global,reloc=2,class=CODE,delta=1
    18                           	psect	text3,global,reloc=2,class=CODE,delta=1
    19                           	psect	text4,global,reloc=2,class=CODE,delta=1,group=1
    20                           	psect	text5,global,reloc=2,class=CODE,delta=1,group=1
    21                           	psect	text6,global,reloc=2,class=CODE,delta=1,group=1
    22                           	psect	text7,global,reloc=2,class=CODE,delta=1,group=1
    23                           	psect	text8,global,reloc=2,class=CODE,delta=1
    24                           	psect	text9,global,reloc=2,class=CODE,delta=1
    25                           	psect	text10,global,reloc=2,class=CODE,delta=1
    26                           	psect	text11,global,reloc=2,class=CODE,delta=1
    27                           	psect	text12,global,reloc=2,class=CODE,delta=1
    28                           	psect	text13,global,reloc=2,class=CODE,delta=1
    29                           	psect	text14,global,reloc=2,class=CODE,delta=1
    30                           	psect	intcode,global,reloc=2,class=CODE,delta=1
    31                           	psect	intcode_body,global,reloc=2,class=CODE,delta=1
    32                           	psect	text16,global,reloc=2,class=CODE,delta=1
    33                           	psect	text17,global,reloc=2,class=CODE,delta=1
    34                           	psect	text18,global,reloc=2,class=CODE,delta=1
    35                           	psect	text19,global,reloc=2,class=CODE,delta=1
    36                           	psect	text20,global,reloc=2,class=CODE,delta=1
    37                           	psect	text21,global,reloc=2,class=CODE,delta=1
    38                           	psect	text22,global,reloc=2,class=CODE,delta=1
    39                           	psect	text23,global,reloc=2,class=CODE,delta=1
    40                           	psect	text24,global,reloc=2,class=CODE,delta=1
    41                           	psect	text25,global,reloc=2,class=CODE,delta=1
    42                           	psect	text26,global,reloc=2,class=CODE,delta=1
    43                           	psect	text27,global,reloc=2,class=CODE,delta=1
    44                           	psect	intsave_regs,global,class=BIGRAM,space=1,delta=1,noexec
    45                           	psect	text28,global,reloc=2,class=CODE,delta=1
    46                           	psect	rparam,global,class=COMRAM,space=1,delta=1,noexec
    47                           	psect	temp,global,ovrld,common,class=COMRAM,space=1,delta=1
    48                           	psect	config,global,abs,ovrld,class=CONFIG,space=4,delta=1,noexec
    49   000000                     
    50                           ; Version 2.40
    51                           ; Generated 04/07/2022 GMT
    52                           ; 
    53                           ; Copyright © 2022, Microchip Technology Inc. and its subsidiaries ("Microchip")
    54                           ; All rights reserved.
    55                           ; 
    56                           ; This software is developed by Microchip Technology Inc. and its subsidiaries ("Microch
      +                          ip").
    57                           ; 
    58                           ; Redistribution and use in source and binary forms, with or without modification, are
    59                           ; permitted provided that the following conditions are met:
    60                           ; 
    61                           ;     1. Redistributions of source code must retain the above copyright notice, this lis
      +                          t of
    62                           ;        conditions and the following disclaimer.
    63                           ; 
    64                           ;     2. Redistributions in binary form must reproduce the above copyright notice, this 
      +                          list
    65                           ;        of conditions and the following disclaimer in the documentation and/or other
    66                           ;        materials provided with the distribution. Publication is not required when
    67                           ;        this file is used in an embedded application.
    68                           ; 
    69                           ;     3. Microchip's name may not be used to endorse or promote products derived from th
      +                          is
    70                           ;        software without specific prior written permission.
    71                           ; 
    72                           ; THIS SOFTWARE IS PROVIDED BY MICROCHIP "AS IS" AND ANY EXPRESS OR IMPLIED WARRANTIES,
    73                           ; INCLUDING, BUT NOT LIMITED TO, THE IMPLIED WARRANTIES OF MERCHANTABILITY AND FITNESS F
      +                          OR
    74                           ; PURPOSE ARE DISCLAIMED.  IN NO EVENT SHALL MICROCHIP BE LIABLE FOR ANY DIRECT, INDIREC
      +                          T,
    75                           ; INCIDENTAL, SPECIAL, EXEMPLARY, OR CONSEQUENTIAL DAMAGES (INCLUDING BUT NOT LIMITED TO
    76                           ; PROCUREMENT OF SUBSTITUTE GOODS OR SERVICES; LOSS OF USE, DATA OR PROFITS; OR BUSINESS
    77                           ; INTERRUPTION) HOWSOEVER CAUSED AND ON ANY THEORY OF LIABILITY, WHETHER IN CONTRACT, ST
      +                          RICT
    78                           ; LIABILITY, OR TORT (INCLUDING NEGLIGENCE OR OTHERWISE) ARISING IN ANY WAY OUT OF THE U
      +                          SE OF
    79                           ; THIS SOFTWARE, EVEN IF ADVISED OF THE POSSIBILITY OF SUCH DAMAGE.
    80                           ; 
    81                           ; 
    82                           ; Code-generator required, PIC18F4620 Definitions
    83                           ; 
    84                           ; SFR Addresses
    85   000000                     
    86                           	psect	idataCOMRAM
    87   002A22                     __pidataCOMRAM:
    88                           	callstack 0
    89                           
    90                           ;initializer for _RB7_Flag
    91   002A22  01                 	db	1
    92                           
    93                           ;initializer for _RB6_Flag
    94   002A23  01                 	db	1
    95                           
    96                           ;initializer for _RB5_Flag
    97   002A24  01                 	db	1
    98                           
    99                           ;initializer for _RB4_Flag
   100   002A25  01                 	db	1
   101                           
   102                           ;initializer for _led2
   103   002A26  13                 	db	19
   104                           
   105                           ;initializer for _led1
   106   002A27  03                 	db	3
   107                           
   108                           	psect	idataBANK0
   109   00297E                     __pidataBANK0:
   110                           	callstack 0
   111                           
   112                           ;initializer for _port_registers
   113   00297E  80                 	db	128
   114   00297F  0F                 	db	15
   115   002980  81                 	db	129
   116   002981  0F                 	db	15
   117   002982  82                 	db	130
   118   002983  0F                 	db	15
   119   002984  83                 	db	131
   120   002985  0F                 	db	15
   121   002986  84                 	db	132
   122   002987  0F                 	db	15
   123                           
   124                           ;initializer for _lat_registers
   125   002988  89                 	db	137
   126   002989  0F                 	db	15
   127   00298A  8A                 	db	138
   128   00298B  0F                 	db	15
   129   00298C  8B                 	db	139
   130   00298D  0F                 	db	15
   131   00298E  8C                 	db	140
   132   00298F  0F                 	db	15
   133   002990  8D                 	db	141
   134   002991  0F                 	db	15
   135                           
   136                           ;initializer for _tris_registers
   137   002992  92                 	db	146
   138   002993  0F                 	db	15
   139   002994  93                 	db	147
   140   002995  0F                 	db	15
   141   002996  94                 	db	148
   142   002997  0F                 	db	15
   143   002998  95                 	db	149
   144   002999  0F                 	db	15
   145   00299A  96                 	db	150
   146   00299B  0F                 	db	15
   147                           
   148                           	psect	smallconst
   149   001000                     __psmallconst:
   150                           	callstack 0
   151   001000  00                 	db	0
   152   001001  37                 	db	55
   153   001002  38                 	db	56
   154   001003  39                 	db	57
   155   001004  2F                 	db	47
   156   001005  34                 	db	52
   157   001006  35                 	db	53
   158   001007  36                 	db	54
   159   001008  2A                 	db	42
   160   001009  31                 	db	49
   161   00100A  32                 	db	50
   162   00100B  33                 	db	51
   163   00100C  2D                 	db	45
   164   00100D  23                 	db	35
   165   00100E  38                 	db	56
   166   00100F  3D                 	db	61
   167   001010  2B                 	db	43
   168   001011                     __end_of_btn_values:
   169                           	callstack 0
   170   000000                     _INTCON2bits	set	4081
   171   000000                     _TRISCbits	set	3988
   172   000000                     _EECON2	set	4007
   173   000000                     _ADRESL	set	4035
   174   000000                     _ADRESH	set	4036
   175   000000                     _INTCONbits	set	4082
   176   000000                     _TRISD	set	3989
   177   000000                     _TRISB	set	3987
   178   000000                     _TRISE	set	3990
   179   000000                     _PORTBbits	set	3969
   180   000000                     _TRISC	set	3988
   181   000000                     _PIE1bits	set	3997
   182   000000                     _ADCON2bits	set	4032
   183   000000                     _ADCON1bits	set	4033
   184   000000                     _ADCON0bits	set	4034
   185   000000                     _PORTE	set	3972
   186   000000                     _PORTD	set	3971
   187   000000                     _PORTC	set	3970
   188   000000                     _PORTB	set	3969
   189   000000                     _PORTA	set	3968
   190   000000                     _LATA	set	3977
   191   000000                     _TRISA	set	3986
   192   000000                     _EECON1bits	set	4006
   193   000000                     _EEDATA	set	4008
   194   000000                     _EEADR	set	4009
   195   000000                     _EEADRH	set	4010
   196   000000                     _PIR1bits	set	3998
   197   000000                     _T0CONbits	set	4053
   198   000000                     _INTCON3bits	set	4080
   199   000000                     _SPBRGH	set	4016
   200   000000                     _SPBRG	set	4015
   201   000000                     _BAUDCONbits	set	4024
   202   000000                     _RCREG	set	4014
   203   000000                     _TXREG	set	4013
   204   000000                     _TXSTAbits	set	4012
   205   000000                     _RCSTAbits	set	4011
   206   000000                     _LATE	set	3981
   207   000000                     _LATD	set	3980
   208   000000                     _LATC	set	3979
   209   000000                     _LATB	set	3978
   210   000000                     _TMR0H	set	4055
   211   000000                     _TMR0L	set	4054
   212   001011                     STR_1:
   213   001011  25                 	db	37
   214   001012  69                 	db	105	;'i'
   215   001013  00                 	db	0
   216   001014  00                 	db	0	; dummy byte at the end
   217   000000                     
   218                           ; #config settings
   219                           
   220                           	psect	cinit
   221   00279A                     __pcinit:
   222                           	callstack 0
   223   00279A                     start_initialization:
   224                           	callstack 0
   225   00279A                     __initialization:
   226                           	callstack 0
   227                           
   228                           ; Initialize objects allocated to BANK0 (30 bytes)
   229                           ; load TBLPTR registers with __pidataBANK0
   230   00279A  0E7E               	movlw	low __pidataBANK0
   231   00279C  6EF6               	movwf	tblptrl,c
   232   00279E  0E29               	movlw	high __pidataBANK0
   233   0027A0  6EF7               	movwf	tblptrh,c
   234   0027A2  0E00               	movlw	low (__pidataBANK0 shr (0+16))
   235   0027A4  6EF8               	movwf	tblptru,c
   236   0027A6  EE00  F09E         	lfsr	0,__pdataBANK0
   237   0027AA  EE10 F01E          	lfsr	1,30
   238   0027AE                     copy_data0:
   239   0027AE  0009               	tblrd		*+
   240   0027B0  CFF5 FFEE          	movff	tablat,postinc0
   241   0027B4  50E5               	movf	postdec1,w,c
   242   0027B6  50E1               	movf	fsr1l,w,c
   243   0027B8  E1FA               	bnz	copy_data0
   244                           
   245                           ; Initialize objects allocated to COMRAM (6 bytes)
   246                           ; load TBLPTR registers with __pidataCOMRAM
   247   0027BA  0E22               	movlw	low __pidataCOMRAM
   248   0027BC  6EF6               	movwf	tblptrl,c
   249   0027BE  0E2A               	movlw	high __pidataCOMRAM
   250   0027C0  6EF7               	movwf	tblptrh,c
   251   0027C2  0E00               	movlw	low (__pidataCOMRAM shr (0+16))
   252   0027C4  6EF8               	movwf	tblptru,c
   253   0027C6  EE00  F066         	lfsr	0,__pdataCOMRAM
   254   0027CA  EE10 F006          	lfsr	1,6
   255   0027CE                     copy_data1:
   256   0027CE  0009               	tblrd		*+
   257   0027D0  CFF5 FFEE          	movff	tablat,postinc0
   258   0027D4  50E5               	movf	postdec1,w,c
   259   0027D6  50E1               	movf	fsr1l,w,c
   260   0027D8  E1FA               	bnz	copy_data1
   261                           
   262                           ; Clear objects allocated to BANK0 (30 bytes)
   263   0027DA  EE00  F080         	lfsr	0,__pbssBANK0
   264   0027DE  0E1E               	movlw	30
   265   0027E0                     clear_0:
   266   0027E0  6AEE               	clrf	postinc0,c
   267   0027E2  06E8               	decf	wreg,f,c
   268   0027E4  E1FD               	bnz	clear_0
   269                           
   270                           ; Clear objects allocated to COMRAM (28 bytes)
   271   0027E6  EE00  F04A         	lfsr	0,__pbssCOMRAM
   272   0027EA  0E1C               	movlw	28
   273   0027EC                     clear_1:
   274   0027EC  6AEE               	clrf	postinc0,c
   275   0027EE  06E8               	decf	wreg,f,c
   276   0027F0  E1FD               	bnz	clear_1
   277   0027F2                     end_of_initialization:
   278                           	callstack 0
   279   0027F2                     __end_of__initialization:
   280                           	callstack 0
   281   0027F2  906C               	bcf	int$flags,0,c	;clear compiler interrupt flag (level 1)
   282   0027F4  926C               	bcf	int$flags,1,c	;clear compiler interrupt flag (level 2)
   283   0027F6  0100               	movlb	0
   284   0027F8  EF7D  F014         	goto	_main	;jump to C main() function
   285                           
   286                           	psect	bssCOMRAM
   287   00004A                     __pbssCOMRAM:
   288                           	callstack 0
   289   00004A                     _timer0_preload:
   290                           	callstack 0
   291   00004A                     	ds	2
   292   00004C                     _RB4_InterruptHandler_HIGH:
   293                           	callstack 0
   294   00004C                     	ds	2
   295   00004E                     _INT2_InterruptHandler:
   296                           	callstack 0
   297   00004E                     	ds	2
   298   000050                     _INT1_InterruptHandler:
   299                           	callstack 0
   300   000050                     	ds	2
   301   000052                     _INT0_InterruptHandler:
   302                           	callstack 0
   303   000052                     	ds	2
   304   000054                     _EUSART_OverrunErrorHandler:
   305                           	callstack 0
   306   000054                     	ds	2
   307   000056                     _EUSART_FramingErrorHandler:
   308                           	callstack 0
   309   000056                     	ds	2
   310   000058                     _EUSART_RxInterruptHandler:
   311                           	callstack 0
   312   000058                     	ds	2
   313   00005A                     _EUSART_TxInterruptHandler:
   314                           	callstack 0
   315   00005A                     	ds	2
   316   00005C                     _ADC_InterruptHandler:
   317                           	callstack 0
   318   00005C                     	ds	2
   319   00005E                     _rec_data:
   320                           	callstack 0
   321   00005E                     	ds	1
   322   00005F                     relay_turn_off@F3049:
   323                           	callstack 0
   324   00005F                     	ds	1
   325   000060                     relay_turn_on@F3044:
   326                           	callstack 0
   327   000060                     	ds	1
   328   000061                     relay_initialize@F3039:
   329                           	callstack 0
   330   000061                     	ds	1
   331   000062                     led_turn_toggle@F3060:
   332                           	callstack 0
   333   000062                     	ds	1
   334   000063                     led_turn_off@F3055:
   335                           	callstack 0
   336   000063                     	ds	1
   337   000064                     led_turn_on@F3050:
   338                           	callstack 0
   339   000064                     	ds	1
   340   000065                     led_initialize@F3045:
   341                           	callstack 0
   342   000065                     	ds	1
   343                           
   344                           	psect	dataCOMRAM
   345   000066                     __pdataCOMRAM:
   346                           	callstack 0
   347   000066                     _RB7_Flag:
   348                           	callstack 0
   349   000066                     	ds	1
   350   000067                     _RB6_Flag:
   351                           	callstack 0
   352   000067                     	ds	1
   353   000068                     _RB5_Flag:
   354                           	callstack 0
   355   000068                     	ds	1
   356   000069                     _RB4_Flag:
   357                           	callstack 0
   358   000069                     	ds	1
   359   00006A                     _led2:
   360                           	callstack 0
   361   00006A                     	ds	1
   362   00006B                     _led1:
   363                           	callstack 0
   364   00006B                     	ds	1
   365                           
   366                           	psect	bssBANK0
   367   000080                     __pbssBANK0:
   368                           	callstack 0
   369   000080                     	ds	6
   370   000086                     _val_tx:
   371                           	callstack 0
   372   000086                     	ds	4
   373   00008A                     _val_rx:
   374                           	callstack 0
   375   00008A                     	ds	4
   376   00008E                     _TMR0_InterruptHandler:
   377                           	callstack 0
   378   00008E                     	ds	2
   379   000090                     _RB7_InterruptHandler_LOW:
   380                           	callstack 0
   381   000090                     	ds	2
   382   000092                     _RB7_InterruptHandler_HIGH:
   383                           	callstack 0
   384   000092                     	ds	2
   385   000094                     _RB6_InterruptHandler_LOW:
   386                           	callstack 0
   387   000094                     	ds	2
   388   000096                     _RB6_InterruptHandler_HIGH:
   389                           	callstack 0
   390   000096                     	ds	2
   391   000098                     _RB5_InterruptHandler_LOW:
   392                           	callstack 0
   393   000098                     	ds	2
   394   00009A                     _RB5_InterruptHandler_HIGH:
   395                           	callstack 0
   396   00009A                     	ds	2
   397   00009C                     _RB4_InterruptHandler_LOW:
   398                           	callstack 0
   399   00009C                     	ds	2
   400                           
   401                           	psect	dataBANK0
   402   00009E                     __pdataBANK0:
   403                           	callstack 0
   404   00009E                     _port_registers:
   405                           	callstack 0
   406   00009E                     	ds	10
   407   0000A8                     _lat_registers:
   408                           	callstack 0
   409   0000A8                     	ds	10
   410   0000B2                     _tris_registers:
   411                           	callstack 0
   412   0000B2                     	ds	10
   413                           
   414                           	psect	cstackBANK0
   415   0000BC                     __pcstackBANK0:
   416                           	callstack 0
   417   0000BC                     usart_interrupt_init@usart_obj:
   418                           	callstack 0
   419                           
   420                           ; 18 bytes @ 0x0
   421   0000BC                     	ds	18
   422                           
   423                           	psect	cstackCOMRAM
   424   000001                     __pcstackCOMRAM:
   425                           	callstack 0
   426   000001                     RB4_ISR@RB4_Source:
   427                           	callstack 0
   428   000001                     RB5_ISR@RB5_Source:
   429                           	callstack 0
   430   000001                     RB6_ISR@RB6_Source:
   431                           	callstack 0
   432   000001                     RB7_ISR@RB7_Source:
   433                           	callstack 0
   434                           
   435                           ; 1 bytes @ 0x0
   436   000001                     	ds	1
   437   000002                     ??_InterruptManager:
   438                           
   439                           ; 1 bytes @ 0x1
   440   000002                     	ds	2
   441   000004                     ?___fltol:
   442                           	callstack 0
   443   000004                     ?___xxtofl:
   444                           	callstack 0
   445   000004                     EUSART_ASYNC_WriteByteNonBlocking@_data:
   446                           	callstack 0
   447   000004                     EUSART_ASYNC_TX_Init@_eusart:
   448                           	callstack 0
   449   000004                     EUSART_ASYNC_RX_Init@_eusart:
   450                           	callstack 0
   451   000004                     gpio_pin_direction_initialize@_pin_config:
   452                           	callstack 0
   453   000004                     gpio_pin_write_logic@_pin_config:
   454                           	callstack 0
   455   000004                     ___fltol@f1:
   456                           	callstack 0
   457   000004                     ___xxtofl@val:
   458                           	callstack 0
   459                           
   460                           ; 4 bytes @ 0x3
   461   000004                     	ds	1
   462   000005                     EUSART_ASYNC_WriteByteNonBlocking@ret:
   463                           	callstack 0
   464                           
   465                           ; 1 bytes @ 0x4
   466   000005                     	ds	1
   467   000006                     ??_gpio_pin_direction_initialize:
   468   000006                     gpio_pin_write_logic@logic:
   469                           	callstack 0
   470                           
   471                           ; 1 bytes @ 0x5
   472   000006                     	ds	1
   473   000007                     ??_gpio_pin_write_logic:
   474                           
   475                           ; 1 bytes @ 0x6
   476   000007                     	ds	1
   477   000008                     ??___fltol:
   478   000008                     ??___xxtofl:
   479                           
   480                           ; 1 bytes @ 0x7
   481   000008                     	ds	4
   482   00000C                     gpio_pin_direction_initialize@ret:
   483                           	callstack 0
   484   00000C                     ___fltol@sign1:
   485                           	callstack 0
   486   00000C                     ___xxtofl@sign:
   487                           	callstack 0
   488                           
   489                           ; 1 bytes @ 0xB
   490   00000C                     	ds	1
   491   00000D                     gpio_pin_write_logic@ret:
   492                           	callstack 0
   493   00000D                     ___fltol@exp1:
   494                           	callstack 0
   495   00000D                     ___xxtofl@exp:
   496                           	callstack 0
   497                           
   498                           ; 1 bytes @ 0xC
   499   00000D                     	ds	1
   500   00000E                     gpio_pin_initialize@_pin_config:
   501                           	callstack 0
   502   00000E                     ___xxtofl@arg:
   503                           	callstack 0
   504                           
   505                           ; 4 bytes @ 0xD
   506   00000E                     	ds	2
   507   000010                     ??_gpio_pin_initialize:
   508                           
   509                           ; 1 bytes @ 0xF
   510   000010                     	ds	1
   511   000011                     gpio_pin_initialize@ret:
   512                           	callstack 0
   513                           
   514                           ; 1 bytes @ 0x10
   515   000011                     	ds	1
   516   000012                     ?___fldiv:
   517                           	callstack 0
   518   000012                     led_initialize@led:
   519                           	callstack 0
   520   000012                     ___fldiv@b:
   521                           	callstack 0
   522                           
   523                           ; 4 bytes @ 0x11
   524   000012                     	ds	2
   525   000014                     ??_led_initialize:
   526                           
   527                           ; 1 bytes @ 0x13
   528   000014                     	ds	1
   529   000015                     led_initialize@ret:
   530                           	callstack 0
   531                           
   532                           ; 1 bytes @ 0x14
   533   000015                     	ds	1
   534   000016                     led_initialize@pin_obj:
   535                           	callstack 0
   536   000016                     ___fldiv@a:
   537                           	callstack 0
   538                           
   539                           ; 4 bytes @ 0x15
   540   000016                     	ds	4
   541   00001A                     ??___fldiv:
   542                           
   543                           ; 1 bytes @ 0x19
   544   00001A                     	ds	4
   545   00001E                     ___fldiv@rem:
   546                           	callstack 0
   547                           
   548                           ; 4 bytes @ 0x1D
   549   00001E                     	ds	4
   550   000022                     ___fldiv@sign:
   551                           	callstack 0
   552                           
   553                           ; 1 bytes @ 0x21
   554   000022                     	ds	1
   555   000023                     ___fldiv@new_exp:
   556                           	callstack 0
   557                           
   558                           ; 2 bytes @ 0x22
   559   000023                     	ds	2
   560   000025                     ___fldiv@grs:
   561                           	callstack 0
   562                           
   563                           ; 4 bytes @ 0x24
   564   000025                     	ds	4
   565   000029                     ___fldiv@bexp:
   566                           	callstack 0
   567                           
   568                           ; 1 bytes @ 0x28
   569   000029                     	ds	1
   570   00002A                     ___fldiv@aexp:
   571                           	callstack 0
   572                           
   573                           ; 1 bytes @ 0x29
   574   00002A                     	ds	1
   575   00002B                     ?___fladd:
   576                           	callstack 0
   577   00002B                     ___fladd@b:
   578                           	callstack 0
   579                           
   580                           ; 4 bytes @ 0x2A
   581   00002B                     	ds	4
   582   00002F                     ___fladd@a:
   583                           	callstack 0
   584                           
   585                           ; 4 bytes @ 0x2E
   586   00002F                     	ds	4
   587   000033                     ??___fladd:
   588                           
   589                           ; 1 bytes @ 0x32
   590   000033                     	ds	4
   591   000037                     ___fladd@signs:
   592                           	callstack 0
   593                           
   594                           ; 1 bytes @ 0x36
   595   000037                     	ds	1
   596   000038                     ___fladd@aexp:
   597                           	callstack 0
   598                           
   599                           ; 1 bytes @ 0x37
   600   000038                     	ds	1
   601   000039                     ___fladd@bexp:
   602                           	callstack 0
   603                           
   604                           ; 1 bytes @ 0x38
   605   000039                     	ds	1
   606   00003A                     ___fladd@grs:
   607                           	callstack 0
   608                           
   609                           ; 1 bytes @ 0x39
   610   00003A                     	ds	1
   611   00003B                     EUSART_Baud_Rate_Calculation@_eusart:
   612                           	callstack 0
   613                           
   614                           ; 2 bytes @ 0x3A
   615   00003B                     	ds	2
   616   00003D                     ??_EUSART_Baud_Rate_Calculation:
   617                           
   618                           ; 1 bytes @ 0x3C
   619   00003D                     	ds	2
   620   00003F                     EUSART_Baud_Rate_Calculation@Baud_Rate_Temp:
   621                           	callstack 0
   622                           
   623                           ; 4 bytes @ 0x3E
   624   00003F                     	ds	4
   625   000043                     _EUSART_Baud_Rate_Calculation$3459:
   626                           	callstack 0
   627                           
   628                           ; 4 bytes @ 0x42
   629   000043                     	ds	4
   630   000047                     EUSART_ASYNC_Init@_eusart:
   631                           	callstack 0
   632                           
   633                           ; 2 bytes @ 0x46
   634   000047                     	ds	2
   635   000049                     EUSART_ASYNC_Init@ret:
   636                           	callstack 0
   637                           
   638                           ; 1 bytes @ 0x48
   639   000049                     	ds	1
   640   00004A                     
   641                           ; 1 bytes @ 0x49
   642 ;;
   643 ;;Main: autosize = 0, tempsize = 0, incstack = 0, save=0
   644 ;;
   645 ;; *************** function _main *****************
   646 ;; Defined at:
   647 ;;		line 80 in file "appplication.c"
   648 ;; Parameters:    Size  Location     Type
   649 ;;		None
   650 ;; Auto vars:     Size  Location     Type
   651 ;;  ret             1    0        unsigned char 
   652 ;; Return value:  Size  Location     Type
   653 ;;                  2  1130[None  ] int 
   654 ;; Registers used:
   655 ;;		wreg, fsr2l, fsr2h, status,2, status,0, prodl, prodh, cstack
   656 ;; Tracked objects:
   657 ;;		On entry : 0/0
   658 ;;		On exit  : 0/0
   659 ;;		Unchanged: 0/0
   660 ;; Data sizes:     COMRAM   BANK0   BANK1   BANK2   BANK3   BANK4   BANK5   BANK6   BANK7   BANK8   BANK9  BANK10  BANK1
      +1  BANK12  BANK13  BANK14  BANK15
   661 ;;      Params:         0       0       0       0       0       0       0       0       0       0       0       0       
      +0       0       0       0       0
   662 ;;      Locals:         0       0       0       0       0       0       0       0       0       0       0       0       
      +0       0       0       0       0
   663 ;;      Temps:          0       0       0       0       0       0       0       0       0       0       0       0       
      +0       0       0       0       0
   664 ;;      Totals:         0       0       0       0       0       0       0       0       0       0       0       0       
      +0       0       0       0       0
   665 ;;Total ram usage:        0 bytes
   666 ;; Hardware stack levels required when called: 7
   667 ;; This function calls:
   668 ;;		_EUSART_ASYNC_WriteByteNonBlocking
   669 ;;		_led_initialize
   670 ;;		_usart_interrupt_init
   671 ;; This function is called by:
   672 ;;		Startup code after reset
   673 ;; This function uses a non-reentrant model
   674 ;;
   675                           
   676                           	psect	text0
   677   0028FA                     __ptext0:
   678                           	callstack 0
   679   0028FA                     _main:
   680                           	callstack 24
   681   0028FA                     
   682                           ;appplication.c: 83:     usart_interrupt_init();
   683   0028FA  EC2E  F014         	call	_usart_interrupt_init	;wreg free
   684   0028FE  0E6B               	movlw	low _led1
   685   002900  6E12               	movwf	led_initialize@led^0,c
   686   002902  0E00               	movlw	high _led1
   687   002904  6E13               	movwf	(led_initialize@led+1)^0,c
   688   002906  EC8F  F013         	call	_led_initialize	;wreg free
   689   00290A  0E6A               	movlw	low _led2
   690   00290C  6E12               	movwf	led_initialize@led^0,c
   691   00290E  0E00               	movlw	high _led2
   692   002910  6E13               	movwf	(led_initialize@led+1)^0,c
   693   002912  EC8F  F013         	call	_led_initialize	;wreg free
   694   002916                     l6571:
   695   002916  0E61               	movlw	97
   696   002918  ECAC  F014         	call	_EUSART_ASYNC_WriteByteNonBlocking
   697   00291C  0E62               	movlw	98
   698   00291E  ECAC  F014         	call	_EUSART_ASYNC_WriteByteNonBlocking
   699   002922  EF8B  F014         	goto	l6571
   700   002926  EF07  F000         	goto	start
   701   00292A                     __end_of_main:
   702                           	callstack 0
   703                           
   704 ;; *************** function _usart_interrupt_init *****************
   705 ;; Defined at:
   706 ;;		line 58 in file "appplication.c"
   707 ;; Parameters:    Size  Location     Type
   708 ;;		None
   709 ;; Auto vars:     Size  Location     Type
   710 ;;  usart_obj      18    0[BANK0 ] struct .
   711 ;;  ret             1    0        unsigned char 
   712 ;; Return value:  Size  Location     Type
   713 ;;                  1    wreg      void 
   714 ;; Registers used:
   715 ;;		wreg, fsr2l, fsr2h, status,2, status,0, cstack
   716 ;; Tracked objects:
   717 ;;		On entry : 0/0
   718 ;;		On exit  : 0/0
   719 ;;		Unchanged: 0/0
   720 ;; Data sizes:     COMRAM   BANK0   BANK1   BANK2   BANK3   BANK4   BANK5   BANK6   BANK7   BANK8   BANK9  BANK10  BANK1
      +1  BANK12  BANK13  BANK14  BANK15
   721 ;;      Params:         0       0       0       0       0       0       0       0       0       0       0       0       
      +0       0       0       0       0
   722 ;;      Locals:         0      18       0       0       0       0       0       0       0       0       0       0       
      +0       0       0       0       0
   723 ;;      Temps:          0       0       0       0       0       0       0       0       0       0       0       0       
      +0       0       0       0       0
   724 ;;      Totals:         0      18       0       0       0       0       0       0       0       0       0       0       
      +0       0       0       0       0
   725 ;;Total ram usage:       18 bytes
   726 ;; Hardware stack levels used: 1
   727 ;; Hardware stack levels required when called: 6
   728 ;; This function calls:
   729 ;;		_EUSART_ASYNC_Init
   730 ;; This function is called by:
   731 ;;		_main
   732 ;; This function uses a non-reentrant model
   733 ;;
   734                           
   735                           	psect	text1
   736   00285C                     __ptext1:
   737                           	callstack 0
   738   00285C                     _usart_interrupt_init:
   739                           	callstack 24
   740   00285C                     
   741                           ;appplication.c: 60:     usart_t usart_obj;;appplication.c: 61:     usart_obj.baudrate =
      +                           9600;
   742   00285C  0E80               	movlw	128
   743   00285E  0100               	movlb	0	; () banked
   744   002860  6FBC               	movwf	usart_interrupt_init@usart_obj& (0+255),b
   745   002862  0E25               	movlw	37
   746   002864  6FBD               	movwf	(usart_interrupt_init@usart_obj+1)& (0+255),b
   747   002866  0E00               	movlw	0
   748   002868  6FBE               	movwf	(usart_interrupt_init@usart_obj+2)& (0+255),b
   749   00286A  0E00               	movlw	0
   750   00286C  6FBF               	movwf	(usart_interrupt_init@usart_obj+3)& (0+255),b
   751                           
   752                           ;appplication.c: 62:     usart_obj.baudrate_config = BAUDRATE_ASYNC_8BIT_LOW_SPEED;
   753   00286E  0E00               	movlw	0
   754   002870  6FC0               	movwf	(usart_interrupt_init@usart_obj+4)& (0+255),b
   755   002872                     
   756                           ; BSR set to: 0
   757                           ;appplication.c: 64:     usart_obj.usart_rx_cfg.usart_rx_enable = 1;
   758   002872  8BC3               	bsf	(usart_interrupt_init@usart_obj+7)& (0+255),5,b
   759   002874                     
   760                           ; BSR set to: 0
   761                           ;appplication.c: 65:     usart_obj.usart_rx_cfg.usart_rx_9bit_enable = 0;
   762   002874  9FC3               	bcf	(usart_interrupt_init@usart_obj+7)& (0+255),7,b
   763   002876                     
   764                           ; BSR set to: 0
   765                           ;appplication.c: 66:     usart_obj.usart_rx_cfg.usart_rx_interrupt_enable = 1;
   766   002876  8DC3               	bsf	(usart_interrupt_init@usart_obj+7)& (0+255),6,b
   767   002878                     
   768                           ; BSR set to: 0
   769                           ;appplication.c: 68:     usart_obj.usart_tx_cfg.usart_tx_enable = 1;
   770   002878  8BC1               	bsf	(usart_interrupt_init@usart_obj+5)& (0+255),5,b
   771   00287A                     
   772                           ; BSR set to: 0
   773                           ;appplication.c: 69:     usart_obj.usart_tx_cfg.usart_tx_9bit_enable = 0;
   774   00287A  9FC1               	bcf	(usart_interrupt_init@usart_obj+5)& (0+255),7,b
   775   00287C                     
   776                           ; BSR set to: 0
   777                           ;appplication.c: 70:     usart_obj.usart_tx_cfg.usart_tx_interrupt_enable = 1;
   778   00287C  8DC1               	bsf	(usart_interrupt_init@usart_obj+5)& (0+255),6,b
   779   00287E                     
   780                           ; BSR set to: 0
   781                           ;appplication.c: 72:     usart_obj.EUSART_FramingErrorHandler = ((void*)0);
   782   00287E  0E00               	movlw	0
   783   002880  6FCA               	movwf	(usart_interrupt_init@usart_obj+14)& (0+255),b
   784   002882  0E00               	movlw	0
   785   002884  6FCB               	movwf	(usart_interrupt_init@usart_obj+15)& (0+255),b
   786   002886                     
   787                           ; BSR set to: 0
   788                           ;appplication.c: 73:     usart_obj.EUSART_OverrunErrorHandler = ((void*)0);
   789   002886  0E00               	movlw	0
   790   002888  6FCC               	movwf	(usart_interrupt_init@usart_obj+16)& (0+255),b
   791   00288A  0E00               	movlw	0
   792   00288C  6FCD               	movwf	(usart_interrupt_init@usart_obj+17)& (0+255),b
   793   00288E                     
   794                           ; BSR set to: 0
   795                           ;appplication.c: 74:     usart_obj.EUSART_Rx_DefaultInterruptHandler = ((void*)0);
   796   00288E  0E00               	movlw	0
   797   002890  6FC8               	movwf	(usart_interrupt_init@usart_obj+12)& (0+255),b
   798   002892  0E00               	movlw	0
   799   002894  6FC9               	movwf	(usart_interrupt_init@usart_obj+13)& (0+255),b
   800   002896                     
   801                           ; BSR set to: 0
   802                           ;appplication.c: 75:     usart_obj.EUSART_Tx_DefaultInterruptHandler = tx_isr;
   803   002896  0E04               	movlw	low _tx_isr
   804   002898  6FC6               	movwf	(usart_interrupt_init@usart_obj+10)& (0+255),b
   805   00289A  0E2A               	movlw	high _tx_isr
   806   00289C  6FC7               	movwf	(usart_interrupt_init@usart_obj+11)& (0+255),b
   807   00289E                     
   808                           ; BSR set to: 0
   809   00289E  0EBC               	movlw	low usart_interrupt_init@usart_obj
   810   0028A0  6E47               	movwf	EUSART_ASYNC_Init@_eusart^0,c
   811   0028A2  0E00               	movlw	high usart_interrupt_init@usart_obj
   812   0028A4  6E48               	movwf	(EUSART_ASYNC_Init@_eusart+1)^0,c
   813   0028A6  EC56  F014         	call	_EUSART_ASYNC_Init	;wreg free
   814   0028AA  0012               	return		;funcret
   815   0028AC                     __end_of_usart_interrupt_init:
   816                           	callstack 0
   817                           
   818 ;; *************** function _EUSART_ASYNC_Init *****************
   819 ;; Defined at:
   820 ;;		line 27 in file "MCAL_Layer/EUSART/hal_usart.c"
   821 ;; Parameters:    Size  Location     Type
   822 ;;  _eusart         2   70[COMRAM] PTR const struct .
   823 ;;		 -> usart_interrupt_init@usart_obj(18), 
   824 ;; Auto vars:     Size  Location     Type
   825 ;;  ret             1   72[COMRAM] unsigned char 
   826 ;; Return value:  Size  Location     Type
   827 ;;                  1    wreg      unsigned char 
   828 ;; Registers used:
   829 ;;		wreg, fsr2l, fsr2h, status,2, status,0, cstack
   830 ;; Tracked objects:
   831 ;;		On entry : 0/0
   832 ;;		On exit  : 0/0
   833 ;;		Unchanged: 0/0
   834 ;; Data sizes:     COMRAM   BANK0   BANK1   BANK2   BANK3   BANK4   BANK5   BANK6   BANK7   BANK8   BANK9  BANK10  BANK1
      +1  BANK12  BANK13  BANK14  BANK15
   835 ;;      Params:         2       0       0       0       0       0       0       0       0       0       0       0       
      +0       0       0       0       0
   836 ;;      Locals:         1       0       0       0       0       0       0       0       0       0       0       0       
      +0       0       0       0       0
   837 ;;      Temps:          0       0       0       0       0       0       0       0       0       0       0       0       
      +0       0       0       0       0
   838 ;;      Totals:         3       0       0       0       0       0       0       0       0       0       0       0       
      +0       0       0       0       0
   839 ;;Total ram usage:        3 bytes
   840 ;; Hardware stack levels used: 1
   841 ;; Hardware stack levels required when called: 5
   842 ;; This function calls:
   843 ;;		_EUSART_ASYNC_RX_Init
   844 ;;		_EUSART_ASYNC_TX_Init
   845 ;;		_EUSART_Baud_Rate_Calculation
   846 ;; This function is called by:
   847 ;;		_usart_interrupt_init
   848 ;; This function uses a non-reentrant model
   849 ;;
   850                           
   851                           	psect	text2
   852   0028AC                     __ptext2:
   853                           	callstack 0
   854   0028AC                     _EUSART_ASYNC_Init:
   855                           	callstack 24
   856   0028AC                     
   857                           ;MCAL_Layer/EUSART/hal_usart.c: 30:     if(((void*)0) == _eusart)
   858   0028AC  5047               	movf	EUSART_ASYNC_Init@_eusart^0,w,c
   859   0028AE  1048               	iorwf	(EUSART_ASYNC_Init@_eusart+1)^0,w,c
   860   0028B0  A4D8               	btfss	status,2,c
   861   0028B2  EF5D  F014         	goto	u6531
   862   0028B6  EF5F  F014         	goto	u6530
   863   0028BA                     u6531:
   864   0028BA  EF63  F014         	goto	l523
   865   0028BE                     u6530:
   866   0028BE                     
   867                           ;MCAL_Layer/EUSART/hal_usart.c: 31:     {;MCAL_Layer/EUSART/hal_usart.c: 32:         ret
      +                           = (Std_ReturnType)0x00;
   868   0028BE  0E00               	movlw	0
   869   0028C0  6E49               	movwf	EUSART_ASYNC_Init@ret^0,c
   870                           
   871                           ;MCAL_Layer/EUSART/hal_usart.c: 33:     }
   872   0028C2  EF7B  F014         	goto	l6535
   873   0028C6                     l523:
   874                           
   875                           ;MCAL_Layer/EUSART/hal_usart.c: 35:     {;MCAL_Layer/EUSART/hal_usart.c: 36:         RCS
      +                          TAbits.SPEN = 0;
   876   0028C6  9EAB               	bcf	171,7,c	;volatile
   877                           
   878                           ;MCAL_Layer/EUSART/hal_usart.c: 37:         TRISCbits.RC6 = GPIO_HIGH;
   879   0028C8  8C94               	bsf	148,6,c	;volatile
   880                           
   881                           ;MCAL_Layer/EUSART/hal_usart.c: 38:         TRISCbits.RC7 = GPIO_HIGH;
   882   0028CA  8E94               	bsf	148,7,c	;volatile
   883   0028CC                     
   884                           ;MCAL_Layer/EUSART/hal_usart.c: 39:         EUSART_ASYNC_TX_Init(_eusart);
   885   0028CC  C047  F004         	movff	EUSART_ASYNC_Init@_eusart,EUSART_ASYNC_TX_Init@_eusart
   886   0028D0  C048  F005         	movff	EUSART_ASYNC_Init@_eusart+1,EUSART_ASYNC_TX_Init@_eusart+1
   887   0028D4  EC35  F013         	call	_EUSART_ASYNC_TX_Init	;wreg free
   888                           
   889                           ;MCAL_Layer/EUSART/hal_usart.c: 40:         EUSART_ASYNC_RX_Init(_eusart);
   890   0028D8  C047  F004         	movff	EUSART_ASYNC_Init@_eusart,EUSART_ASYNC_RX_Init@_eusart
   891   0028DC  C048  F005         	movff	EUSART_ASYNC_Init@_eusart+1,EUSART_ASYNC_RX_Init@_eusart+1
   892   0028E0  ECC7  F012         	call	_EUSART_ASYNC_RX_Init	;wreg free
   893                           
   894                           ;MCAL_Layer/EUSART/hal_usart.c: 41:         EUSART_Baud_Rate_Calculation(_eusart);
   895   0028E4  C047  F03B         	movff	EUSART_ASYNC_Init@_eusart,EUSART_Baud_Rate_Calculation@_eusart
   896   0028E8  C048  F03C         	movff	EUSART_ASYNC_Init@_eusart+1,EUSART_Baud_Rate_Calculation@_eusart+1
   897   0028EC  EC0B  F008         	call	_EUSART_Baud_Rate_Calculation	;wreg free
   898   0028F0                     
   899                           ;MCAL_Layer/EUSART/hal_usart.c: 42:         RCSTAbits.SPEN = 1;
   900   0028F0  8EAB               	bsf	171,7,c	;volatile
   901   0028F2                     
   902                           ;MCAL_Layer/EUSART/hal_usart.c: 43:         ret = (Std_ReturnType)0x01;
   903   0028F2  0E01               	movlw	1
   904   0028F4  6E49               	movwf	EUSART_ASYNC_Init@ret^0,c
   905   0028F6                     l6535:
   906                           
   907                           ;MCAL_Layer/EUSART/hal_usart.c: 45:     return ret;
   908   0028F6  5049               	movf	EUSART_ASYNC_Init@ret^0,w,c
   909   0028F8  0012               	return		;funcret
   910   0028FA                     __end_of_EUSART_ASYNC_Init:
   911                           	callstack 0
   912                           
   913 ;; *************** function _EUSART_Baud_Rate_Calculation *****************
   914 ;; Defined at:
   915 ;;		line 162 in file "MCAL_Layer/EUSART/hal_usart.c"
   916 ;; Parameters:    Size  Location     Type
   917 ;;  _eusart         2   58[COMRAM] PTR const struct .
   918 ;;		 -> usart_interrupt_init@usart_obj(18), 
   919 ;; Auto vars:     Size  Location     Type
   920 ;;  Baud_Rate_Te    4   62[COMRAM] float 
   921 ;; Return value:  Size  Location     Type
   922 ;;                  1    wreg      void 
   923 ;; Registers used:
   924 ;;		wreg, fsr2l, fsr2h, status,2, status,0, cstack
   925 ;; Tracked objects:
   926 ;;		On entry : 0/0
   927 ;;		On exit  : 0/0
   928 ;;		Unchanged: 0/0
   929 ;; Data sizes:     COMRAM   BANK0   BANK1   BANK2   BANK3   BANK4   BANK5   BANK6   BANK7   BANK8   BANK9  BANK10  BANK1
      +1  BANK12  BANK13  BANK14  BANK15
   930 ;;      Params:         2       0       0       0       0       0       0       0       0       0       0       0       
      +0       0       0       0       0
   931 ;;      Locals:         8       0       0       0       0       0       0       0       0       0       0       0       
      +0       0       0       0       0
   932 ;;      Temps:          2       0       0       0       0       0       0       0       0       0       0       0       
      +0       0       0       0       0
   933 ;;      Totals:        12       0       0       0       0       0       0       0       0       0       0       0       
      +0       0       0       0       0
   934 ;;Total ram usage:       12 bytes
   935 ;; Hardware stack levels used: 1
   936 ;; Hardware stack levels required when called: 4
   937 ;; This function calls:
   938 ;;		___fladd
   939 ;;		___fldiv
   940 ;;		___fltol
   941 ;;		___xxtofl
   942 ;; This function is called by:
   943 ;;		_EUSART_ASYNC_Init
   944 ;; This function uses a non-reentrant model
   945 ;;
   946                           
   947                           	psect	text3
   948   001016                     __ptext3:
   949                           	callstack 0
   950   001016                     _EUSART_Baud_Rate_Calculation:
   951                           	callstack 24
   952   001016                     
   953                           ;MCAL_Layer/EUSART/hal_usart.c: 162: static void EUSART_Baud_Rate_Calculation (const usa
      +                          rt_t* _eusart);MCAL_Layer/EUSART/hal_usart.c: 163: {;MCAL_Layer/EUSART/hal_usart.c: 164:
      +                               float Baud_Rate_Temp = 0;
   954   001016  0E00               	movlw	0
   955   001018  6E3F               	movwf	EUSART_Baud_Rate_Calculation@Baud_Rate_Temp^0,c
   956   00101A  0E00               	movlw	0
   957   00101C  6E40               	movwf	(EUSART_Baud_Rate_Calculation@Baud_Rate_Temp+1)^0,c
   958   00101E  0E00               	movlw	0
   959   001020  6E41               	movwf	(EUSART_Baud_Rate_Calculation@Baud_Rate_Temp+2)^0,c
   960   001022  0E00               	movlw	0
   961   001024  6E42               	movwf	(EUSART_Baud_Rate_Calculation@Baud_Rate_Temp+3)^0,c
   962                           
   963                           ;MCAL_Layer/EUSART/hal_usart.c: 165:     switch(_eusart->baudrate_config)
   964   001026  EF2F  F00A         	goto	l6515
   965   00102A                     l576:
   966                           
   967                           ;MCAL_Layer/EUSART/hal_usart.c: 168:             TXSTAbits.SYNC = 0;
   968   00102A  98AC               	bcf	172,4,c	;volatile
   969                           
   970                           ;MCAL_Layer/EUSART/hal_usart.c: 169:             BAUDCONbits.BRG16 = 0;
   971   00102C  96B8               	bcf	184,3,c	;volatile
   972                           
   973                           ;MCAL_Layer/EUSART/hal_usart.c: 170:             TXSTAbits.BRGH = 0;
   974   00102E  94AC               	bcf	172,2,c	;volatile
   975   001030                     
   976                           ;MCAL_Layer/EUSART/hal_usart.c: 171:             Baud_Rate_Temp = ((8000000UL / (float)_
      +                          eusart->baudrate) / 64) - 1;
   977   001030  C03B  FFD9         	movff	EUSART_Baud_Rate_Calculation@_eusart,fsr2l
   978   001034  C03C  FFDA         	movff	EUSART_Baud_Rate_Calculation@_eusart+1,fsr2h
   979   001038  CFDE F004          	movff	postinc2,___xxtofl@val
   980   00103C  CFDE F005          	movff	postinc2,___xxtofl@val+1
   981   001040  CFDE F006          	movff	postinc2,___xxtofl@val+2
   982   001044  CFDE F007          	movff	postinc2,___xxtofl@val+3
   983   001048  0E00               	movlw	0
   984   00104A  EC32  F010         	call	___xxtofl
   985   00104E  C004  F016         	movff	?___xxtofl,___fldiv@a
   986   001052  C005  F017         	movff	?___xxtofl+1,___fldiv@a+1
   987   001056  C006  F018         	movff	?___xxtofl+2,___fldiv@a+2
   988   00105A  C007  F019         	movff	?___xxtofl+3,___fldiv@a+3
   989   00105E  0E00               	movlw	0
   990   001060  6E12               	movwf	___fldiv@b^0,c
   991   001062  0E24               	movlw	36
   992   001064  6E13               	movwf	(___fldiv@b+1)^0,c
   993   001066  0EF4               	movlw	244
   994   001068  6E14               	movwf	(___fldiv@b+2)^0,c
   995   00106A  0E4A               	movlw	74
   996   00106C  6E15               	movwf	(___fldiv@b+3)^0,c
   997   00106E  ECDA  F00C         	call	___fldiv	;wreg free
   998   001072  C012  F043         	movff	?___fldiv,_EUSART_Baud_Rate_Calculation$3459
   999   001076  C013  F044         	movff	?___fldiv+1,_EUSART_Baud_Rate_Calculation$3459+1
  1000   00107A  C014  F045         	movff	?___fldiv+2,_EUSART_Baud_Rate_Calculation$3459+2
  1001   00107E  C015  F046         	movff	?___fldiv+3,_EUSART_Baud_Rate_Calculation$3459+3
  1002   001082                     
  1003                           ;MCAL_Layer/EUSART/hal_usart.c: 171:             Baud_Rate_Temp = ((8000000UL / (float)_
      +                          eusart->baudrate) / 64) - 1;
  1004   001082  0E00               	movlw	0
  1005   001084  6E16               	movwf	___fldiv@a^0,c
  1006   001086  0E00               	movlw	0
  1007   001088  6E17               	movwf	(___fldiv@a+1)^0,c
  1008   00108A  0E80               	movlw	128
  1009   00108C  6E18               	movwf	(___fldiv@a+2)^0,c
  1010   00108E  0E42               	movlw	66
  1011   001090  6E19               	movwf	(___fldiv@a+3)^0,c
  1012   001092  C043  F012         	movff	_EUSART_Baud_Rate_Calculation$3459,___fldiv@b
  1013   001096  C044  F013         	movff	_EUSART_Baud_Rate_Calculation$3459+1,___fldiv@b+1
  1014   00109A  C045  F014         	movff	_EUSART_Baud_Rate_Calculation$3459+2,___fldiv@b+2
  1015   00109E  C046  F015         	movff	_EUSART_Baud_Rate_Calculation$3459+3,___fldiv@b+3
  1016   0010A2  ECDA  F00C         	call	___fldiv	;wreg free
  1017   0010A6  C012  F02B         	movff	?___fldiv,___fladd@b
  1018   0010AA  C013  F02C         	movff	?___fldiv+1,___fladd@b+1
  1019   0010AE  C014  F02D         	movff	?___fldiv+2,___fladd@b+2
  1020   0010B2  C015  F02E         	movff	?___fldiv+3,___fladd@b+3
  1021   0010B6  0E00               	movlw	0
  1022   0010B8  6E2F               	movwf	___fladd@a^0,c
  1023   0010BA  0E00               	movlw	0
  1024   0010BC  6E30               	movwf	(___fladd@a+1)^0,c
  1025   0010BE  0E80               	movlw	128
  1026   0010C0  6E31               	movwf	(___fladd@a+2)^0,c
  1027   0010C2  0EBF               	movlw	191
  1028   0010C4  6E32               	movwf	(___fladd@a+3)^0,c
  1029   0010C6  EC7A  F00A         	call	___fladd	;wreg free
  1030   0010CA  C02B  F03F         	movff	?___fladd,EUSART_Baud_Rate_Calculation@Baud_Rate_Temp
  1031   0010CE  C02C  F040         	movff	?___fladd+1,EUSART_Baud_Rate_Calculation@Baud_Rate_Temp+1
  1032   0010D2  C02D  F041         	movff	?___fladd+2,EUSART_Baud_Rate_Calculation@Baud_Rate_Temp+2
  1033   0010D6  C02E  F042         	movff	?___fladd+3,EUSART_Baud_Rate_Calculation@Baud_Rate_Temp+3
  1034                           
  1035                           ;MCAL_Layer/EUSART/hal_usart.c: 172:             break;
  1036   0010DA  EF5A  F00A         	goto	l6517
  1037   0010DE                     l578:
  1038                           
  1039                           ;MCAL_Layer/EUSART/hal_usart.c: 174:             TXSTAbits.SYNC = 0;
  1040   0010DE  98AC               	bcf	172,4,c	;volatile
  1041                           
  1042                           ;MCAL_Layer/EUSART/hal_usart.c: 175:             BAUDCONbits.BRG16 = 0;
  1043   0010E0  96B8               	bcf	184,3,c	;volatile
  1044                           
  1045                           ;MCAL_Layer/EUSART/hal_usart.c: 176:             TXSTAbits.BRGH = 1;
  1046   0010E2  84AC               	bsf	172,2,c	;volatile
  1047   0010E4                     
  1048                           ;MCAL_Layer/EUSART/hal_usart.c: 177:             Baud_Rate_Temp = ((8000000UL / (float)_
      +                          eusart->baudrate) / 16) - 1;
  1049   0010E4  C03B  FFD9         	movff	EUSART_Baud_Rate_Calculation@_eusart,fsr2l
  1050   0010E8  C03C  FFDA         	movff	EUSART_Baud_Rate_Calculation@_eusart+1,fsr2h
  1051   0010EC  CFDE F004          	movff	postinc2,___xxtofl@val
  1052   0010F0  CFDE F005          	movff	postinc2,___xxtofl@val+1
  1053   0010F4  CFDE F006          	movff	postinc2,___xxtofl@val+2
  1054   0010F8  CFDE F007          	movff	postinc2,___xxtofl@val+3
  1055   0010FC  0E00               	movlw	0
  1056   0010FE  EC32  F010         	call	___xxtofl
  1057   001102  C004  F016         	movff	?___xxtofl,___fldiv@a
  1058   001106  C005  F017         	movff	?___xxtofl+1,___fldiv@a+1
  1059   00110A  C006  F018         	movff	?___xxtofl+2,___fldiv@a+2
  1060   00110E  C007  F019         	movff	?___xxtofl+3,___fldiv@a+3
  1061   001112  0E00               	movlw	0
  1062   001114  6E12               	movwf	___fldiv@b^0,c
  1063   001116  0E24               	movlw	36
  1064   001118  6E13               	movwf	(___fldiv@b+1)^0,c
  1065   00111A  0EF4               	movlw	244
  1066   00111C  6E14               	movwf	(___fldiv@b+2)^0,c
  1067   00111E  0E4A               	movlw	74
  1068   001120  6E15               	movwf	(___fldiv@b+3)^0,c
  1069   001122  ECDA  F00C         	call	___fldiv	;wreg free
  1070   001126  C012  F043         	movff	?___fldiv,_EUSART_Baud_Rate_Calculation$3459
  1071   00112A  C013  F044         	movff	?___fldiv+1,_EUSART_Baud_Rate_Calculation$3459+1
  1072   00112E  C014  F045         	movff	?___fldiv+2,_EUSART_Baud_Rate_Calculation$3459+2
  1073   001132  C015  F046         	movff	?___fldiv+3,_EUSART_Baud_Rate_Calculation$3459+3
  1074   001136                     
  1075                           ;MCAL_Layer/EUSART/hal_usart.c: 177:             Baud_Rate_Temp = ((8000000UL / (float)_
      +                          eusart->baudrate) / 16) - 1;
  1076   001136  0E00               	movlw	0
  1077   001138  6E16               	movwf	___fldiv@a^0,c
  1078   00113A  0E00               	movlw	0
  1079   00113C  6E17               	movwf	(___fldiv@a+1)^0,c
  1080   00113E  0E80               	movlw	128
  1081   001140  6E18               	movwf	(___fldiv@a+2)^0,c
  1082   001142  0E41               	movlw	65
  1083   001144  6E19               	movwf	(___fldiv@a+3)^0,c
  1084   001146  C043  F012         	movff	_EUSART_Baud_Rate_Calculation$3459,___fldiv@b
  1085   00114A  C044  F013         	movff	_EUSART_Baud_Rate_Calculation$3459+1,___fldiv@b+1
  1086   00114E  C045  F014         	movff	_EUSART_Baud_Rate_Calculation$3459+2,___fldiv@b+2
  1087   001152  C046  F015         	movff	_EUSART_Baud_Rate_Calculation$3459+3,___fldiv@b+3
  1088   001156  ECDA  F00C         	call	___fldiv	;wreg free
  1089   00115A  C012  F02B         	movff	?___fldiv,___fladd@b
  1090   00115E  C013  F02C         	movff	?___fldiv+1,___fladd@b+1
  1091   001162  C014  F02D         	movff	?___fldiv+2,___fladd@b+2
  1092   001166  C015  F02E         	movff	?___fldiv+3,___fladd@b+3
  1093   00116A  0E00               	movlw	0
  1094   00116C  6E2F               	movwf	___fladd@a^0,c
  1095   00116E  0E00               	movlw	0
  1096   001170  6E30               	movwf	(___fladd@a+1)^0,c
  1097   001172  0E80               	movlw	128
  1098   001174  6E31               	movwf	(___fladd@a+2)^0,c
  1099   001176  0EBF               	movlw	191
  1100   001178  6E32               	movwf	(___fladd@a+3)^0,c
  1101   00117A  EC7A  F00A         	call	___fladd	;wreg free
  1102   00117E  C02B  F03F         	movff	?___fladd,EUSART_Baud_Rate_Calculation@Baud_Rate_Temp
  1103   001182  C02C  F040         	movff	?___fladd+1,EUSART_Baud_Rate_Calculation@Baud_Rate_Temp+1
  1104   001186  C02D  F041         	movff	?___fladd+2,EUSART_Baud_Rate_Calculation@Baud_Rate_Temp+2
  1105   00118A  C02E  F042         	movff	?___fladd+3,EUSART_Baud_Rate_Calculation@Baud_Rate_Temp+3
  1106                           
  1107                           ;MCAL_Layer/EUSART/hal_usart.c: 178:             break;
  1108   00118E  EF5A  F00A         	goto	l6517
  1109   001192                     l579:
  1110                           
  1111                           ;MCAL_Layer/EUSART/hal_usart.c: 180:             TXSTAbits.SYNC = 0;
  1112   001192  98AC               	bcf	172,4,c	;volatile
  1113                           
  1114                           ;MCAL_Layer/EUSART/hal_usart.c: 181:             BAUDCONbits.BRG16 = 1;
  1115   001194  86B8               	bsf	184,3,c	;volatile
  1116                           
  1117                           ;MCAL_Layer/EUSART/hal_usart.c: 182:             TXSTAbits.BRGH = 0;
  1118   001196  94AC               	bcf	172,2,c	;volatile
  1119   001198                     
  1120                           ;MCAL_Layer/EUSART/hal_usart.c: 183:             Baud_Rate_Temp = ((8000000UL / (float)_
      +                          eusart->baudrate) / 16) - 1;
  1121   001198  C03B  FFD9         	movff	EUSART_Baud_Rate_Calculation@_eusart,fsr2l
  1122   00119C  C03C  FFDA         	movff	EUSART_Baud_Rate_Calculation@_eusart+1,fsr2h
  1123   0011A0  CFDE F004          	movff	postinc2,___xxtofl@val
  1124   0011A4  CFDE F005          	movff	postinc2,___xxtofl@val+1
  1125   0011A8  CFDE F006          	movff	postinc2,___xxtofl@val+2
  1126   0011AC  CFDE F007          	movff	postinc2,___xxtofl@val+3
  1127   0011B0  0E00               	movlw	0
  1128   0011B2  EC32  F010         	call	___xxtofl
  1129   0011B6  C004  F016         	movff	?___xxtofl,___fldiv@a
  1130   0011BA  C005  F017         	movff	?___xxtofl+1,___fldiv@a+1
  1131   0011BE  C006  F018         	movff	?___xxtofl+2,___fldiv@a+2
  1132   0011C2  C007  F019         	movff	?___xxtofl+3,___fldiv@a+3
  1133   0011C6  0E00               	movlw	0
  1134   0011C8  6E12               	movwf	___fldiv@b^0,c
  1135   0011CA  0E24               	movlw	36
  1136   0011CC  6E13               	movwf	(___fldiv@b+1)^0,c
  1137   0011CE  0EF4               	movlw	244
  1138   0011D0  6E14               	movwf	(___fldiv@b+2)^0,c
  1139   0011D2  0E4A               	movlw	74
  1140   0011D4  6E15               	movwf	(___fldiv@b+3)^0,c
  1141   0011D6  ECDA  F00C         	call	___fldiv	;wreg free
  1142   0011DA  C012  F043         	movff	?___fldiv,_EUSART_Baud_Rate_Calculation$3459
  1143   0011DE  C013  F044         	movff	?___fldiv+1,_EUSART_Baud_Rate_Calculation$3459+1
  1144   0011E2  C014  F045         	movff	?___fldiv+2,_EUSART_Baud_Rate_Calculation$3459+2
  1145   0011E6  C015  F046         	movff	?___fldiv+3,_EUSART_Baud_Rate_Calculation$3459+3
  1146   0011EA                     
  1147                           ;MCAL_Layer/EUSART/hal_usart.c: 183:             Baud_Rate_Temp = ((8000000UL / (float)_
      +                          eusart->baudrate) / 16) - 1;
  1148   0011EA  0E00               	movlw	0
  1149   0011EC  6E16               	movwf	___fldiv@a^0,c
  1150   0011EE  0E00               	movlw	0
  1151   0011F0  6E17               	movwf	(___fldiv@a+1)^0,c
  1152   0011F2  0E80               	movlw	128
  1153   0011F4  6E18               	movwf	(___fldiv@a+2)^0,c
  1154   0011F6  0E41               	movlw	65
  1155   0011F8  6E19               	movwf	(___fldiv@a+3)^0,c
  1156   0011FA  C043  F012         	movff	_EUSART_Baud_Rate_Calculation$3459,___fldiv@b
  1157   0011FE  C044  F013         	movff	_EUSART_Baud_Rate_Calculation$3459+1,___fldiv@b+1
  1158   001202  C045  F014         	movff	_EUSART_Baud_Rate_Calculation$3459+2,___fldiv@b+2
  1159   001206  C046  F015         	movff	_EUSART_Baud_Rate_Calculation$3459+3,___fldiv@b+3
  1160   00120A  ECDA  F00C         	call	___fldiv	;wreg free
  1161   00120E  C012  F02B         	movff	?___fldiv,___fladd@b
  1162   001212  C013  F02C         	movff	?___fldiv+1,___fladd@b+1
  1163   001216  C014  F02D         	movff	?___fldiv+2,___fladd@b+2
  1164   00121A  C015  F02E         	movff	?___fldiv+3,___fladd@b+3
  1165   00121E  0E00               	movlw	0
  1166   001220  6E2F               	movwf	___fladd@a^0,c
  1167   001222  0E00               	movlw	0
  1168   001224  6E30               	movwf	(___fladd@a+1)^0,c
  1169   001226  0E80               	movlw	128
  1170   001228  6E31               	movwf	(___fladd@a+2)^0,c
  1171   00122A  0EBF               	movlw	191
  1172   00122C  6E32               	movwf	(___fladd@a+3)^0,c
  1173   00122E  EC7A  F00A         	call	___fladd	;wreg free
  1174   001232  C02B  F03F         	movff	?___fladd,EUSART_Baud_Rate_Calculation@Baud_Rate_Temp
  1175   001236  C02C  F040         	movff	?___fladd+1,EUSART_Baud_Rate_Calculation@Baud_Rate_Temp+1
  1176   00123A  C02D  F041         	movff	?___fladd+2,EUSART_Baud_Rate_Calculation@Baud_Rate_Temp+2
  1177   00123E  C02E  F042         	movff	?___fladd+3,EUSART_Baud_Rate_Calculation@Baud_Rate_Temp+3
  1178                           
  1179                           ;MCAL_Layer/EUSART/hal_usart.c: 184:             break;
  1180   001242  EF5A  F00A         	goto	l6517
  1181   001246                     l580:
  1182                           
  1183                           ;MCAL_Layer/EUSART/hal_usart.c: 186:             TXSTAbits.SYNC = 0;
  1184   001246  98AC               	bcf	172,4,c	;volatile
  1185                           
  1186                           ;MCAL_Layer/EUSART/hal_usart.c: 187:             BAUDCONbits.BRG16 = 1;
  1187   001248  86B8               	bsf	184,3,c	;volatile
  1188                           
  1189                           ;MCAL_Layer/EUSART/hal_usart.c: 188:             TXSTAbits.BRGH = 1;
  1190   00124A  84AC               	bsf	172,2,c	;volatile
  1191   00124C                     
  1192                           ;MCAL_Layer/EUSART/hal_usart.c: 189:             Baud_Rate_Temp = ((8000000UL / (float)_
      +                          eusart->baudrate) / 4) - 1;
  1193   00124C  C03B  FFD9         	movff	EUSART_Baud_Rate_Calculation@_eusart,fsr2l
  1194   001250  C03C  FFDA         	movff	EUSART_Baud_Rate_Calculation@_eusart+1,fsr2h
  1195   001254  CFDE F004          	movff	postinc2,___xxtofl@val
  1196   001258  CFDE F005          	movff	postinc2,___xxtofl@val+1
  1197   00125C  CFDE F006          	movff	postinc2,___xxtofl@val+2
  1198   001260  CFDE F007          	movff	postinc2,___xxtofl@val+3
  1199   001264  0E00               	movlw	0
  1200   001266  EC32  F010         	call	___xxtofl
  1201   00126A  C004  F016         	movff	?___xxtofl,___fldiv@a
  1202   00126E  C005  F017         	movff	?___xxtofl+1,___fldiv@a+1
  1203   001272  C006  F018         	movff	?___xxtofl+2,___fldiv@a+2
  1204   001276  C007  F019         	movff	?___xxtofl+3,___fldiv@a+3
  1205   00127A  0E00               	movlw	0
  1206   00127C  6E12               	movwf	___fldiv@b^0,c
  1207   00127E  0E24               	movlw	36
  1208   001280  6E13               	movwf	(___fldiv@b+1)^0,c
  1209   001282  0EF4               	movlw	244
  1210   001284  6E14               	movwf	(___fldiv@b+2)^0,c
  1211   001286  0E4A               	movlw	74
  1212   001288  6E15               	movwf	(___fldiv@b+3)^0,c
  1213   00128A  ECDA  F00C         	call	___fldiv	;wreg free
  1214   00128E  C012  F043         	movff	?___fldiv,_EUSART_Baud_Rate_Calculation$3459
  1215   001292  C013  F044         	movff	?___fldiv+1,_EUSART_Baud_Rate_Calculation$3459+1
  1216   001296  C014  F045         	movff	?___fldiv+2,_EUSART_Baud_Rate_Calculation$3459+2
  1217   00129A  C015  F046         	movff	?___fldiv+3,_EUSART_Baud_Rate_Calculation$3459+3
  1218   00129E                     
  1219                           ;MCAL_Layer/EUSART/hal_usart.c: 189:             Baud_Rate_Temp = ((8000000UL / (float)_
      +                          eusart->baudrate) / 4) - 1;
  1220   00129E  0E00               	movlw	0
  1221   0012A0  6E16               	movwf	___fldiv@a^0,c
  1222   0012A2  0E00               	movlw	0
  1223   0012A4  6E17               	movwf	(___fldiv@a+1)^0,c
  1224   0012A6  0E80               	movlw	128
  1225   0012A8  6E18               	movwf	(___fldiv@a+2)^0,c
  1226   0012AA  0E40               	movlw	64
  1227   0012AC  6E19               	movwf	(___fldiv@a+3)^0,c
  1228   0012AE  C043  F012         	movff	_EUSART_Baud_Rate_Calculation$3459,___fldiv@b
  1229   0012B2  C044  F013         	movff	_EUSART_Baud_Rate_Calculation$3459+1,___fldiv@b+1
  1230   0012B6  C045  F014         	movff	_EUSART_Baud_Rate_Calculation$3459+2,___fldiv@b+2
  1231   0012BA  C046  F015         	movff	_EUSART_Baud_Rate_Calculation$3459+3,___fldiv@b+3
  1232   0012BE  ECDA  F00C         	call	___fldiv	;wreg free
  1233   0012C2  C012  F02B         	movff	?___fldiv,___fladd@b
  1234   0012C6  C013  F02C         	movff	?___fldiv+1,___fladd@b+1
  1235   0012CA  C014  F02D         	movff	?___fldiv+2,___fladd@b+2
  1236   0012CE  C015  F02E         	movff	?___fldiv+3,___fladd@b+3
  1237   0012D2  0E00               	movlw	0
  1238   0012D4  6E2F               	movwf	___fladd@a^0,c
  1239   0012D6  0E00               	movlw	0
  1240   0012D8  6E30               	movwf	(___fladd@a+1)^0,c
  1241   0012DA  0E80               	movlw	128
  1242   0012DC  6E31               	movwf	(___fladd@a+2)^0,c
  1243   0012DE  0EBF               	movlw	191
  1244   0012E0  6E32               	movwf	(___fladd@a+3)^0,c
  1245   0012E2  EC7A  F00A         	call	___fladd	;wreg free
  1246   0012E6  C02B  F03F         	movff	?___fladd,EUSART_Baud_Rate_Calculation@Baud_Rate_Temp
  1247   0012EA  C02C  F040         	movff	?___fladd+1,EUSART_Baud_Rate_Calculation@Baud_Rate_Temp+1
  1248   0012EE  C02D  F041         	movff	?___fladd+2,EUSART_Baud_Rate_Calculation@Baud_Rate_Temp+2
  1249   0012F2  C02E  F042         	movff	?___fladd+3,EUSART_Baud_Rate_Calculation@Baud_Rate_Temp+3
  1250                           
  1251                           ;MCAL_Layer/EUSART/hal_usart.c: 190:             break;
  1252   0012F6  EF5A  F00A         	goto	l6517
  1253   0012FA                     l581:
  1254                           
  1255                           ;MCAL_Layer/EUSART/hal_usart.c: 192:             TXSTAbits.SYNC = 1;
  1256   0012FA  88AC               	bsf	172,4,c	;volatile
  1257                           
  1258                           ;MCAL_Layer/EUSART/hal_usart.c: 193:             BAUDCONbits.BRG16 = 1;
  1259   0012FC  86B8               	bsf	184,3,c	;volatile
  1260   0012FE                     
  1261                           ;MCAL_Layer/EUSART/hal_usart.c: 194:             Baud_Rate_Temp = ((8000000UL / (float)_
      +                          eusart->baudrate) / 4) - 1;
  1262   0012FE  C03B  FFD9         	movff	EUSART_Baud_Rate_Calculation@_eusart,fsr2l
  1263   001302  C03C  FFDA         	movff	EUSART_Baud_Rate_Calculation@_eusart+1,fsr2h
  1264   001306  CFDE F004          	movff	postinc2,___xxtofl@val
  1265   00130A  CFDE F005          	movff	postinc2,___xxtofl@val+1
  1266   00130E  CFDE F006          	movff	postinc2,___xxtofl@val+2
  1267   001312  CFDE F007          	movff	postinc2,___xxtofl@val+3
  1268   001316  0E00               	movlw	0
  1269   001318  EC32  F010         	call	___xxtofl
  1270   00131C  C004  F016         	movff	?___xxtofl,___fldiv@a
  1271   001320  C005  F017         	movff	?___xxtofl+1,___fldiv@a+1
  1272   001324  C006  F018         	movff	?___xxtofl+2,___fldiv@a+2
  1273   001328  C007  F019         	movff	?___xxtofl+3,___fldiv@a+3
  1274   00132C  0E00               	movlw	0
  1275   00132E  6E12               	movwf	___fldiv@b^0,c
  1276   001330  0E24               	movlw	36
  1277   001332  6E13               	movwf	(___fldiv@b+1)^0,c
  1278   001334  0EF4               	movlw	244
  1279   001336  6E14               	movwf	(___fldiv@b+2)^0,c
  1280   001338  0E4A               	movlw	74
  1281   00133A  6E15               	movwf	(___fldiv@b+3)^0,c
  1282   00133C  ECDA  F00C         	call	___fldiv	;wreg free
  1283   001340  C012  F043         	movff	?___fldiv,_EUSART_Baud_Rate_Calculation$3459
  1284   001344  C013  F044         	movff	?___fldiv+1,_EUSART_Baud_Rate_Calculation$3459+1
  1285   001348  C014  F045         	movff	?___fldiv+2,_EUSART_Baud_Rate_Calculation$3459+2
  1286   00134C  C015  F046         	movff	?___fldiv+3,_EUSART_Baud_Rate_Calculation$3459+3
  1287   001350                     
  1288                           ;MCAL_Layer/EUSART/hal_usart.c: 194:             Baud_Rate_Temp = ((8000000UL / (float)_
      +                          eusart->baudrate) / 4) - 1;
  1289   001350  0E00               	movlw	0
  1290   001352  6E16               	movwf	___fldiv@a^0,c
  1291   001354  0E00               	movlw	0
  1292   001356  6E17               	movwf	(___fldiv@a+1)^0,c
  1293   001358  0E80               	movlw	128
  1294   00135A  6E18               	movwf	(___fldiv@a+2)^0,c
  1295   00135C  0E40               	movlw	64
  1296   00135E  6E19               	movwf	(___fldiv@a+3)^0,c
  1297   001360  C043  F012         	movff	_EUSART_Baud_Rate_Calculation$3459,___fldiv@b
  1298   001364  C044  F013         	movff	_EUSART_Baud_Rate_Calculation$3459+1,___fldiv@b+1
  1299   001368  C045  F014         	movff	_EUSART_Baud_Rate_Calculation$3459+2,___fldiv@b+2
  1300   00136C  C046  F015         	movff	_EUSART_Baud_Rate_Calculation$3459+3,___fldiv@b+3
  1301   001370  ECDA  F00C         	call	___fldiv	;wreg free
  1302   001374  C012  F02B         	movff	?___fldiv,___fladd@b
  1303   001378  C013  F02C         	movff	?___fldiv+1,___fladd@b+1
  1304   00137C  C014  F02D         	movff	?___fldiv+2,___fladd@b+2
  1305   001380  C015  F02E         	movff	?___fldiv+3,___fladd@b+3
  1306   001384  0E00               	movlw	0
  1307   001386  6E2F               	movwf	___fladd@a^0,c
  1308   001388  0E00               	movlw	0
  1309   00138A  6E30               	movwf	(___fladd@a+1)^0,c
  1310   00138C  0E80               	movlw	128
  1311   00138E  6E31               	movwf	(___fladd@a+2)^0,c
  1312   001390  0EBF               	movlw	191
  1313   001392  6E32               	movwf	(___fladd@a+3)^0,c
  1314   001394  EC7A  F00A         	call	___fladd	;wreg free
  1315   001398  C02B  F03F         	movff	?___fladd,EUSART_Baud_Rate_Calculation@Baud_Rate_Temp
  1316   00139C  C02C  F040         	movff	?___fladd+1,EUSART_Baud_Rate_Calculation@Baud_Rate_Temp+1
  1317   0013A0  C02D  F041         	movff	?___fladd+2,EUSART_Baud_Rate_Calculation@Baud_Rate_Temp+2
  1318   0013A4  C02E  F042         	movff	?___fladd+3,EUSART_Baud_Rate_Calculation@Baud_Rate_Temp+3
  1319                           
  1320                           ;MCAL_Layer/EUSART/hal_usart.c: 195:             break;
  1321   0013A8  EF5A  F00A         	goto	l6517
  1322   0013AC                     l582:
  1323                           
  1324                           ;MCAL_Layer/EUSART/hal_usart.c: 197:             TXSTAbits.SYNC = 1;
  1325   0013AC  88AC               	bsf	172,4,c	;volatile
  1326                           
  1327                           ;MCAL_Layer/EUSART/hal_usart.c: 198:             BAUDCONbits.BRG16 = 0;
  1328   0013AE  96B8               	bcf	184,3,c	;volatile
  1329   0013B0                     
  1330                           ;MCAL_Layer/EUSART/hal_usart.c: 199:             Baud_Rate_Temp = ((8000000UL / (float)_
      +                          eusart->baudrate) / 4) - 1;
  1331   0013B0  C03B  FFD9         	movff	EUSART_Baud_Rate_Calculation@_eusart,fsr2l
  1332   0013B4  C03C  FFDA         	movff	EUSART_Baud_Rate_Calculation@_eusart+1,fsr2h
  1333   0013B8  CFDE F004          	movff	postinc2,___xxtofl@val
  1334   0013BC  CFDE F005          	movff	postinc2,___xxtofl@val+1
  1335   0013C0  CFDE F006          	movff	postinc2,___xxtofl@val+2
  1336   0013C4  CFDE F007          	movff	postinc2,___xxtofl@val+3
  1337   0013C8  0E00               	movlw	0
  1338   0013CA  EC32  F010         	call	___xxtofl
  1339   0013CE  C004  F016         	movff	?___xxtofl,___fldiv@a
  1340   0013D2  C005  F017         	movff	?___xxtofl+1,___fldiv@a+1
  1341   0013D6  C006  F018         	movff	?___xxtofl+2,___fldiv@a+2
  1342   0013DA  C007  F019         	movff	?___xxtofl+3,___fldiv@a+3
  1343   0013DE  0E00               	movlw	0
  1344   0013E0  6E12               	movwf	___fldiv@b^0,c
  1345   0013E2  0E24               	movlw	36
  1346   0013E4  6E13               	movwf	(___fldiv@b+1)^0,c
  1347   0013E6  0EF4               	movlw	244
  1348   0013E8  6E14               	movwf	(___fldiv@b+2)^0,c
  1349   0013EA  0E4A               	movlw	74
  1350   0013EC  6E15               	movwf	(___fldiv@b+3)^0,c
  1351   0013EE  ECDA  F00C         	call	___fldiv	;wreg free
  1352   0013F2  C012  F043         	movff	?___fldiv,_EUSART_Baud_Rate_Calculation$3459
  1353   0013F6  C013  F044         	movff	?___fldiv+1,_EUSART_Baud_Rate_Calculation$3459+1
  1354   0013FA  C014  F045         	movff	?___fldiv+2,_EUSART_Baud_Rate_Calculation$3459+2
  1355   0013FE  C015  F046         	movff	?___fldiv+3,_EUSART_Baud_Rate_Calculation$3459+3
  1356   001402                     
  1357                           ;MCAL_Layer/EUSART/hal_usart.c: 199:             Baud_Rate_Temp = ((8000000UL / (float)_
      +                          eusart->baudrate) / 4) - 1;
  1358   001402  0E00               	movlw	0
  1359   001404  6E16               	movwf	___fldiv@a^0,c
  1360   001406  0E00               	movlw	0
  1361   001408  6E17               	movwf	(___fldiv@a+1)^0,c
  1362   00140A  0E80               	movlw	128
  1363   00140C  6E18               	movwf	(___fldiv@a+2)^0,c
  1364   00140E  0E40               	movlw	64
  1365   001410  6E19               	movwf	(___fldiv@a+3)^0,c
  1366   001412  C043  F012         	movff	_EUSART_Baud_Rate_Calculation$3459,___fldiv@b
  1367   001416  C044  F013         	movff	_EUSART_Baud_Rate_Calculation$3459+1,___fldiv@b+1
  1368   00141A  C045  F014         	movff	_EUSART_Baud_Rate_Calculation$3459+2,___fldiv@b+2
  1369   00141E  C046  F015         	movff	_EUSART_Baud_Rate_Calculation$3459+3,___fldiv@b+3
  1370   001422  ECDA  F00C         	call	___fldiv	;wreg free
  1371   001426  C012  F02B         	movff	?___fldiv,___fladd@b
  1372   00142A  C013  F02C         	movff	?___fldiv+1,___fladd@b+1
  1373   00142E  C014  F02D         	movff	?___fldiv+2,___fladd@b+2
  1374   001432  C015  F02E         	movff	?___fldiv+3,___fladd@b+3
  1375   001436  0E00               	movlw	0
  1376   001438  6E2F               	movwf	___fladd@a^0,c
  1377   00143A  0E00               	movlw	0
  1378   00143C  6E30               	movwf	(___fladd@a+1)^0,c
  1379   00143E  0E80               	movlw	128
  1380   001440  6E31               	movwf	(___fladd@a+2)^0,c
  1381   001442  0EBF               	movlw	191
  1382   001444  6E32               	movwf	(___fladd@a+3)^0,c
  1383   001446  EC7A  F00A         	call	___fladd	;wreg free
  1384   00144A  C02B  F03F         	movff	?___fladd,EUSART_Baud_Rate_Calculation@Baud_Rate_Temp
  1385   00144E  C02C  F040         	movff	?___fladd+1,EUSART_Baud_Rate_Calculation@Baud_Rate_Temp+1
  1386   001452  C02D  F041         	movff	?___fladd+2,EUSART_Baud_Rate_Calculation@Baud_Rate_Temp+2
  1387   001456  C02E  F042         	movff	?___fladd+3,EUSART_Baud_Rate_Calculation@Baud_Rate_Temp+3
  1388                           
  1389                           ;MCAL_Layer/EUSART/hal_usart.c: 200:             break;
  1390   00145A  EF5A  F00A         	goto	l6517
  1391   00145E                     l6515:
  1392   00145E  EE20 F004          	lfsr	2,4
  1393   001462  503B               	movf	EUSART_Baud_Rate_Calculation@_eusart^0,w,c
  1394   001464  26D9               	addwf	fsr2l,f,c
  1395   001466  503C               	movf	(EUSART_Baud_Rate_Calculation@_eusart+1)^0,w,c
  1396   001468  22DA               	addwfc	fsr2h,f,c
  1397   00146A  50DF               	movf	indf2,w,c
  1398   00146C  6E3D               	movwf	??_EUSART_Baud_Rate_Calculation^0,c
  1399   00146E  6A3E               	clrf	(??_EUSART_Baud_Rate_Calculation+1)^0,c
  1400                           
  1401                           ; Switch on 2 bytes has been partitioned into a top level switch of size 1, and 1 sub-sw
      +                          itches
  1402                           ; Switch size 1, requested type "simple"
  1403                           ; Number of cases is 1, Range of values is 0 to 0
  1404                           ; switch strategies available:
  1405                           ; Name         Instructions Cycles
  1406                           ; simple_byte            4     3 (average)
  1407                           ;	Chosen strategy is simple_byte
  1408   001470  503E               	movf	(??_EUSART_Baud_Rate_Calculation+1)^0,w,c
  1409   001472  0A00               	xorlw	0	; case 0
  1410   001474  B4D8               	btfsc	status,2,c
  1411   001476  EF3F  F00A         	goto	l6635
  1412   00147A  EF5A  F00A         	goto	l6517
  1413   00147E                     l6635:
  1414                           
  1415                           ; Switch size 1, requested type "simple"
  1416                           ; Number of cases is 6, Range of values is 0 to 5
  1417                           ; switch strategies available:
  1418                           ; Name         Instructions Cycles
  1419                           ; simple_byte           19    10 (average)
  1420                           ;	Chosen strategy is simple_byte
  1421   00147E  503D               	movf	??_EUSART_Baud_Rate_Calculation^0,w,c
  1422   001480  0A00               	xorlw	0	; case 0
  1423   001482  B4D8               	btfsc	status,2,c
  1424   001484  EF15  F008         	goto	l576
  1425   001488  0A01               	xorlw	1	; case 1
  1426   00148A  B4D8               	btfsc	status,2,c
  1427   00148C  EF6F  F008         	goto	l578
  1428   001490  0A03               	xorlw	3	; case 2
  1429   001492  B4D8               	btfsc	status,2,c
  1430   001494  EFC9  F008         	goto	l579
  1431   001498  0A01               	xorlw	1	; case 3
  1432   00149A  B4D8               	btfsc	status,2,c
  1433   00149C  EF23  F009         	goto	l580
  1434   0014A0  0A07               	xorlw	7	; case 4
  1435   0014A2  B4D8               	btfsc	status,2,c
  1436   0014A4  EF7D  F009         	goto	l581
  1437   0014A8  0A01               	xorlw	1	; case 5
  1438   0014AA  B4D8               	btfsc	status,2,c
  1439   0014AC  EFD6  F009         	goto	l582
  1440   0014B0  EF5A  F00A         	goto	l6517
  1441   0014B4                     l6517:
  1442                           
  1443                           ;MCAL_Layer/EUSART/hal_usart.c: 203:     SPBRG = (uint8)((uint32)Baud_Rate_Temp);
  1444   0014B4  C03F  F004         	movff	EUSART_Baud_Rate_Calculation@Baud_Rate_Temp,___fltol@f1
  1445   0014B8  C040  F005         	movff	EUSART_Baud_Rate_Calculation@Baud_Rate_Temp+1,___fltol@f1+1
  1446   0014BC  C041  F006         	movff	EUSART_Baud_Rate_Calculation@Baud_Rate_Temp+2,___fltol@f1+2
  1447   0014C0  C042  F007         	movff	EUSART_Baud_Rate_Calculation@Baud_Rate_Temp+3,___fltol@f1+3
  1448   0014C4  EC44  F012         	call	___fltol	;wreg free
  1449   0014C8  5004               	movf	?___fltol^0,w,c
  1450   0014CA  6EAF               	movwf	175,c	;volatile
  1451                           
  1452                           ;MCAL_Layer/EUSART/hal_usart.c: 204:     SPBRGH = (uint8)(((uint32)Baud_Rate_Temp) >> 8)
      +                          ;
  1453   0014CC  C03F  F004         	movff	EUSART_Baud_Rate_Calculation@Baud_Rate_Temp,___fltol@f1
  1454   0014D0  C040  F005         	movff	EUSART_Baud_Rate_Calculation@Baud_Rate_Temp+1,___fltol@f1+1
  1455   0014D4  C041  F006         	movff	EUSART_Baud_Rate_Calculation@Baud_Rate_Temp+2,___fltol@f1+2
  1456   0014D8  C042  F007         	movff	EUSART_Baud_Rate_Calculation@Baud_Rate_Temp+3,___fltol@f1+3
  1457   0014DC  EC44  F012         	call	___fltol	;wreg free
  1458   0014E0  C005  F004         	movff	?___fltol+1,?___fltol
  1459   0014E4  C006  F005         	movff	?___fltol+2,?___fltol+1
  1460   0014E8  C007  F006         	movff	?___fltol+3,?___fltol+2
  1461   0014EC  6A07               	clrf	(?___fltol+3)^0,c
  1462   0014EE  5004               	movf	?___fltol^0,w,c
  1463   0014F0  6EB0               	movwf	176,c	;volatile
  1464   0014F2  0012               	return		;funcret
  1465   0014F4                     __end_of_EUSART_Baud_Rate_Calculation:
  1466                           	callstack 0
  1467                           
  1468 ;; *************** function ___xxtofl *****************
  1469 ;; Defined at:
  1470 ;;		line 10 in file "C:\Program Files\Microchip\xc8\v2.40\pic\sources\c99\common\xxtofl.c"
  1471 ;; Parameters:    Size  Location     Type
  1472 ;;  sign            1    wreg     unsigned char 
  1473 ;;  val             4    3[COMRAM] long 
  1474 ;; Auto vars:     Size  Location     Type
  1475 ;;  sign            1   11[COMRAM] unsigned char 
  1476 ;;  arg             4   13[COMRAM] unsigned long 
  1477 ;;  exp             1   12[COMRAM] unsigned char 
  1478 ;; Return value:  Size  Location     Type
  1479 ;;                  4    3[COMRAM] unsigned char 
  1480 ;; Registers used:
  1481 ;;		wreg, status,2, status,0
  1482 ;; Tracked objects:
  1483 ;;		On entry : 0/0
  1484 ;;		On exit  : 0/0
  1485 ;;		Unchanged: 0/0
  1486 ;; Data sizes:     COMRAM   BANK0   BANK1   BANK2   BANK3   BANK4   BANK5   BANK6   BANK7   BANK8   BANK9  BANK10  BANK1
      +1  BANK12  BANK13  BANK14  BANK15
  1487 ;;      Params:         4       0       0       0       0       0       0       0       0       0       0       0       
      +0       0       0       0       0
  1488 ;;      Locals:         6       0       0       0       0       0       0       0       0       0       0       0       
      +0       0       0       0       0
  1489 ;;      Temps:          4       0       0       0       0       0       0       0       0       0       0       0       
      +0       0       0       0       0
  1490 ;;      Totals:        14       0       0       0       0       0       0       0       0       0       0       0       
      +0       0       0       0       0
  1491 ;;Total ram usage:       14 bytes
  1492 ;; Hardware stack levels used: 1
  1493 ;; Hardware stack levels required when called: 3
  1494 ;; This function calls:
  1495 ;;		Nothing
  1496 ;; This function is called by:
  1497 ;;		_EUSART_Baud_Rate_Calculation
  1498 ;; This function uses a non-reentrant model
  1499 ;;
  1500                           
  1501                           	psect	text4
  1502   002064                     __ptext4:
  1503                           	callstack 0
  1504   002064                     ___xxtofl:
  1505                           	callstack 24
  1506                           
  1507                           ;incstack = 0
  1508                           ;___xxtofl@sign stored from wreg
  1509   002064  6E0C               	movwf	___xxtofl@sign^0,c
  1510   002066  500C               	movf	___xxtofl@sign^0,w,c
  1511   002068  B4D8               	btfsc	status,2,c
  1512   00206A  EF39  F010         	goto	u6331
  1513   00206E  EF3B  F010         	goto	u6330
  1514   002072                     u6331:
  1515   002072  EF5D  F010         	goto	l1792
  1516   002076                     u6330:
  1517   002076  BE07               	btfsc	(___xxtofl@val+3)^0,7,c
  1518   002078  EF42  F010         	goto	u6340
  1519   00207C  EF40  F010         	goto	u6341
  1520   002080                     u6341:
  1521   002080  EF5D  F010         	goto	l1792
  1522   002084                     u6340:
  1523   002084  C004  F008         	movff	___xxtofl@val,??___xxtofl
  1524   002088  C005  F009         	movff	___xxtofl@val+1,??___xxtofl+1
  1525   00208C  C006  F00A         	movff	___xxtofl@val+2,??___xxtofl+2
  1526   002090  C007  F00B         	movff	___xxtofl@val+3,??___xxtofl+3
  1527   002094  1E08               	comf	??___xxtofl^0,f,c
  1528   002096  1E09               	comf	(??___xxtofl+1)^0,f,c
  1529   002098  1E0A               	comf	(??___xxtofl+2)^0,f,c
  1530   00209A  1E0B               	comf	(??___xxtofl+3)^0,f,c
  1531   00209C  2A08               	incf	??___xxtofl^0,f,c
  1532   00209E  0E00               	movlw	0
  1533   0020A0  2209               	addwfc	(??___xxtofl+1)^0,f,c
  1534   0020A2  220A               	addwfc	(??___xxtofl+2)^0,f,c
  1535   0020A4  220B               	addwfc	(??___xxtofl+3)^0,f,c
  1536   0020A6  C008  F00E         	movff	??___xxtofl,___xxtofl@arg
  1537   0020AA  C009  F00F         	movff	??___xxtofl+1,___xxtofl@arg+1
  1538   0020AE  C00A  F010         	movff	??___xxtofl+2,___xxtofl@arg+2
  1539   0020B2  C00B  F011         	movff	??___xxtofl+3,___xxtofl@arg+3
  1540   0020B6  EF65  F010         	goto	l6409
  1541   0020BA                     l1792:
  1542   0020BA  C004  F00E         	movff	___xxtofl@val,___xxtofl@arg
  1543   0020BE  C005  F00F         	movff	___xxtofl@val+1,___xxtofl@arg+1
  1544   0020C2  C006  F010         	movff	___xxtofl@val+2,___xxtofl@arg+2
  1545   0020C6  C007  F011         	movff	___xxtofl@val+3,___xxtofl@arg+3
  1546   0020CA                     l6409:
  1547   0020CA  5004               	movf	___xxtofl@val^0,w,c
  1548   0020CC  1005               	iorwf	(___xxtofl@val+1)^0,w,c
  1549   0020CE  1006               	iorwf	(___xxtofl@val+2)^0,w,c
  1550   0020D0  1007               	iorwf	(___xxtofl@val+3)^0,w,c
  1551   0020D2  A4D8               	btfss	status,2,c
  1552   0020D4  EF6E  F010         	goto	u6351
  1553   0020D8  EF70  F010         	goto	u6350
  1554   0020DC                     u6351:
  1555   0020DC  EF7A  F010         	goto	l6415
  1556   0020E0                     u6350:
  1557   0020E0  0E00               	movlw	0
  1558   0020E2  6E04               	movwf	?___xxtofl^0,c
  1559   0020E4  0E00               	movlw	0
  1560   0020E6  6E05               	movwf	(?___xxtofl+1)^0,c
  1561   0020E8  0E00               	movlw	0
  1562   0020EA  6E06               	movwf	(?___xxtofl+2)^0,c
  1563   0020EC  0E00               	movlw	0
  1564   0020EE  6E07               	movwf	(?___xxtofl+3)^0,c
  1565   0020F0  EF0B  F011         	goto	l1795
  1566   0020F4                     l6415:
  1567   0020F4  0E96               	movlw	150
  1568   0020F6  6E0D               	movwf	___xxtofl@exp^0,c
  1569   0020F8  EF84  F010         	goto	l6419
  1570   0020FC                     l6417:
  1571   0020FC  2A0D               	incf	___xxtofl@exp^0,f,c
  1572   0020FE  90D8               	bcf	status,0,c
  1573   002100  3211               	rrcf	(___xxtofl@arg+3)^0,f,c
  1574   002102  3210               	rrcf	(___xxtofl@arg+2)^0,f,c
  1575   002104  320F               	rrcf	(___xxtofl@arg+1)^0,f,c
  1576   002106  320E               	rrcf	___xxtofl@arg^0,f,c
  1577   002108                     l6419:
  1578   002108  0E00               	movlw	0
  1579   00210A  140E               	andwf	___xxtofl@arg^0,w,c
  1580   00210C  6E08               	movwf	??___xxtofl^0,c
  1581   00210E  0E00               	movlw	0
  1582   002110  140F               	andwf	(___xxtofl@arg+1)^0,w,c
  1583   002112  6E09               	movwf	(??___xxtofl+1)^0,c
  1584   002114  0E00               	movlw	0
  1585   002116  1410               	andwf	(___xxtofl@arg+2)^0,w,c
  1586   002118  6E0A               	movwf	(??___xxtofl+2)^0,c
  1587   00211A  0EFE               	movlw	254
  1588   00211C  1411               	andwf	(___xxtofl@arg+3)^0,w,c
  1589   00211E  6E0B               	movwf	(??___xxtofl+3)^0,c
  1590   002120  5008               	movf	??___xxtofl^0,w,c
  1591   002122  1009               	iorwf	(??___xxtofl+1)^0,w,c
  1592   002124  100A               	iorwf	(??___xxtofl+2)^0,w,c
  1593   002126  100B               	iorwf	(??___xxtofl+3)^0,w,c
  1594   002128  A4D8               	btfss	status,2,c
  1595   00212A  EF99  F010         	goto	u6361
  1596   00212E  EF9B  F010         	goto	u6360
  1597   002132                     u6361:
  1598   002132  EF7E  F010         	goto	l6417
  1599   002136                     u6360:
  1600   002136  EFA9  F010         	goto	l1799
  1601   00213A                     l6421:
  1602   00213A  2A0D               	incf	___xxtofl@exp^0,f,c
  1603   00213C  0E01               	movlw	1
  1604   00213E  260E               	addwf	___xxtofl@arg^0,f,c
  1605   002140  0E00               	movlw	0
  1606   002142  220F               	addwfc	(___xxtofl@arg+1)^0,f,c
  1607   002144  2210               	addwfc	(___xxtofl@arg+2)^0,f,c
  1608   002146  2211               	addwfc	(___xxtofl@arg+3)^0,f,c
  1609   002148  90D8               	bcf	status,0,c
  1610   00214A  3211               	rrcf	(___xxtofl@arg+3)^0,f,c
  1611   00214C  3210               	rrcf	(___xxtofl@arg+2)^0,f,c
  1612   00214E  320F               	rrcf	(___xxtofl@arg+1)^0,f,c
  1613   002150  320E               	rrcf	___xxtofl@arg^0,f,c
  1614   002152                     l1799:
  1615   002152  0E00               	movlw	0
  1616   002154  140E               	andwf	___xxtofl@arg^0,w,c
  1617   002156  6E08               	movwf	??___xxtofl^0,c
  1618   002158  0E00               	movlw	0
  1619   00215A  140F               	andwf	(___xxtofl@arg+1)^0,w,c
  1620   00215C  6E09               	movwf	(??___xxtofl+1)^0,c
  1621   00215E  0E00               	movlw	0
  1622   002160  1410               	andwf	(___xxtofl@arg+2)^0,w,c
  1623   002162  6E0A               	movwf	(??___xxtofl+2)^0,c
  1624   002164  0EFF               	movlw	255
  1625   002166  1411               	andwf	(___xxtofl@arg+3)^0,w,c
  1626   002168  6E0B               	movwf	(??___xxtofl+3)^0,c
  1627   00216A  5008               	movf	??___xxtofl^0,w,c
  1628   00216C  1009               	iorwf	(??___xxtofl+1)^0,w,c
  1629   00216E  100A               	iorwf	(??___xxtofl+2)^0,w,c
  1630   002170  100B               	iorwf	(??___xxtofl+3)^0,w,c
  1631   002172  A4D8               	btfss	status,2,c
  1632   002174  EFBE  F010         	goto	u6371
  1633   002178  EFC0  F010         	goto	u6370
  1634   00217C                     u6371:
  1635   00217C  EF9D  F010         	goto	l6421
  1636   002180                     u6370:
  1637   002180  EFC8  F010         	goto	l6429
  1638   002184                     l6427:
  1639   002184  060D               	decf	___xxtofl@exp^0,f,c
  1640   002186  90D8               	bcf	status,0,c
  1641   002188  360E               	rlcf	___xxtofl@arg^0,f,c
  1642   00218A  360F               	rlcf	(___xxtofl@arg+1)^0,f,c
  1643   00218C  3610               	rlcf	(___xxtofl@arg+2)^0,f,c
  1644   00218E  3611               	rlcf	(___xxtofl@arg+3)^0,f,c
  1645   002190                     l6429:
  1646   002190  BE10               	btfsc	(___xxtofl@arg+2)^0,7,c
  1647   002192  EFCD  F010         	goto	u6381
  1648   002196  EFCF  F010         	goto	u6380
  1649   00219A                     u6381:
  1650   00219A  EFD7  F010         	goto	l1806
  1651   00219E                     u6380:
  1652   00219E  0E02               	movlw	2
  1653   0021A0  600D               	cpfslt	___xxtofl@exp^0,c
  1654   0021A2  EFD5  F010         	goto	u6391
  1655   0021A6  EFD7  F010         	goto	u6390
  1656   0021AA                     u6391:
  1657   0021AA  EFC2  F010         	goto	l6427
  1658   0021AE                     u6390:
  1659   0021AE                     l1806:
  1660   0021AE  B00D               	btfsc	___xxtofl@exp^0,0,c
  1661   0021B0  EFDC  F010         	goto	u6401
  1662   0021B4  EFDE  F010         	goto	u6400
  1663   0021B8                     u6401:
  1664   0021B8  EFDF  F010         	goto	l6435
  1665   0021BC                     u6400:
  1666   0021BC  9E10               	bcf	(___xxtofl@arg+2)^0,7,c
  1667   0021BE                     l6435:
  1668   0021BE  90D8               	bcf	status,0,c
  1669   0021C0  320D               	rrcf	___xxtofl@exp^0,f,c
  1670   0021C2  C00D  F008         	movff	___xxtofl@exp,??___xxtofl
  1671   0021C6  6A09               	clrf	(??___xxtofl+1)^0,c
  1672   0021C8  6A0A               	clrf	(??___xxtofl+2)^0,c
  1673   0021CA  6A0B               	clrf	(??___xxtofl+3)^0,c
  1674   0021CC  C008  F00B         	movff	??___xxtofl,??___xxtofl+3
  1675   0021D0  6A0A               	clrf	(??___xxtofl+2)^0,c
  1676   0021D2  6A09               	clrf	(??___xxtofl+1)^0,c
  1677   0021D4  6A08               	clrf	??___xxtofl^0,c
  1678   0021D6  5008               	movf	??___xxtofl^0,w,c
  1679   0021D8  120E               	iorwf	___xxtofl@arg^0,f,c
  1680   0021DA  5009               	movf	(??___xxtofl+1)^0,w,c
  1681   0021DC  120F               	iorwf	(___xxtofl@arg+1)^0,f,c
  1682   0021DE  500A               	movf	(??___xxtofl+2)^0,w,c
  1683   0021E0  1210               	iorwf	(___xxtofl@arg+2)^0,f,c
  1684   0021E2  500B               	movf	(??___xxtofl+3)^0,w,c
  1685   0021E4  1211               	iorwf	(___xxtofl@arg+3)^0,f,c
  1686   0021E6  500C               	movf	___xxtofl@sign^0,w,c
  1687   0021E8  B4D8               	btfsc	status,2,c
  1688   0021EA  EFF9  F010         	goto	u6411
  1689   0021EE  EFFB  F010         	goto	u6410
  1690   0021F2                     u6411:
  1691   0021F2  EF03  F011         	goto	l6445
  1692   0021F6                     u6410:
  1693   0021F6  BE07               	btfsc	(___xxtofl@val+3)^0,7,c
  1694   0021F8  EF02  F011         	goto	u6420
  1695   0021FC  EF00  F011         	goto	u6421
  1696   002200                     u6421:
  1697   002200  EF03  F011         	goto	l6445
  1698   002204                     u6420:
  1699   002204  8E11               	bsf	(___xxtofl@arg+3)^0,7,c
  1700   002206                     l6445:
  1701   002206  C00E  F004         	movff	___xxtofl@arg,?___xxtofl
  1702   00220A  C00F  F005         	movff	___xxtofl@arg+1,?___xxtofl+1
  1703   00220E  C010  F006         	movff	___xxtofl@arg+2,?___xxtofl+2
  1704   002212  C011  F007         	movff	___xxtofl@arg+3,?___xxtofl+3
  1705   002216                     l1795:
  1706   002216  0012               	return		;funcret
  1707   002218                     __end_of___xxtofl:
  1708                           	callstack 0
  1709                           
  1710 ;; *************** function ___fltol *****************
  1711 ;; Defined at:
  1712 ;;		line 43 in file "C:\Program Files\Microchip\xc8\v2.40\pic\sources\c99\common\fltol.c"
  1713 ;; Parameters:    Size  Location     Type
  1714 ;;  f1              4    3[COMRAM] unsigned char 
  1715 ;; Auto vars:     Size  Location     Type
  1716 ;;  exp1            1   12[COMRAM] unsigned char 
  1717 ;;  sign1           1   11[COMRAM] unsigned char 
  1718 ;; Return value:  Size  Location     Type
  1719 ;;                  4    3[COMRAM] long 
  1720 ;; Registers used:
  1721 ;;		wreg, status,2, status,0
  1722 ;; Tracked objects:
  1723 ;;		On entry : 0/0
  1724 ;;		On exit  : 0/0
  1725 ;;		Unchanged: 0/0
  1726 ;; Data sizes:     COMRAM   BANK0   BANK1   BANK2   BANK3   BANK4   BANK5   BANK6   BANK7   BANK8   BANK9  BANK10  BANK1
      +1  BANK12  BANK13  BANK14  BANK15
  1727 ;;      Params:         4       0       0       0       0       0       0       0       0       0       0       0       
      +0       0       0       0       0
  1728 ;;      Locals:         2       0       0       0       0       0       0       0       0       0       0       0       
      +0       0       0       0       0
  1729 ;;      Temps:          4       0       0       0       0       0       0       0       0       0       0       0       
      +0       0       0       0       0
  1730 ;;      Totals:        10       0       0       0       0       0       0       0       0       0       0       0       
      +0       0       0       0       0
  1731 ;;Total ram usage:       10 bytes
  1732 ;; Hardware stack levels used: 1
  1733 ;; Hardware stack levels required when called: 3
  1734 ;; This function calls:
  1735 ;;		Nothing
  1736 ;; This function is called by:
  1737 ;;		_EUSART_Baud_Rate_Calculation
  1738 ;; This function uses a non-reentrant model
  1739 ;;
  1740                           
  1741                           	psect	text5
  1742   002488                     __ptext5:
  1743                           	callstack 0
  1744   002488                     ___fltol:
  1745                           	callstack 24
  1746   002488  3406               	rlcf	(___fltol@f1+2)^0,w,c
  1747   00248A  3407               	rlcf	(___fltol@f1+3)^0,w,c
  1748   00248C  6E0D               	movwf	___fltol@exp1^0,c
  1749   00248E  500D               	movf	___fltol@exp1^0,w,c
  1750   002490  A4D8               	btfss	status,2,c
  1751   002492  EF4D  F012         	goto	u6261
  1752   002496  EF4F  F012         	goto	u6260
  1753   00249A                     u6261:
  1754   00249A  EF59  F012         	goto	l6365
  1755   00249E                     u6260:
  1756   00249E                     l6361:
  1757   00249E  0E00               	movlw	0
  1758   0024A0  6E04               	movwf	?___fltol^0,c
  1759   0024A2  0E00               	movlw	0
  1760   0024A4  6E05               	movwf	(?___fltol+1)^0,c
  1761   0024A6  0E00               	movlw	0
  1762   0024A8  6E06               	movwf	(?___fltol+2)^0,c
  1763   0024AA  0E00               	movlw	0
  1764   0024AC  6E07               	movwf	(?___fltol+3)^0,c
  1765   0024AE  EFC6  F012         	goto	l1434
  1766   0024B2                     l6365:
  1767   0024B2  C004  F008         	movff	___fltol@f1,??___fltol
  1768   0024B6  C005  F009         	movff	___fltol@f1+1,??___fltol+1
  1769   0024BA  C006  F00A         	movff	___fltol@f1+2,??___fltol+2
  1770   0024BE  C007  F00B         	movff	___fltol@f1+3,??___fltol+3
  1771   0024C2  0E20               	movlw	32
  1772   0024C4  EF69  F012         	goto	u6270
  1773   0024C8                     u6275:
  1774   0024C8  90D8               	bcf	status,0,c
  1775   0024CA  320B               	rrcf	(??___fltol+3)^0,f,c
  1776   0024CC  320A               	rrcf	(??___fltol+2)^0,f,c
  1777   0024CE  3209               	rrcf	(??___fltol+1)^0,f,c
  1778   0024D0  3208               	rrcf	??___fltol^0,f,c
  1779   0024D2                     u6270:
  1780   0024D2  2EE8               	decfsz	wreg,f,c
  1781   0024D4  EF64  F012         	goto	u6275
  1782   0024D8  5008               	movf	??___fltol^0,w,c
  1783   0024DA  6E0C               	movwf	___fltol@sign1^0,c
  1784   0024DC  8E06               	bsf	(___fltol@f1+2)^0,7,c
  1785   0024DE  0EFF               	movlw	255
  1786   0024E0  1604               	andwf	___fltol@f1^0,f,c
  1787   0024E2  0EFF               	movlw	255
  1788   0024E4  1605               	andwf	(___fltol@f1+1)^0,f,c
  1789   0024E6  0EFF               	movlw	255
  1790   0024E8  1606               	andwf	(___fltol@f1+2)^0,f,c
  1791   0024EA  0E00               	movlw	0
  1792   0024EC  1607               	andwf	(___fltol@f1+3)^0,f,c
  1793   0024EE  0E96               	movlw	150
  1794   0024F0  5E0D               	subwf	___fltol@exp1^0,f,c
  1795   0024F2  BE0D               	btfsc	___fltol@exp1^0,7,c
  1796   0024F4  EF80  F012         	goto	u6280
  1797   0024F8  EF7E  F012         	goto	u6281
  1798   0024FC                     u6281:
  1799   0024FC  EF96  F012         	goto	l6385
  1800   002500                     u6280:
  1801   002500  500D               	movf	___fltol@exp1^0,w,c
  1802   002502  0A80               	xorlw	128
  1803   002504  0F97               	addlw	151
  1804   002506  B0D8               	btfsc	status,0,c
  1805   002508  EF88  F012         	goto	u6291
  1806   00250C  EF8A  F012         	goto	u6290
  1807   002510                     u6291:
  1808   002510  EF8C  F012         	goto	l6381
  1809   002514                     u6290:
  1810   002514  EF4F  F012         	goto	l6361
  1811   002518                     l6381:
  1812   002518  90D8               	bcf	status,0,c
  1813   00251A  3207               	rrcf	(___fltol@f1+3)^0,f,c
  1814   00251C  3206               	rrcf	(___fltol@f1+2)^0,f,c
  1815   00251E  3205               	rrcf	(___fltol@f1+1)^0,f,c
  1816   002520  3204               	rrcf	___fltol@f1^0,f,c
  1817   002522  3E0D               	incfsz	___fltol@exp1^0,f,c
  1818   002524  EF8C  F012         	goto	l6381
  1819   002528  EFAE  F012         	goto	l6395
  1820   00252C                     l6385:
  1821   00252C  0E1F               	movlw	31
  1822   00252E  640D               	cpfsgt	___fltol@exp1^0,c
  1823   002530  EF9C  F012         	goto	u6301
  1824   002534  EF9E  F012         	goto	u6300
  1825   002538                     u6301:
  1826   002538  EFA6  F012         	goto	l6393
  1827   00253C                     u6300:
  1828   00253C  EF4F  F012         	goto	l6361
  1829   002540                     l6391:
  1830   002540  90D8               	bcf	status,0,c
  1831   002542  3604               	rlcf	___fltol@f1^0,f,c
  1832   002544  3605               	rlcf	(___fltol@f1+1)^0,f,c
  1833   002546  3606               	rlcf	(___fltol@f1+2)^0,f,c
  1834   002548  3607               	rlcf	(___fltol@f1+3)^0,f,c
  1835   00254A  060D               	decf	___fltol@exp1^0,f,c
  1836   00254C                     l6393:
  1837   00254C  500D               	movf	___fltol@exp1^0,w,c
  1838   00254E  A4D8               	btfss	status,2,c
  1839   002550  EFAC  F012         	goto	u6311
  1840   002554  EFAE  F012         	goto	u6310
  1841   002558                     u6311:
  1842   002558  EFA0  F012         	goto	l6391
  1843   00255C                     u6310:
  1844   00255C                     l6395:
  1845   00255C  500C               	movf	___fltol@sign1^0,w,c
  1846   00255E  B4D8               	btfsc	status,2,c
  1847   002560  EFB4  F012         	goto	u6321
  1848   002564  EFB6  F012         	goto	u6320
  1849   002568                     u6321:
  1850   002568  EFBE  F012         	goto	l6399
  1851   00256C                     u6320:
  1852   00256C  1E07               	comf	(___fltol@f1+3)^0,f,c
  1853   00256E  1E06               	comf	(___fltol@f1+2)^0,f,c
  1854   002570  1E05               	comf	(___fltol@f1+1)^0,f,c
  1855   002572  6C04               	negf	___fltol@f1^0,c
  1856   002574  0E00               	movlw	0
  1857   002576  2205               	addwfc	(___fltol@f1+1)^0,f,c
  1858   002578  2206               	addwfc	(___fltol@f1+2)^0,f,c
  1859   00257A  2207               	addwfc	(___fltol@f1+3)^0,f,c
  1860   00257C                     l6399:
  1861   00257C  C004  F004         	movff	___fltol@f1,?___fltol
  1862   002580  C005  F005         	movff	___fltol@f1+1,?___fltol+1
  1863   002584  C006  F006         	movff	___fltol@f1+2,?___fltol+2
  1864   002588  C007  F007         	movff	___fltol@f1+3,?___fltol+3
  1865   00258C                     l1434:
  1866   00258C  0012               	return		;funcret
  1867   00258E                     __end_of___fltol:
  1868                           	callstack 0
  1869                           
  1870 ;; *************** function ___fldiv *****************
  1871 ;; Defined at:
  1872 ;;		line 11 in file "C:\Program Files\Microchip\xc8\v2.40\pic\sources\c99\common\sprcdiv.c"
  1873 ;; Parameters:    Size  Location     Type
  1874 ;;  b               4   17[COMRAM] long 
  1875 ;;  a               4   21[COMRAM] long 
  1876 ;; Auto vars:     Size  Location     Type
  1877 ;;  grs             4   36[COMRAM] unsigned long 
  1878 ;;  rem             4   29[COMRAM] unsigned long 
  1879 ;;  new_exp         2   34[COMRAM] short 
  1880 ;;  aexp            1   41[COMRAM] unsigned char 
  1881 ;;  bexp            1   40[COMRAM] unsigned char 
  1882 ;;  sign            1   33[COMRAM] unsigned char 
  1883 ;; Return value:  Size  Location     Type
  1884 ;;                  4   17[COMRAM] unsigned char 
  1885 ;; Registers used:
  1886 ;;		wreg, status,2, status,0
  1887 ;; Tracked objects:
  1888 ;;		On entry : 0/0
  1889 ;;		On exit  : 0/0
  1890 ;;		Unchanged: 0/0
  1891 ;; Data sizes:     COMRAM   BANK0   BANK1   BANK2   BANK3   BANK4   BANK5   BANK6   BANK7   BANK8   BANK9  BANK10  BANK1
      +1  BANK12  BANK13  BANK14  BANK15
  1892 ;;      Params:         8       0       0       0       0       0       0       0       0       0       0       0       
      +0       0       0       0       0
  1893 ;;      Locals:        13       0       0       0       0       0       0       0       0       0       0       0       
      +0       0       0       0       0
  1894 ;;      Temps:          4       0       0       0       0       0       0       0       0       0       0       0       
      +0       0       0       0       0
  1895 ;;      Totals:        25       0       0       0       0       0       0       0       0       0       0       0       
      +0       0       0       0       0
  1896 ;;Total ram usage:       25 bytes
  1897 ;; Hardware stack levels used: 1
  1898 ;; Hardware stack levels required when called: 3
  1899 ;; This function calls:
  1900 ;;		Nothing
  1901 ;; This function is called by:
  1902 ;;		_EUSART_Baud_Rate_Calculation
  1903 ;; This function uses a non-reentrant model
  1904 ;;
  1905                           
  1906                           	psect	text6
  1907   0019B4                     __ptext6:
  1908                           	callstack 0
  1909   0019B4                     ___fldiv:
  1910                           	callstack 24
  1911   0019B4  5015               	movf	(___fldiv@b+3)^0,w,c
  1912   0019B6  0B80               	andlw	128
  1913   0019B8  6E22               	movwf	___fldiv@sign^0,c
  1914   0019BA  5015               	movf	(___fldiv@b+3)^0,w,c
  1915   0019BC  2415               	addwf	(___fldiv@b+3)^0,w,c
  1916   0019BE  6E29               	movwf	___fldiv@bexp^0,c
  1917   0019C0  AE14               	btfss	(___fldiv@b+2)^0,7,c
  1918   0019C2  EFE5  F00C         	goto	u6031
  1919   0019C6  EFE7  F00C         	goto	u6030
  1920   0019CA                     u6031:
  1921   0019CA  EFE8  F00C         	goto	l6227
  1922   0019CE                     u6030:
  1923   0019CE  8029               	bsf	___fldiv@bexp^0,0,c
  1924   0019D0                     l6227:
  1925   0019D0  5029               	movf	___fldiv@bexp^0,w,c
  1926   0019D2  B4D8               	btfsc	status,2,c
  1927   0019D4  EFEE  F00C         	goto	u6041
  1928   0019D8  EFF0  F00C         	goto	u6040
  1929   0019DC                     u6041:
  1930   0019DC  EF05  F00D         	goto	l6237
  1931   0019E0                     u6040:
  1932   0019E0  2829               	incf	___fldiv@bexp^0,w,c
  1933   0019E2  A4D8               	btfss	status,2,c
  1934   0019E4  EFF6  F00C         	goto	u6051
  1935   0019E8  EFF8  F00C         	goto	u6050
  1936   0019EC                     u6051:
  1937   0019EC  EF00  F00D         	goto	l6233
  1938   0019F0                     u6050:
  1939   0019F0  0E00               	movlw	0
  1940   0019F2  6E12               	movwf	___fldiv@b^0,c
  1941   0019F4  0E00               	movlw	0
  1942   0019F6  6E13               	movwf	(___fldiv@b+1)^0,c
  1943   0019F8  0E00               	movlw	0
  1944   0019FA  6E14               	movwf	(___fldiv@b+2)^0,c
  1945   0019FC  0E00               	movlw	0
  1946   0019FE  6E15               	movwf	(___fldiv@b+3)^0,c
  1947   001A00                     l6233:
  1948   001A00  8E14               	bsf	(___fldiv@b+2)^0,7,c
  1949   001A02  0E00               	movlw	0
  1950   001A04  6E15               	movwf	(___fldiv@b+3)^0,c
  1951   001A06  EF0D  F00D         	goto	l6239
  1952   001A0A                     l6237:
  1953   001A0A  0E00               	movlw	0
  1954   001A0C  6E12               	movwf	___fldiv@b^0,c
  1955   001A0E  0E00               	movlw	0
  1956   001A10  6E13               	movwf	(___fldiv@b+1)^0,c
  1957   001A12  0E00               	movlw	0
  1958   001A14  6E14               	movwf	(___fldiv@b+2)^0,c
  1959   001A16  0E00               	movlw	0
  1960   001A18  6E15               	movwf	(___fldiv@b+3)^0,c
  1961   001A1A                     l6239:
  1962   001A1A  5019               	movf	(___fldiv@a+3)^0,w,c
  1963   001A1C  0B80               	andlw	128
  1964   001A1E  1A22               	xorwf	___fldiv@sign^0,f,c
  1965   001A20  5019               	movf	(___fldiv@a+3)^0,w,c
  1966   001A22  2419               	addwf	(___fldiv@a+3)^0,w,c
  1967   001A24  6E2A               	movwf	___fldiv@aexp^0,c
  1968   001A26  AE18               	btfss	(___fldiv@a+2)^0,7,c
  1969   001A28  EF18  F00D         	goto	u6061
  1970   001A2C  EF1A  F00D         	goto	u6060
  1971   001A30                     u6061:
  1972   001A30  EF1B  F00D         	goto	l6247
  1973   001A34                     u6060:
  1974   001A34  802A               	bsf	___fldiv@aexp^0,0,c
  1975   001A36                     l6247:
  1976   001A36  502A               	movf	___fldiv@aexp^0,w,c
  1977   001A38  B4D8               	btfsc	status,2,c
  1978   001A3A  EF21  F00D         	goto	u6071
  1979   001A3E  EF23  F00D         	goto	u6070
  1980   001A42                     u6071:
  1981   001A42  EF38  F00D         	goto	l6257
  1982   001A46                     u6070:
  1983   001A46  282A               	incf	___fldiv@aexp^0,w,c
  1984   001A48  A4D8               	btfss	status,2,c
  1985   001A4A  EF29  F00D         	goto	u6081
  1986   001A4E  EF2B  F00D         	goto	u6080
  1987   001A52                     u6081:
  1988   001A52  EF33  F00D         	goto	l6253
  1989   001A56                     u6080:
  1990   001A56  0E00               	movlw	0
  1991   001A58  6E16               	movwf	___fldiv@a^0,c
  1992   001A5A  0E00               	movlw	0
  1993   001A5C  6E17               	movwf	(___fldiv@a+1)^0,c
  1994   001A5E  0E00               	movlw	0
  1995   001A60  6E18               	movwf	(___fldiv@a+2)^0,c
  1996   001A62  0E00               	movlw	0
  1997   001A64  6E19               	movwf	(___fldiv@a+3)^0,c
  1998   001A66                     l6253:
  1999   001A66  8E18               	bsf	(___fldiv@a+2)^0,7,c
  2000   001A68  0E00               	movlw	0
  2001   001A6A  6E19               	movwf	(___fldiv@a+3)^0,c
  2002   001A6C  EF40  F00D         	goto	l6259
  2003   001A70                     l6257:
  2004   001A70  0E00               	movlw	0
  2005   001A72  6E16               	movwf	___fldiv@a^0,c
  2006   001A74  0E00               	movlw	0
  2007   001A76  6E17               	movwf	(___fldiv@a+1)^0,c
  2008   001A78  0E00               	movlw	0
  2009   001A7A  6E18               	movwf	(___fldiv@a+2)^0,c
  2010   001A7C  0E00               	movlw	0
  2011   001A7E  6E19               	movwf	(___fldiv@a+3)^0,c
  2012   001A80                     l6259:
  2013   001A80  5016               	movf	___fldiv@a^0,w,c
  2014   001A82  1017               	iorwf	(___fldiv@a+1)^0,w,c
  2015   001A84  1018               	iorwf	(___fldiv@a+2)^0,w,c
  2016   001A86  1019               	iorwf	(___fldiv@a+3)^0,w,c
  2017   001A88  A4D8               	btfss	status,2,c
  2018   001A8A  EF49  F00D         	goto	u6091
  2019   001A8E  EF4B  F00D         	goto	u6090
  2020   001A92                     u6091:
  2021   001A92  EF63  F00D         	goto	l6271
  2022   001A96                     u6090:
  2023   001A96  0E00               	movlw	0
  2024   001A98  6E12               	movwf	___fldiv@b^0,c
  2025   001A9A  0E00               	movlw	0
  2026   001A9C  6E13               	movwf	(___fldiv@b+1)^0,c
  2027   001A9E  0E00               	movlw	0
  2028   001AA0  6E14               	movwf	(___fldiv@b+2)^0,c
  2029   001AA2  0E00               	movlw	0
  2030   001AA4  6E15               	movwf	(___fldiv@b+3)^0,c
  2031   001AA6  0E80               	movlw	128
  2032   001AA8  1214               	iorwf	(___fldiv@b+2)^0,f,c
  2033   001AAA  0E7F               	movlw	127
  2034   001AAC  1215               	iorwf	(___fldiv@b+3)^0,f,c
  2035   001AAE                     l6265:
  2036   001AAE  5022               	movf	___fldiv@sign^0,w,c
  2037   001AB0  1215               	iorwf	(___fldiv@b+3)^0,f,c
  2038   001AB2  C012  F012         	movff	___fldiv@b,?___fldiv
  2039   001AB6  C013  F013         	movff	___fldiv@b+1,?___fldiv+1
  2040   001ABA  C014  F014         	movff	___fldiv@b+2,?___fldiv+2
  2041   001ABE  C015  F015         	movff	___fldiv@b+3,?___fldiv+3
  2042   001AC2  EFA6  F00E         	goto	l1719
  2043   001AC6                     l6271:
  2044   001AC6  5029               	movf	___fldiv@bexp^0,w,c
  2045   001AC8  A4D8               	btfss	status,2,c
  2046   001ACA  EF69  F00D         	goto	u6101
  2047   001ACE  EF6B  F00D         	goto	u6100
  2048   001AD2                     u6101:
  2049   001AD2  EF75  F00D         	goto	l6279
  2050   001AD6                     u6100:
  2051   001AD6  0E00               	movlw	0
  2052   001AD8  6E12               	movwf	?___fldiv^0,c
  2053   001ADA  0E00               	movlw	0
  2054   001ADC  6E13               	movwf	(?___fldiv+1)^0,c
  2055   001ADE  0E00               	movlw	0
  2056   001AE0  6E14               	movwf	(?___fldiv+2)^0,c
  2057   001AE2  0E00               	movlw	0
  2058   001AE4  6E15               	movwf	(?___fldiv+3)^0,c
  2059   001AE6  EFA6  F00E         	goto	l1719
  2060   001AEA                     l6279:
  2061   001AEA  502A               	movf	___fldiv@aexp^0,w,c
  2062   001AEC  C029  F01A         	movff	___fldiv@bexp,??___fldiv
  2063   001AF0  6A1B               	clrf	(??___fldiv+1)^0,c
  2064   001AF2  5E1A               	subwf	??___fldiv^0,f,c
  2065   001AF4  0E00               	movlw	0
  2066   001AF6  5A1B               	subwfb	(??___fldiv+1)^0,f,c
  2067   001AF8  0E7F               	movlw	127
  2068   001AFA  241A               	addwf	??___fldiv^0,w,c
  2069   001AFC  6E23               	movwf	___fldiv@new_exp^0,c
  2070   001AFE  0E00               	movlw	0
  2071   001B00  201B               	addwfc	(??___fldiv+1)^0,w,c
  2072   001B02  6E24               	movwf	(___fldiv@new_exp+1)^0,c
  2073   001B04  C012  F01E         	movff	___fldiv@b,___fldiv@rem
  2074   001B08  C013  F01F         	movff	___fldiv@b+1,___fldiv@rem+1
  2075   001B0C  C014  F020         	movff	___fldiv@b+2,___fldiv@rem+2
  2076   001B10  C015  F021         	movff	___fldiv@b+3,___fldiv@rem+3
  2077   001B14  0E00               	movlw	0
  2078   001B16  6E12               	movwf	___fldiv@b^0,c
  2079   001B18  0E00               	movlw	0
  2080   001B1A  6E13               	movwf	(___fldiv@b+1)^0,c
  2081   001B1C  0E00               	movlw	0
  2082   001B1E  6E14               	movwf	(___fldiv@b+2)^0,c
  2083   001B20  0E00               	movlw	0
  2084   001B22  6E15               	movwf	(___fldiv@b+3)^0,c
  2085   001B24  0E00               	movlw	0
  2086   001B26  6E25               	movwf	___fldiv@grs^0,c
  2087   001B28  0E00               	movlw	0
  2088   001B2A  6E26               	movwf	(___fldiv@grs+1)^0,c
  2089   001B2C  0E00               	movlw	0
  2090   001B2E  6E27               	movwf	(___fldiv@grs+2)^0,c
  2091   001B30  0E00               	movlw	0
  2092   001B32  6E28               	movwf	(___fldiv@grs+3)^0,c
  2093   001B34  0E00               	movlw	0
  2094   001B36  6E2A               	movwf	___fldiv@aexp^0,c
  2095   001B38  EFD6  F00D         	goto	l1721
  2096   001B3C                     l6289:
  2097   001B3C  502A               	movf	___fldiv@aexp^0,w,c
  2098   001B3E  B4D8               	btfsc	status,2,c
  2099   001B40  EFA4  F00D         	goto	u6111
  2100   001B44  EFA6  F00D         	goto	u6110
  2101   001B48                     u6111:
  2102   001B48  EFBD  F00D         	goto	l6297
  2103   001B4C                     u6110:
  2104   001B4C  90D8               	bcf	status,0,c
  2105   001B4E  361E               	rlcf	___fldiv@rem^0,f,c
  2106   001B50  361F               	rlcf	(___fldiv@rem+1)^0,f,c
  2107   001B52  3620               	rlcf	(___fldiv@rem+2)^0,f,c
  2108   001B54  3621               	rlcf	(___fldiv@rem+3)^0,f,c
  2109   001B56  90D8               	bcf	status,0,c
  2110   001B58  3612               	rlcf	___fldiv@b^0,f,c
  2111   001B5A  3613               	rlcf	(___fldiv@b+1)^0,f,c
  2112   001B5C  3614               	rlcf	(___fldiv@b+2)^0,f,c
  2113   001B5E  3615               	rlcf	(___fldiv@b+3)^0,f,c
  2114   001B60  AE28               	btfss	(___fldiv@grs+3)^0,7,c
  2115   001B62  EFB5  F00D         	goto	u6121
  2116   001B66  EFB7  F00D         	goto	u6120
  2117   001B6A                     u6121:
  2118   001B6A  EFB8  F00D         	goto	l1724
  2119   001B6E                     u6120:
  2120   001B6E  8012               	bsf	___fldiv@b^0,0,c
  2121   001B70                     l1724:
  2122   001B70  90D8               	bcf	status,0,c
  2123   001B72  3625               	rlcf	___fldiv@grs^0,f,c
  2124   001B74  3626               	rlcf	(___fldiv@grs+1)^0,f,c
  2125   001B76  3627               	rlcf	(___fldiv@grs+2)^0,f,c
  2126   001B78  3628               	rlcf	(___fldiv@grs+3)^0,f,c
  2127   001B7A                     l6297:
  2128   001B7A  5016               	movf	___fldiv@a^0,w,c
  2129   001B7C  5C1E               	subwf	___fldiv@rem^0,w,c
  2130   001B7E  5017               	movf	(___fldiv@a+1)^0,w,c
  2131   001B80  581F               	subwfb	(___fldiv@rem+1)^0,w,c
  2132   001B82  5018               	movf	(___fldiv@a+2)^0,w,c
  2133   001B84  5820               	subwfb	(___fldiv@rem+2)^0,w,c
  2134   001B86  5019               	movf	(___fldiv@a+3)^0,w,c
  2135   001B88  5821               	subwfb	(___fldiv@rem+3)^0,w,c
  2136   001B8A  A0D8               	btfss	status,0,c
  2137   001B8C  EFCA  F00D         	goto	u6131
  2138   001B90  EFCC  F00D         	goto	u6130
  2139   001B94                     u6131:
  2140   001B94  EFD5  F00D         	goto	l6303
  2141   001B98                     u6130:
  2142   001B98  8C28               	bsf	(___fldiv@grs+3)^0,6,c
  2143   001B9A  5016               	movf	___fldiv@a^0,w,c
  2144   001B9C  5E1E               	subwf	___fldiv@rem^0,f,c
  2145   001B9E  5017               	movf	(___fldiv@a+1)^0,w,c
  2146   001BA0  5A1F               	subwfb	(___fldiv@rem+1)^0,f,c
  2147   001BA2  5018               	movf	(___fldiv@a+2)^0,w,c
  2148   001BA4  5A20               	subwfb	(___fldiv@rem+2)^0,f,c
  2149   001BA6  5019               	movf	(___fldiv@a+3)^0,w,c
  2150   001BA8  5A21               	subwfb	(___fldiv@rem+3)^0,f,c
  2151   001BAA                     l6303:
  2152   001BAA  2A2A               	incf	___fldiv@aexp^0,f,c
  2153   001BAC                     l1721:
  2154   001BAC  0E19               	movlw	25
  2155   001BAE  642A               	cpfsgt	___fldiv@aexp^0,c
  2156   001BB0  EFDC  F00D         	goto	u6141
  2157   001BB4  EFDE  F00D         	goto	u6140
  2158   001BB8                     u6141:
  2159   001BB8  EF9E  F00D         	goto	l6289
  2160   001BBC                     u6140:
  2161   001BBC  501E               	movf	___fldiv@rem^0,w,c
  2162   001BBE  101F               	iorwf	(___fldiv@rem+1)^0,w,c
  2163   001BC0  1020               	iorwf	(___fldiv@rem+2)^0,w,c
  2164   001BC2  1021               	iorwf	(___fldiv@rem+3)^0,w,c
  2165   001BC4  B4D8               	btfsc	status,2,c
  2166   001BC6  EFE7  F00D         	goto	u6151
  2167   001BCA  EFE9  F00D         	goto	u6150
  2168   001BCE                     u6151:
  2169   001BCE  EF01  F00E         	goto	l6315
  2170   001BD2                     u6150:
  2171   001BD2  8025               	bsf	___fldiv@grs^0,0,c
  2172   001BD4  EF01  F00E         	goto	l6315
  2173   001BD8                     l6309:
  2174   001BD8  90D8               	bcf	status,0,c
  2175   001BDA  3612               	rlcf	___fldiv@b^0,f,c
  2176   001BDC  3613               	rlcf	(___fldiv@b+1)^0,f,c
  2177   001BDE  3614               	rlcf	(___fldiv@b+2)^0,f,c
  2178   001BE0  3615               	rlcf	(___fldiv@b+3)^0,f,c
  2179   001BE2  AE28               	btfss	(___fldiv@grs+3)^0,7,c
  2180   001BE4  EFF6  F00D         	goto	u6161
  2181   001BE8  EFF8  F00D         	goto	u6160
  2182   001BEC                     u6161:
  2183   001BEC  EFF9  F00D         	goto	l1730
  2184   001BF0                     u6160:
  2185   001BF0  8012               	bsf	___fldiv@b^0,0,c
  2186   001BF2                     l1730:
  2187   001BF2  90D8               	bcf	status,0,c
  2188   001BF4  3625               	rlcf	___fldiv@grs^0,f,c
  2189   001BF6  3626               	rlcf	(___fldiv@grs+1)^0,f,c
  2190   001BF8  3627               	rlcf	(___fldiv@grs+2)^0,f,c
  2191   001BFA  3628               	rlcf	(___fldiv@grs+3)^0,f,c
  2192   001BFC  0623               	decf	___fldiv@new_exp^0,f,c
  2193   001BFE  A0D8               	btfss	status,0,c
  2194   001C00  0624               	decf	(___fldiv@new_exp+1)^0,f,c
  2195   001C02                     l6315:
  2196   001C02  AE14               	btfss	(___fldiv@b+2)^0,7,c
  2197   001C04  EF06  F00E         	goto	u6171
  2198   001C08  EF08  F00E         	goto	u6170
  2199   001C0C                     u6171:
  2200   001C0C  EFEC  F00D         	goto	l6309
  2201   001C10                     u6170:
  2202   001C10  0E00               	movlw	0
  2203   001C12  6E2A               	movwf	___fldiv@aexp^0,c
  2204   001C14  AE28               	btfss	(___fldiv@grs+3)^0,7,c
  2205   001C16  EF0F  F00E         	goto	u6181
  2206   001C1A  EF11  F00E         	goto	u6180
  2207   001C1E                     u6181:
  2208   001C1E  EF35  F00E         	goto	l1732
  2209   001C22                     u6180:
  2210   001C22  0EFF               	movlw	255
  2211   001C24  1425               	andwf	___fldiv@grs^0,w,c
  2212   001C26  6E1A               	movwf	??___fldiv^0,c
  2213   001C28  0EFF               	movlw	255
  2214   001C2A  1426               	andwf	(___fldiv@grs+1)^0,w,c
  2215   001C2C  6E1B               	movwf	(??___fldiv+1)^0,c
  2216   001C2E  0EFF               	movlw	255
  2217   001C30  1427               	andwf	(___fldiv@grs+2)^0,w,c
  2218   001C32  6E1C               	movwf	(??___fldiv+2)^0,c
  2219   001C34  0E7F               	movlw	127
  2220   001C36  1428               	andwf	(___fldiv@grs+3)^0,w,c
  2221   001C38  6E1D               	movwf	(??___fldiv+3)^0,c
  2222   001C3A  501A               	movf	??___fldiv^0,w,c
  2223   001C3C  101B               	iorwf	(??___fldiv+1)^0,w,c
  2224   001C3E  101C               	iorwf	(??___fldiv+2)^0,w,c
  2225   001C40  101D               	iorwf	(??___fldiv+3)^0,w,c
  2226   001C42  B4D8               	btfsc	status,2,c
  2227   001C44  EF26  F00E         	goto	u6191
  2228   001C48  EF28  F00E         	goto	u6190
  2229   001C4C                     u6191:
  2230   001C4C  EF2C  F00E         	goto	l1733
  2231   001C50                     u6190:
  2232   001C50                     l6323:
  2233   001C50  0E01               	movlw	1
  2234   001C52  6E2A               	movwf	___fldiv@aexp^0,c
  2235   001C54  EF35  F00E         	goto	l1732
  2236   001C58                     l1733:
  2237   001C58  A012               	btfss	___fldiv@b^0,0,c
  2238   001C5A  EF31  F00E         	goto	u6201
  2239   001C5E  EF33  F00E         	goto	u6200
  2240   001C62                     u6201:
  2241   001C62  EF35  F00E         	goto	l1732
  2242   001C66                     u6200:
  2243   001C66  EF28  F00E         	goto	l6323
  2244   001C6A                     l1732:
  2245   001C6A  502A               	movf	___fldiv@aexp^0,w,c
  2246   001C6C  B4D8               	btfsc	status,2,c
  2247   001C6E  EF3B  F00E         	goto	u6211
  2248   001C72  EF3D  F00E         	goto	u6210
  2249   001C76                     u6211:
  2250   001C76  EF61  F00E         	goto	l6335
  2251   001C7A                     u6210:
  2252   001C7A  0E01               	movlw	1
  2253   001C7C  2612               	addwf	___fldiv@b^0,f,c
  2254   001C7E  0E00               	movlw	0
  2255   001C80  2213               	addwfc	(___fldiv@b+1)^0,f,c
  2256   001C82  2214               	addwfc	(___fldiv@b+2)^0,f,c
  2257   001C84  2215               	addwfc	(___fldiv@b+3)^0,f,c
  2258   001C86  A015               	btfss	(___fldiv@b+3)^0,0,c
  2259   001C88  EF48  F00E         	goto	u6221
  2260   001C8C  EF4A  F00E         	goto	u6220
  2261   001C90                     u6221:
  2262   001C90  EF61  F00E         	goto	l6335
  2263   001C94                     u6220:
  2264   001C94  C012  F01A         	movff	___fldiv@b,??___fldiv
  2265   001C98  C013  F01B         	movff	___fldiv@b+1,??___fldiv+1
  2266   001C9C  C014  F01C         	movff	___fldiv@b+2,??___fldiv+2
  2267   001CA0  C015  F01D         	movff	___fldiv@b+3,??___fldiv+3
  2268   001CA4  341D               	rlcf	(??___fldiv+3)^0,w,c
  2269   001CA6  321D               	rrcf	(??___fldiv+3)^0,f,c
  2270   001CA8  321C               	rrcf	(??___fldiv+2)^0,f,c
  2271   001CAA  321B               	rrcf	(??___fldiv+1)^0,f,c
  2272   001CAC  321A               	rrcf	??___fldiv^0,f,c
  2273   001CAE  C01A  F012         	movff	??___fldiv,___fldiv@b
  2274   001CB2  C01B  F013         	movff	??___fldiv+1,___fldiv@b+1
  2275   001CB6  C01C  F014         	movff	??___fldiv+2,___fldiv@b+2
  2276   001CBA  C01D  F015         	movff	??___fldiv+3,___fldiv@b+3
  2277   001CBE  4A23               	infsnz	___fldiv@new_exp^0,f,c
  2278   001CC0  2A24               	incf	(___fldiv@new_exp+1)^0,f,c
  2279   001CC2                     l6335:
  2280   001CC2  BE24               	btfsc	(___fldiv@new_exp+1)^0,7,c
  2281   001CC4  EF6C  F00E         	goto	u6231
  2282   001CC8  5024               	movf	(___fldiv@new_exp+1)^0,w,c
  2283   001CCA  E108               	bnz	u6230
  2284   001CCC  2823               	incf	___fldiv@new_exp^0,w,c
  2285   001CCE  A0D8               	btfss	status,0,c
  2286   001CD0  EF6C  F00E         	goto	u6231
  2287   001CD4  EF6E  F00E         	goto	u6230
  2288   001CD8                     u6231:
  2289   001CD8  EF79  F00E         	goto	l6339
  2290   001CDC                     u6230:
  2291   001CDC  0E00               	movlw	0
  2292   001CDE  6E24               	movwf	(___fldiv@new_exp+1)^0,c
  2293   001CE0  6823               	setf	___fldiv@new_exp^0,c
  2294   001CE2  0E00               	movlw	0
  2295   001CE4  6E12               	movwf	___fldiv@b^0,c
  2296   001CE6  0E00               	movlw	0
  2297   001CE8  6E13               	movwf	(___fldiv@b+1)^0,c
  2298   001CEA  0E00               	movlw	0
  2299   001CEC  6E14               	movwf	(___fldiv@b+2)^0,c
  2300   001CEE  0E00               	movlw	0
  2301   001CF0  6E15               	movwf	(___fldiv@b+3)^0,c
  2302   001CF2                     l6339:
  2303   001CF2  BE24               	btfsc	(___fldiv@new_exp+1)^0,7,c
  2304   001CF4  EF86  F00E         	goto	u6240
  2305   001CF8  5024               	movf	(___fldiv@new_exp+1)^0,w,c
  2306   001CFA  E106               	bnz	u6241
  2307   001CFC  0423               	decf	___fldiv@new_exp^0,w,c
  2308   001CFE  B0D8               	btfsc	status,0,c
  2309   001D00  EF84  F00E         	goto	u6241
  2310   001D04  EF86  F00E         	goto	u6240
  2311   001D08                     u6241:
  2312   001D08  EF94  F00E         	goto	l6343
  2313   001D0C                     u6240:
  2314   001D0C  0E00               	movlw	0
  2315   001D0E  6E24               	movwf	(___fldiv@new_exp+1)^0,c
  2316   001D10  0E00               	movlw	0
  2317   001D12  6E23               	movwf	___fldiv@new_exp^0,c
  2318   001D14  0E00               	movlw	0
  2319   001D16  6E12               	movwf	___fldiv@b^0,c
  2320   001D18  0E00               	movlw	0
  2321   001D1A  6E13               	movwf	(___fldiv@b+1)^0,c
  2322   001D1C  0E00               	movlw	0
  2323   001D1E  6E14               	movwf	(___fldiv@b+2)^0,c
  2324   001D20  0E00               	movlw	0
  2325   001D22  6E15               	movwf	(___fldiv@b+3)^0,c
  2326   001D24  0E00               	movlw	0
  2327   001D26  6E22               	movwf	___fldiv@sign^0,c
  2328   001D28                     l6343:
  2329   001D28  C023  F029         	movff	___fldiv@new_exp,___fldiv@bexp
  2330   001D2C  A029               	btfss	___fldiv@bexp^0,0,c
  2331   001D2E  EF9B  F00E         	goto	u6251
  2332   001D32  EF9D  F00E         	goto	u6250
  2333   001D36                     u6251:
  2334   001D36  EFA0  F00E         	goto	l6349
  2335   001D3A                     u6250:
  2336   001D3A  8E14               	bsf	(___fldiv@b+2)^0,7,c
  2337   001D3C  EFA1  F00E         	goto	l6351
  2338   001D40                     l6349:
  2339   001D40  9E14               	bcf	(___fldiv@b+2)^0,7,c
  2340   001D42                     l6351:
  2341   001D42  90D8               	bcf	status,0,c
  2342   001D44  3029               	rrcf	___fldiv@bexp^0,w,c
  2343   001D46  6E15               	movwf	(___fldiv@b+3)^0,c
  2344   001D48  EF57  F00D         	goto	l6265
  2345   001D4C                     l1719:
  2346   001D4C  0012               	return		;funcret
  2347   001D4E                     __end_of___fldiv:
  2348                           	callstack 0
  2349                           
  2350 ;; *************** function ___fladd *****************
  2351 ;; Defined at:
  2352 ;;		line 10 in file "C:\Program Files\Microchip\xc8\v2.40\pic\sources\c99\common\sprcadd.c"
  2353 ;; Parameters:    Size  Location     Type
  2354 ;;  b               4   42[COMRAM] unsigned char 
  2355 ;;  a               4   46[COMRAM] unsigned char 
  2356 ;; Auto vars:     Size  Location     Type
  2357 ;;  grs             1   57[COMRAM] unsigned char 
  2358 ;;  bexp            1   56[COMRAM] unsigned char 
  2359 ;;  aexp            1   55[COMRAM] unsigned char 
  2360 ;;  signs           1   54[COMRAM] unsigned char 
  2361 ;; Return value:  Size  Location     Type
  2362 ;;                  4   42[COMRAM] unsigned char 
  2363 ;; Registers used:
  2364 ;;		wreg, status,2, status,0
  2365 ;; Tracked objects:
  2366 ;;		On entry : 0/0
  2367 ;;		On exit  : 0/0
  2368 ;;		Unchanged: 0/0
  2369 ;; Data sizes:     COMRAM   BANK0   BANK1   BANK2   BANK3   BANK4   BANK5   BANK6   BANK7   BANK8   BANK9  BANK10  BANK1
      +1  BANK12  BANK13  BANK14  BANK15
  2370 ;;      Params:         8       0       0       0       0       0       0       0       0       0       0       0       
      +0       0       0       0       0
  2371 ;;      Locals:         4       0       0       0       0       0       0       0       0       0       0       0       
      +0       0       0       0       0
  2372 ;;      Temps:          4       0       0       0       0       0       0       0       0       0       0       0       
      +0       0       0       0       0
  2373 ;;      Totals:        16       0       0       0       0       0       0       0       0       0       0       0       
      +0       0       0       0       0
  2374 ;;Total ram usage:       16 bytes
  2375 ;; Hardware stack levels used: 1
  2376 ;; Hardware stack levels required when called: 3
  2377 ;; This function calls:
  2378 ;;		Nothing
  2379 ;; This function is called by:
  2380 ;;		_EUSART_Baud_Rate_Calculation
  2381 ;; This function uses a non-reentrant model
  2382 ;;
  2383                           
  2384                           	psect	text7
  2385   0014F4                     __ptext7:
  2386                           	callstack 0
  2387   0014F4                     ___fladd:
  2388                           	callstack 24
  2389   0014F4  502E               	movf	(___fladd@b+3)^0,w,c
  2390   0014F6  0B80               	andlw	128
  2391   0014F8  6E37               	movwf	___fladd@signs^0,c
  2392   0014FA  502E               	movf	(___fladd@b+3)^0,w,c
  2393   0014FC  242E               	addwf	(___fladd@b+3)^0,w,c
  2394   0014FE  6E39               	movwf	___fladd@bexp^0,c
  2395   001500  AE2D               	btfss	(___fladd@b+2)^0,7,c
  2396   001502  EF85  F00A         	goto	u5641
  2397   001506  EF87  F00A         	goto	u5640
  2398   00150A                     u5641:
  2399   00150A  EF88  F00A         	goto	l6025
  2400   00150E                     u5640:
  2401   00150E  8039               	bsf	___fladd@bexp^0,0,c
  2402   001510                     l6025:
  2403   001510  5039               	movf	___fladd@bexp^0,w,c
  2404   001512  B4D8               	btfsc	status,2,c
  2405   001514  EF8E  F00A         	goto	u5651
  2406   001518  EF90  F00A         	goto	u5650
  2407   00151C                     u5651:
  2408   00151C  EFA5  F00A         	goto	l6035
  2409   001520                     u5650:
  2410   001520  2839               	incf	___fladd@bexp^0,w,c
  2411   001522  A4D8               	btfss	status,2,c
  2412   001524  EF96  F00A         	goto	u5661
  2413   001528  EF98  F00A         	goto	u5660
  2414   00152C                     u5661:
  2415   00152C  EFA0  F00A         	goto	l6031
  2416   001530                     u5660:
  2417   001530  0E00               	movlw	0
  2418   001532  6E2B               	movwf	___fladd@b^0,c
  2419   001534  0E00               	movlw	0
  2420   001536  6E2C               	movwf	(___fladd@b+1)^0,c
  2421   001538  0E00               	movlw	0
  2422   00153A  6E2D               	movwf	(___fladd@b+2)^0,c
  2423   00153C  0E00               	movlw	0
  2424   00153E  6E2E               	movwf	(___fladd@b+3)^0,c
  2425   001540                     l6031:
  2426   001540  8E2D               	bsf	(___fladd@b+2)^0,7,c
  2427   001542  0E00               	movlw	0
  2428   001544  6E2E               	movwf	(___fladd@b+3)^0,c
  2429   001546  EFAD  F00A         	goto	l6037
  2430   00154A                     l6035:
  2431   00154A  0E00               	movlw	0
  2432   00154C  6E2B               	movwf	___fladd@b^0,c
  2433   00154E  0E00               	movlw	0
  2434   001550  6E2C               	movwf	(___fladd@b+1)^0,c
  2435   001552  0E00               	movlw	0
  2436   001554  6E2D               	movwf	(___fladd@b+2)^0,c
  2437   001556  0E00               	movlw	0
  2438   001558  6E2E               	movwf	(___fladd@b+3)^0,c
  2439   00155A                     l6037:
  2440   00155A  5032               	movf	(___fladd@a+3)^0,w,c
  2441   00155C  0B80               	andlw	128
  2442   00155E  6E38               	movwf	___fladd@aexp^0,c
  2443   001560  5037               	movf	___fladd@signs^0,w,c
  2444   001562  1838               	xorwf	___fladd@aexp^0,w,c
  2445   001564  B4D8               	btfsc	status,2,c
  2446   001566  EFB7  F00A         	goto	u5671
  2447   00156A  EFB9  F00A         	goto	u5670
  2448   00156E                     u5671:
  2449   00156E  EFBA  F00A         	goto	l6043
  2450   001572                     u5670:
  2451   001572  8C37               	bsf	___fladd@signs^0,6,c
  2452   001574                     l6043:
  2453   001574  5032               	movf	(___fladd@a+3)^0,w,c
  2454   001576  2432               	addwf	(___fladd@a+3)^0,w,c
  2455   001578  6E38               	movwf	___fladd@aexp^0,c
  2456   00157A  AE31               	btfss	(___fladd@a+2)^0,7,c
  2457   00157C  EFC2  F00A         	goto	u5681
  2458   001580  EFC4  F00A         	goto	u5680
  2459   001584                     u5681:
  2460   001584  EFC5  F00A         	goto	l6049
  2461   001588                     u5680:
  2462   001588  8038               	bsf	___fladd@aexp^0,0,c
  2463   00158A                     l6049:
  2464   00158A  5038               	movf	___fladd@aexp^0,w,c
  2465   00158C  B4D8               	btfsc	status,2,c
  2466   00158E  EFCB  F00A         	goto	u5691
  2467   001592  EFCD  F00A         	goto	u5690
  2468   001596                     u5691:
  2469   001596  EFE2  F00A         	goto	l6059
  2470   00159A                     u5690:
  2471   00159A  2838               	incf	___fladd@aexp^0,w,c
  2472   00159C  A4D8               	btfss	status,2,c
  2473   00159E  EFD3  F00A         	goto	u5701
  2474   0015A2  EFD5  F00A         	goto	u5700
  2475   0015A6                     u5701:
  2476   0015A6  EFDD  F00A         	goto	l6055
  2477   0015AA                     u5700:
  2478   0015AA  0E00               	movlw	0
  2479   0015AC  6E2F               	movwf	___fladd@a^0,c
  2480   0015AE  0E00               	movlw	0
  2481   0015B0  6E30               	movwf	(___fladd@a+1)^0,c
  2482   0015B2  0E00               	movlw	0
  2483   0015B4  6E31               	movwf	(___fladd@a+2)^0,c
  2484   0015B6  0E00               	movlw	0
  2485   0015B8  6E32               	movwf	(___fladd@a+3)^0,c
  2486   0015BA                     l6055:
  2487   0015BA  8E31               	bsf	(___fladd@a+2)^0,7,c
  2488   0015BC  0E00               	movlw	0
  2489   0015BE  6E32               	movwf	(___fladd@a+3)^0,c
  2490   0015C0  EFEA  F00A         	goto	l6061
  2491   0015C4                     l6059:
  2492   0015C4  0E00               	movlw	0
  2493   0015C6  6E2F               	movwf	___fladd@a^0,c
  2494   0015C8  0E00               	movlw	0
  2495   0015CA  6E30               	movwf	(___fladd@a+1)^0,c
  2496   0015CC  0E00               	movlw	0
  2497   0015CE  6E31               	movwf	(___fladd@a+2)^0,c
  2498   0015D0  0E00               	movlw	0
  2499   0015D2  6E32               	movwf	(___fladd@a+3)^0,c
  2500   0015D4                     l6061:
  2501   0015D4  5039               	movf	___fladd@bexp^0,w,c
  2502   0015D6  5C38               	subwf	___fladd@aexp^0,w,c
  2503   0015D8  B0D8               	btfsc	status,0,c
  2504   0015DA  EFF1  F00A         	goto	u5711
  2505   0015DE  EFF3  F00A         	goto	u5710
  2506   0015E2                     u5711:
  2507   0015E2  EF1A  F00B         	goto	l6097
  2508   0015E6                     u5710:
  2509   0015E6  AC37               	btfss	___fladd@signs^0,6,c
  2510   0015E8  EFF8  F00A         	goto	u5721
  2511   0015EC  EFFA  F00A         	goto	u5720
  2512   0015F0                     u5721:
  2513   0015F0  EFFC  F00A         	goto	l6067
  2514   0015F4                     u5720:
  2515   0015F4  0E80               	movlw	128
  2516   0015F6  1A37               	xorwf	___fladd@signs^0,f,c
  2517   0015F8                     l6067:
  2518   0015F8  C039  F03A         	movff	___fladd@bexp,___fladd@grs
  2519   0015FC  C038  F039         	movff	___fladd@aexp,___fladd@bexp
  2520   001600  C03A  F038         	movff	___fladd@grs,___fladd@aexp
  2521   001604  C02B  F03A         	movff	___fladd@b,___fladd@grs
  2522   001608  C02F  F02B         	movff	___fladd@a,___fladd@b
  2523   00160C  C03A  F02F         	movff	___fladd@grs,___fladd@a
  2524   001610  C02C  F03A         	movff	___fladd@b+1,___fladd@grs
  2525   001614  C030  F02C         	movff	___fladd@a+1,___fladd@b+1
  2526   001618  C03A  F030         	movff	___fladd@grs,___fladd@a+1
  2527   00161C  C02D  F03A         	movff	___fladd@b+2,___fladd@grs
  2528   001620  C031  F02D         	movff	___fladd@a+2,___fladd@b+2
  2529   001624  C03A  F031         	movff	___fladd@grs,___fladd@a+2
  2530   001628  C02E  F03A         	movff	___fladd@b+3,___fladd@grs
  2531   00162C  C032  F02E         	movff	___fladd@a+3,___fladd@b+3
  2532   001630  C03A  F032         	movff	___fladd@grs,___fladd@a+3
  2533   001634                     l6097:
  2534   001634  0E00               	movlw	0
  2535   001636  6E3A               	movwf	___fladd@grs^0,c
  2536   001638  5039               	movf	___fladd@bexp^0,w,c
  2537   00163A  C038  F033         	movff	___fladd@aexp,??___fladd
  2538   00163E  6A34               	clrf	(??___fladd+1)^0,c
  2539   001640  5E33               	subwf	??___fladd^0,f,c
  2540   001642  0E00               	movlw	0
  2541   001644  5A34               	subwfb	(??___fladd+1)^0,f,c
  2542   001646  BE34               	btfsc	(??___fladd+1)^0,7,c
  2543   001648  EF2F  F00B         	goto	u5731
  2544   00164C  5034               	movf	(??___fladd+1)^0,w,c
  2545   00164E  E109               	bnz	u5730
  2546   001650  0E1A               	movlw	26
  2547   001652  5C33               	subwf	??___fladd^0,w,c
  2548   001654  A0D8               	btfss	status,0,c
  2549   001656  EF2F  F00B         	goto	u5731
  2550   00165A  EF31  F00B         	goto	u5730
  2551   00165E                     u5731:
  2552   00165E  EF68  F00B         	goto	l1666
  2553   001662                     u5730:
  2554   001662  502B               	movf	___fladd@b^0,w,c
  2555   001664  102C               	iorwf	(___fladd@b+1)^0,w,c
  2556   001666  102D               	iorwf	(___fladd@b+2)^0,w,c
  2557   001668  102E               	iorwf	(___fladd@b+3)^0,w,c
  2558   00166A  A4D8               	btfss	status,2,c
  2559   00166C  EF3A  F00B         	goto	u5741
  2560   001670  EF3D  F00B         	goto	u5740
  2561   001674                     u5741:
  2562   001674  0E01               	movlw	1
  2563   001676  EF3E  F00B         	goto	u5750
  2564   00167A                     u5740:
  2565   00167A  0E00               	movlw	0
  2566   00167C                     u5750:
  2567   00167C  6E3A               	movwf	___fladd@grs^0,c
  2568   00167E  0E00               	movlw	0
  2569   001680  6E2B               	movwf	___fladd@b^0,c
  2570   001682  0E00               	movlw	0
  2571   001684  6E2C               	movwf	(___fladd@b+1)^0,c
  2572   001686  0E00               	movlw	0
  2573   001688  6E2D               	movwf	(___fladd@b+2)^0,c
  2574   00168A  0E00               	movlw	0
  2575   00168C  6E2E               	movwf	(___fladd@b+3)^0,c
  2576   00168E  C038  F039         	movff	___fladd@aexp,___fladd@bexp
  2577   001692  EF71  F00B         	goto	l1665
  2578   001696                     l1667:
  2579   001696  A03A               	btfss	___fladd@grs^0,0,c
  2580   001698  EF50  F00B         	goto	u5761
  2581   00169C  EF52  F00B         	goto	u5760
  2582   0016A0                     u5761:
  2583   0016A0  EF58  F00B         	goto	l6109
  2584   0016A4                     u5760:
  2585   0016A4  90D8               	bcf	status,0,c
  2586   0016A6  303A               	rrcf	___fladd@grs^0,w,c
  2587   0016A8  0901               	iorlw	1
  2588   0016AA  6E3A               	movwf	___fladd@grs^0,c
  2589   0016AC  EF5A  F00B         	goto	l6111
  2590   0016B0                     l6109:
  2591   0016B0  90D8               	bcf	status,0,c
  2592   0016B2  323A               	rrcf	___fladd@grs^0,f,c
  2593   0016B4                     l6111:
  2594   0016B4  A02B               	btfss	___fladd@b^0,0,c
  2595   0016B6  EF5F  F00B         	goto	u5771
  2596   0016BA  EF61  F00B         	goto	u5770
  2597   0016BE                     u5771:
  2598   0016BE  EF62  F00B         	goto	l6115
  2599   0016C2                     u5770:
  2600   0016C2  8E3A               	bsf	___fladd@grs^0,7,c
  2601   0016C4                     l6115:
  2602   0016C4  342E               	rlcf	(___fladd@b+3)^0,w,c
  2603   0016C6  322E               	rrcf	(___fladd@b+3)^0,f,c
  2604   0016C8  322D               	rrcf	(___fladd@b+2)^0,f,c
  2605   0016CA  322C               	rrcf	(___fladd@b+1)^0,f,c
  2606   0016CC  322B               	rrcf	___fladd@b^0,f,c
  2607   0016CE  2A39               	incf	___fladd@bexp^0,f,c
  2608   0016D0                     l1666:
  2609   0016D0  5038               	movf	___fladd@aexp^0,w,c
  2610   0016D2  5C39               	subwf	___fladd@bexp^0,w,c
  2611   0016D4  A0D8               	btfss	status,0,c
  2612   0016D6  EF6F  F00B         	goto	u5781
  2613   0016DA  EF71  F00B         	goto	u5780
  2614   0016DE                     u5781:
  2615   0016DE  EF4B  F00B         	goto	l1667
  2616   0016E2                     u5780:
  2617   0016E2                     l1665:
  2618   0016E2  BC37               	btfsc	___fladd@signs^0,6,c
  2619   0016E4  EF76  F00B         	goto	u5791
  2620   0016E8  EF78  F00B         	goto	u5790
  2621   0016EC                     u5791:
  2622   0016EC  EFB8  F00B         	goto	l6143
  2623   0016F0                     u5790:
  2624   0016F0  5039               	movf	___fladd@bexp^0,w,c
  2625   0016F2  A4D8               	btfss	status,2,c
  2626   0016F4  EF7E  F00B         	goto	u5801
  2627   0016F8  EF80  F00B         	goto	u5800
  2628   0016FC                     u5801:
  2629   0016FC  EF8A  F00B         	goto	l6125
  2630   001700                     u5800:
  2631   001700  0E00               	movlw	0
  2632   001702  6E2B               	movwf	?___fladd^0,c
  2633   001704  0E00               	movlw	0
  2634   001706  6E2C               	movwf	(?___fladd+1)^0,c
  2635   001708  0E00               	movlw	0
  2636   00170A  6E2D               	movwf	(?___fladd+2)^0,c
  2637   00170C  0E00               	movlw	0
  2638   00170E  6E2E               	movwf	(?___fladd+3)^0,c
  2639   001710  EFD9  F00C         	goto	l1674
  2640   001714                     l6125:
  2641   001714  502F               	movf	___fladd@a^0,w,c
  2642   001716  262B               	addwf	___fladd@b^0,f,c
  2643   001718  5030               	movf	(___fladd@a+1)^0,w,c
  2644   00171A  222C               	addwfc	(___fladd@b+1)^0,f,c
  2645   00171C  5031               	movf	(___fladd@a+2)^0,w,c
  2646   00171E  222D               	addwfc	(___fladd@b+2)^0,f,c
  2647   001720  5032               	movf	(___fladd@a+3)^0,w,c
  2648   001722  222E               	addwfc	(___fladd@b+3)^0,f,c
  2649   001724  A02E               	btfss	(___fladd@b+3)^0,0,c
  2650   001726  EF97  F00B         	goto	u5811
  2651   00172A  EF99  F00B         	goto	u5810
  2652   00172E                     u5811:
  2653   00172E  EF45  F00C         	goto	l6179
  2654   001732                     u5810:
  2655   001732  A03A               	btfss	___fladd@grs^0,0,c
  2656   001734  EF9E  F00B         	goto	u5821
  2657   001738  EFA0  F00B         	goto	u5820
  2658   00173C                     u5821:
  2659   00173C  EFA6  F00B         	goto	l6133
  2660   001740                     u5820:
  2661   001740  90D8               	bcf	status,0,c
  2662   001742  303A               	rrcf	___fladd@grs^0,w,c
  2663   001744  0901               	iorlw	1
  2664   001746  6E3A               	movwf	___fladd@grs^0,c
  2665   001748  EFA8  F00B         	goto	l6135
  2666   00174C                     l6133:
  2667   00174C  90D8               	bcf	status,0,c
  2668   00174E  323A               	rrcf	___fladd@grs^0,f,c
  2669   001750                     l6135:
  2670   001750  A02B               	btfss	___fladd@b^0,0,c
  2671   001752  EFAD  F00B         	goto	u5831
  2672   001756  EFAF  F00B         	goto	u5830
  2673   00175A                     u5831:
  2674   00175A  EFB0  F00B         	goto	l6139
  2675   00175E                     u5830:
  2676   00175E  8E3A               	bsf	___fladd@grs^0,7,c
  2677   001760                     l6139:
  2678   001760  342E               	rlcf	(___fladd@b+3)^0,w,c
  2679   001762  322E               	rrcf	(___fladd@b+3)^0,f,c
  2680   001764  322D               	rrcf	(___fladd@b+2)^0,f,c
  2681   001766  322C               	rrcf	(___fladd@b+1)^0,f,c
  2682   001768  322B               	rrcf	___fladd@b^0,f,c
  2683   00176A  2A39               	incf	___fladd@bexp^0,f,c
  2684   00176C  EF45  F00C         	goto	l6179
  2685   001770                     l6143:
  2686   001770  502F               	movf	___fladd@a^0,w,c
  2687   001772  5C2B               	subwf	___fladd@b^0,w,c
  2688   001774  5030               	movf	(___fladd@a+1)^0,w,c
  2689   001776  582C               	subwfb	(___fladd@b+1)^0,w,c
  2690   001778  5031               	movf	(___fladd@a+2)^0,w,c
  2691   00177A  582D               	subwfb	(___fladd@b+2)^0,w,c
  2692   00177C  502E               	movf	(___fladd@b+3)^0,w,c
  2693   00177E  0A80               	xorlw	128
  2694   001780  6E33               	movwf	??___fladd^0,c
  2695   001782  5032               	movf	(___fladd@a+3)^0,w,c
  2696   001784  0A80               	xorlw	128
  2697   001786  5833               	subwfb	??___fladd^0,w,c
  2698   001788  B0D8               	btfsc	status,0,c
  2699   00178A  EFC9  F00B         	goto	u5841
  2700   00178E  EFCB  F00B         	goto	u5840
  2701   001792                     u5841:
  2702   001792  EFF6  F00B         	goto	l6153
  2703   001796                     u5840:
  2704   001796  502B               	movf	___fladd@b^0,w,c
  2705   001798  5C2F               	subwf	___fladd@a^0,w,c
  2706   00179A  6E33               	movwf	??___fladd^0,c
  2707   00179C  502C               	movf	(___fladd@b+1)^0,w,c
  2708   00179E  5830               	subwfb	(___fladd@a+1)^0,w,c
  2709   0017A0  6E34               	movwf	(??___fladd+1)^0,c
  2710   0017A2  502D               	movf	(___fladd@b+2)^0,w,c
  2711   0017A4  5831               	subwfb	(___fladd@a+2)^0,w,c
  2712   0017A6  6E35               	movwf	(??___fladd+2)^0,c
  2713   0017A8  502E               	movf	(___fladd@b+3)^0,w,c
  2714   0017AA  5832               	subwfb	(___fladd@a+3)^0,w,c
  2715   0017AC  6E36               	movwf	(??___fladd+3)^0,c
  2716   0017AE  0EFF               	movlw	255
  2717   0017B0  2433               	addwf	??___fladd^0,w,c
  2718   0017B2  6E2B               	movwf	___fladd@b^0,c
  2719   0017B4  0EFF               	movlw	255
  2720   0017B6  2034               	addwfc	(??___fladd+1)^0,w,c
  2721   0017B8  6E2C               	movwf	(___fladd@b+1)^0,c
  2722   0017BA  0EFF               	movlw	255
  2723   0017BC  2035               	addwfc	(??___fladd+2)^0,w,c
  2724   0017BE  6E2D               	movwf	(___fladd@b+2)^0,c
  2725   0017C0  0EFF               	movlw	255
  2726   0017C2  2036               	addwfc	(??___fladd+3)^0,w,c
  2727   0017C4  6E2E               	movwf	(___fladd@b+3)^0,c
  2728   0017C6  0E80               	movlw	128
  2729   0017C8  1A37               	xorwf	___fladd@signs^0,f,c
  2730   0017CA  6C3A               	negf	___fladd@grs^0,c
  2731   0017CC  503A               	movf	___fladd@grs^0,w,c
  2732   0017CE  A4D8               	btfss	status,2,c
  2733   0017D0  EFEC  F00B         	goto	u5851
  2734   0017D4  EFEE  F00B         	goto	u5850
  2735   0017D8                     u5851:
  2736   0017D8  EFFE  F00B         	goto	l1682
  2737   0017DC                     u5850:
  2738   0017DC  0E01               	movlw	1
  2739   0017DE  262B               	addwf	___fladd@b^0,f,c
  2740   0017E0  0E00               	movlw	0
  2741   0017E2  222C               	addwfc	(___fladd@b+1)^0,f,c
  2742   0017E4  222D               	addwfc	(___fladd@b+2)^0,f,c
  2743   0017E6  222E               	addwfc	(___fladd@b+3)^0,f,c
  2744   0017E8  EFFE  F00B         	goto	l1682
  2745   0017EC                     l6153:
  2746   0017EC  502F               	movf	___fladd@a^0,w,c
  2747   0017EE  5E2B               	subwf	___fladd@b^0,f,c
  2748   0017F0  5030               	movf	(___fladd@a+1)^0,w,c
  2749   0017F2  5A2C               	subwfb	(___fladd@b+1)^0,f,c
  2750   0017F4  5031               	movf	(___fladd@a+2)^0,w,c
  2751   0017F6  5A2D               	subwfb	(___fladd@b+2)^0,f,c
  2752   0017F8  5032               	movf	(___fladd@a+3)^0,w,c
  2753   0017FA  5A2E               	subwfb	(___fladd@b+3)^0,f,c
  2754   0017FC                     l1682:
  2755   0017FC  502B               	movf	___fladd@b^0,w,c
  2756   0017FE  102C               	iorwf	(___fladd@b+1)^0,w,c
  2757   001800  102D               	iorwf	(___fladd@b+2)^0,w,c
  2758   001802  102E               	iorwf	(___fladd@b+3)^0,w,c
  2759   001804  A4D8               	btfss	status,2,c
  2760   001806  EF07  F00C         	goto	u5861
  2761   00180A  EF09  F00C         	goto	u5860
  2762   00180E                     u5861:
  2763   00180E  EF3E  F00C         	goto	l6177
  2764   001812                     u5860:
  2765   001812  503A               	movf	___fladd@grs^0,w,c
  2766   001814  A4D8               	btfss	status,2,c
  2767   001816  EF0F  F00C         	goto	u5871
  2768   00181A  EF11  F00C         	goto	u5870
  2769   00181E                     u5871:
  2770   00181E  EF3E  F00C         	goto	l6177
  2771   001822                     u5870:
  2772   001822  0E00               	movlw	0
  2773   001824  6E2B               	movwf	?___fladd^0,c
  2774   001826  0E00               	movlw	0
  2775   001828  6E2C               	movwf	(?___fladd+1)^0,c
  2776   00182A  0E00               	movlw	0
  2777   00182C  6E2D               	movwf	(?___fladd+2)^0,c
  2778   00182E  0E00               	movlw	0
  2779   001830  6E2E               	movwf	(?___fladd+3)^0,c
  2780   001832  EFD9  F00C         	goto	l1674
  2781   001836                     l6161:
  2782   001836  90D8               	bcf	status,0,c
  2783   001838  362B               	rlcf	___fladd@b^0,f,c
  2784   00183A  362C               	rlcf	(___fladd@b+1)^0,f,c
  2785   00183C  362D               	rlcf	(___fladd@b+2)^0,f,c
  2786   00183E  362E               	rlcf	(___fladd@b+3)^0,f,c
  2787   001840  AE3A               	btfss	___fladd@grs^0,7,c
  2788   001842  EF25  F00C         	goto	u5881
  2789   001846  EF27  F00C         	goto	u5880
  2790   00184A                     u5881:
  2791   00184A  EF28  F00C         	goto	l6167
  2792   00184E                     u5880:
  2793   00184E  802B               	bsf	___fladd@b^0,0,c
  2794   001850                     l6167:
  2795   001850  A03A               	btfss	___fladd@grs^0,0,c
  2796   001852  EF2D  F00C         	goto	u5891
  2797   001856  EF2F  F00C         	goto	u5890
  2798   00185A                     u5891:
  2799   00185A  EF33  F00C         	goto	l6171
  2800   00185E                     u5890:
  2801   00185E  80D8               	bsf	status,0,c
  2802   001860  363A               	rlcf	___fladd@grs^0,f,c
  2803   001862  EF35  F00C         	goto	l6173
  2804   001866                     l6171:
  2805   001866  90D8               	bcf	status,0,c
  2806   001868  363A               	rlcf	___fladd@grs^0,f,c
  2807   00186A                     l6173:
  2808   00186A  5039               	movf	___fladd@bexp^0,w,c
  2809   00186C  B4D8               	btfsc	status,2,c
  2810   00186E  EF3B  F00C         	goto	u5901
  2811   001872  EF3D  F00C         	goto	u5900
  2812   001876                     u5901:
  2813   001876  EF3E  F00C         	goto	l6177
  2814   00187A                     u5900:
  2815   00187A  0639               	decf	___fladd@bexp^0,f,c
  2816   00187C                     l6177:
  2817   00187C  AE2D               	btfss	(___fladd@b+2)^0,7,c
  2818   00187E  EF43  F00C         	goto	u5911
  2819   001882  EF45  F00C         	goto	u5910
  2820   001886                     u5911:
  2821   001886  EF1B  F00C         	goto	l6161
  2822   00188A                     u5910:
  2823   00188A                     l6179:
  2824   00188A  0E00               	movlw	0
  2825   00188C  6E38               	movwf	___fladd@aexp^0,c
  2826   00188E  AE3A               	btfss	___fladd@grs^0,7,c
  2827   001890  EF4C  F00C         	goto	u5921
  2828   001894  EF4E  F00C         	goto	u5920
  2829   001898                     u5921:
  2830   001898  EF66  F00C         	goto	l1691
  2831   00189C                     u5920:
  2832   00189C  C03A  F033         	movff	___fladd@grs,??___fladd
  2833   0018A0  0E7F               	movlw	127
  2834   0018A2  1633               	andwf	??___fladd^0,f,c
  2835   0018A4  B4D8               	btfsc	status,2,c
  2836   0018A6  EF57  F00C         	goto	u5931
  2837   0018AA  EF59  F00C         	goto	u5930
  2838   0018AE                     u5931:
  2839   0018AE  EF5D  F00C         	goto	l1692
  2840   0018B2                     u5930:
  2841   0018B2                     l6185:
  2842   0018B2  0E01               	movlw	1
  2843   0018B4  6E38               	movwf	___fladd@aexp^0,c
  2844   0018B6  EF66  F00C         	goto	l1691
  2845   0018BA                     l1692:
  2846   0018BA  A02B               	btfss	___fladd@b^0,0,c
  2847   0018BC  EF62  F00C         	goto	u5941
  2848   0018C0  EF64  F00C         	goto	u5940
  2849   0018C4                     u5941:
  2850   0018C4  EF66  F00C         	goto	l1691
  2851   0018C8                     u5940:
  2852   0018C8  EF59  F00C         	goto	l6185
  2853   0018CC                     l1691:
  2854   0018CC  5038               	movf	___fladd@aexp^0,w,c
  2855   0018CE  B4D8               	btfsc	status,2,c
  2856   0018D0  EF6C  F00C         	goto	u5951
  2857   0018D4  EF6E  F00C         	goto	u5950
  2858   0018D8                     u5951:
  2859   0018D8  EF99  F00C         	goto	l6197
  2860   0018DC                     u5950:
  2861   0018DC  0E01               	movlw	1
  2862   0018DE  262B               	addwf	___fladd@b^0,f,c
  2863   0018E0  0E00               	movlw	0
  2864   0018E2  222C               	addwfc	(___fladd@b+1)^0,f,c
  2865   0018E4  222D               	addwfc	(___fladd@b+2)^0,f,c
  2866   0018E6  222E               	addwfc	(___fladd@b+3)^0,f,c
  2867   0018E8  A02E               	btfss	(___fladd@b+3)^0,0,c
  2868   0018EA  EF79  F00C         	goto	u5961
  2869   0018EE  EF7B  F00C         	goto	u5960
  2870   0018F2                     u5961:
  2871   0018F2  EF99  F00C         	goto	l6197
  2872   0018F6                     u5960:
  2873   0018F6  C02B  F033         	movff	___fladd@b,??___fladd
  2874   0018FA  C02C  F034         	movff	___fladd@b+1,??___fladd+1
  2875   0018FE  C02D  F035         	movff	___fladd@b+2,??___fladd+2
  2876   001902  C02E  F036         	movff	___fladd@b+3,??___fladd+3
  2877   001906  3436               	rlcf	(??___fladd+3)^0,w,c
  2878   001908  3236               	rrcf	(??___fladd+3)^0,f,c
  2879   00190A  3235               	rrcf	(??___fladd+2)^0,f,c
  2880   00190C  3234               	rrcf	(??___fladd+1)^0,f,c
  2881   00190E  3233               	rrcf	??___fladd^0,f,c
  2882   001910  C033  F02B         	movff	??___fladd,___fladd@b
  2883   001914  C034  F02C         	movff	??___fladd+1,___fladd@b+1
  2884   001918  C035  F02D         	movff	??___fladd+2,___fladd@b+2
  2885   00191C  C036  F02E         	movff	??___fladd+3,___fladd@b+3
  2886   001920  2839               	incf	___fladd@bexp^0,w,c
  2887   001922  B4D8               	btfsc	status,2,c
  2888   001924  EF96  F00C         	goto	u5971
  2889   001928  EF98  F00C         	goto	u5970
  2890   00192C                     u5971:
  2891   00192C  EF99  F00C         	goto	l6197
  2892   001930                     u5970:
  2893   001930  2A39               	incf	___fladd@bexp^0,f,c
  2894   001932                     l6197:
  2895   001932  2839               	incf	___fladd@bexp^0,w,c
  2896   001934  B4D8               	btfsc	status,2,c
  2897   001936  EF9F  F00C         	goto	u5981
  2898   00193A  EFA1  F00C         	goto	u5980
  2899   00193E                     u5981:
  2900   00193E  EFA9  F00C         	goto	l6201
  2901   001942                     u5980:
  2902   001942  5039               	movf	___fladd@bexp^0,w,c
  2903   001944  A4D8               	btfss	status,2,c
  2904   001946  EFA7  F00C         	goto	u5991
  2905   00194A  EFA9  F00C         	goto	u5990
  2906   00194E                     u5991:
  2907   00194E  EFBB  F00C         	goto	l6205
  2908   001952                     u5990:
  2909   001952                     l6201:
  2910   001952  0E00               	movlw	0
  2911   001954  6E2B               	movwf	___fladd@b^0,c
  2912   001956  0E00               	movlw	0
  2913   001958  6E2C               	movwf	(___fladd@b+1)^0,c
  2914   00195A  0E00               	movlw	0
  2915   00195C  6E2D               	movwf	(___fladd@b+2)^0,c
  2916   00195E  0E00               	movlw	0
  2917   001960  6E2E               	movwf	(___fladd@b+3)^0,c
  2918   001962  5039               	movf	___fladd@bexp^0,w,c
  2919   001964  A4D8               	btfss	status,2,c
  2920   001966  EFB7  F00C         	goto	u6001
  2921   00196A  EFB9  F00C         	goto	u6000
  2922   00196E                     u6001:
  2923   00196E  EFBB  F00C         	goto	l6205
  2924   001972                     u6000:
  2925   001972  0E00               	movlw	0
  2926   001974  6E37               	movwf	___fladd@signs^0,c
  2927   001976                     l6205:
  2928   001976  A039               	btfss	___fladd@bexp^0,0,c
  2929   001978  EFC0  F00C         	goto	u6011
  2930   00197C  EFC2  F00C         	goto	u6010
  2931   001980                     u6011:
  2932   001980  EFC5  F00C         	goto	l6209
  2933   001984                     u6010:
  2934   001984  8E2D               	bsf	(___fladd@b+2)^0,7,c
  2935   001986  EFC6  F00C         	goto	l6211
  2936   00198A                     l6209:
  2937   00198A  9E2D               	bcf	(___fladd@b+2)^0,7,c
  2938   00198C                     l6211:
  2939   00198C  90D8               	bcf	status,0,c
  2940   00198E  3039               	rrcf	___fladd@bexp^0,w,c
  2941   001990  6E2E               	movwf	(___fladd@b+3)^0,c
  2942   001992  AE37               	btfss	___fladd@signs^0,7,c
  2943   001994  EFCE  F00C         	goto	u6021
  2944   001998  EFD0  F00C         	goto	u6020
  2945   00199C                     u6021:
  2946   00199C  EFD1  F00C         	goto	l6217
  2947   0019A0                     u6020:
  2948   0019A0  8E2E               	bsf	(___fladd@b+3)^0,7,c
  2949   0019A2                     l6217:
  2950   0019A2  C02B  F02B         	movff	___fladd@b,?___fladd
  2951   0019A6  C02C  F02C         	movff	___fladd@b+1,?___fladd+1
  2952   0019AA  C02D  F02D         	movff	___fladd@b+2,?___fladd+2
  2953   0019AE  C02E  F02E         	movff	___fladd@b+3,?___fladd+3
  2954   0019B2                     l1674:
  2955   0019B2  0012               	return		;funcret
  2956   0019B4                     __end_of___fladd:
  2957                           	callstack 0
  2958                           
  2959 ;; *************** function _EUSART_ASYNC_TX_Init *****************
  2960 ;; Defined at:
  2961 ;;		line 207 in file "MCAL_Layer/EUSART/hal_usart.c"
  2962 ;; Parameters:    Size  Location     Type
  2963 ;;  _eusart         2    3[COMRAM] PTR const struct .
  2964 ;;		 -> usart_interrupt_init@usart_obj(18), 
  2965 ;; Auto vars:     Size  Location     Type
  2966 ;;		None
  2967 ;; Return value:  Size  Location     Type
  2968 ;;                  1    wreg      void 
  2969 ;; Registers used:
  2970 ;;		wreg, fsr2l, fsr2h, status,2, status,0
  2971 ;; Tracked objects:
  2972 ;;		On entry : 0/0
  2973 ;;		On exit  : 0/0
  2974 ;;		Unchanged: 0/0
  2975 ;; Data sizes:     COMRAM   BANK0   BANK1   BANK2   BANK3   BANK4   BANK5   BANK6   BANK7   BANK8   BANK9  BANK10  BANK1
      +1  BANK12  BANK13  BANK14  BANK15
  2976 ;;      Params:         2       0       0       0       0       0       0       0       0       0       0       0       
      +0       0       0       0       0
  2977 ;;      Locals:         0       0       0       0       0       0       0       0       0       0       0       0       
      +0       0       0       0       0
  2978 ;;      Temps:          0       0       0       0       0       0       0       0       0       0       0       0       
      +0       0       0       0       0
  2979 ;;      Totals:         2       0       0       0       0       0       0       0       0       0       0       0       
      +0       0       0       0       0
  2980 ;;Total ram usage:        2 bytes
  2981 ;; Hardware stack levels used: 1
  2982 ;; Hardware stack levels required when called: 3
  2983 ;; This function calls:
  2984 ;;		Nothing
  2985 ;; This function is called by:
  2986 ;;		_EUSART_ASYNC_Init
  2987 ;; This function uses a non-reentrant model
  2988 ;;
  2989                           
  2990                           	psect	text8
  2991   00266A                     __ptext8:
  2992                           	callstack 0
  2993   00266A                     _EUSART_ASYNC_TX_Init:
  2994                           	callstack 25
  2995   00266A                     
  2996                           ;MCAL_Layer/EUSART/hal_usart.c: 207: static void EUSART_ASYNC_TX_Init(const usart_t* _eu
      +                          sart);MCAL_Layer/EUSART/hal_usart.c: 208: {;MCAL_Layer/EUSART/hal_usart.c: 209:     if(1
      +                           == _eusart->usart_tx_cfg.usart_tx_enable)
  2997   00266A  EE20 F005          	lfsr	2,5
  2998   00266E  5004               	movf	EUSART_ASYNC_TX_Init@_eusart^0,w,c
  2999   002670  26D9               	addwf	fsr2l,f,c
  3000   002672  5005               	movf	(EUSART_ASYNC_TX_Init@_eusart+1)^0,w,c
  3001   002674  22DA               	addwfc	fsr2h,f,c
  3002   002676  AADF               	btfss	indf2,5,c
  3003   002678  EF40  F013         	goto	u6431
  3004   00267C  EF42  F013         	goto	u6430
  3005   002680                     u6431:
  3006   002680  EF8E  F013         	goto	l597
  3007   002684                     u6430:
  3008   002684                     
  3009                           ;MCAL_Layer/EUSART/hal_usart.c: 210:     {;MCAL_Layer/EUSART/hal_usart.c: 211:         T
      +                          XSTAbits.TXEN = 1;
  3010   002684  8AAC               	bsf	172,5,c	;volatile
  3011   002686                     
  3012                           ;MCAL_Layer/EUSART/hal_usart.c: 212:         EUSART_TxInterruptHandler = _eusart->EUSART
      +                          _Tx_DefaultInterruptHandler;
  3013   002686  EE20 F00A          	lfsr	2,10
  3014   00268A  5004               	movf	EUSART_ASYNC_TX_Init@_eusart^0,w,c
  3015   00268C  26D9               	addwf	fsr2l,f,c
  3016   00268E  5005               	movf	(EUSART_ASYNC_TX_Init@_eusart+1)^0,w,c
  3017   002690  22DA               	addwfc	fsr2h,f,c
  3018   002692  CFDE F05A          	movff	postinc2,_EUSART_TxInterruptHandler
  3019   002696  CFDD F05B          	movff	postdec2,_EUSART_TxInterruptHandler+1
  3020                           
  3021                           ;MCAL_Layer/EUSART/hal_usart.c: 215:         if(1 == _eusart->usart_tx_cfg.usart_tx_inte
      +                          rrupt_enable)
  3022   00269A  EE20 F005          	lfsr	2,5
  3023   00269E  5004               	movf	EUSART_ASYNC_TX_Init@_eusart^0,w,c
  3024   0026A0  26D9               	addwf	fsr2l,f,c
  3025   0026A2  5005               	movf	(EUSART_ASYNC_TX_Init@_eusart+1)^0,w,c
  3026   0026A4  22DA               	addwfc	fsr2h,f,c
  3027   0026A6  ACDF               	btfss	indf2,6,c
  3028   0026A8  EF58  F013         	goto	u6441
  3029   0026AC  EF5A  F013         	goto	u6440
  3030   0026B0                     u6441:
  3031   0026B0  EF60  F013         	goto	l6457
  3032   0026B4                     u6440:
  3033   0026B4                     
  3034                           ;MCAL_Layer/EUSART/hal_usart.c: 216:         {;MCAL_Layer/EUSART/hal_usart.c: 217:      
      +                                 PIE1bits.TXIE = 1;
  3035   0026B4  889D               	bsf	157,4,c	;volatile
  3036                           
  3037                           ;MCAL_Layer/EUSART/hal_usart.c: 220:         (PIE1bits.TXIE = 1);
  3038   0026B6  889D               	bsf	157,4,c	;volatile
  3039                           
  3040                           ;MCAL_Layer/EUSART/hal_usart.c: 234:         (INTCONbits.GIE = 1);
  3041   0026B8  8EF2               	bsf	242,7,c	;volatile
  3042                           
  3043                           ;MCAL_Layer/EUSART/hal_usart.c: 235:         (INTCONbits.PEIE = 1);
  3044   0026BA  8CF2               	bsf	242,6,c	;volatile
  3045                           
  3046                           ;MCAL_Layer/EUSART/hal_usart.c: 238:         }
  3047   0026BC  EF6E  F013         	goto	l6461
  3048   0026C0                     l6457:
  3049   0026C0  EE20 F005          	lfsr	2,5
  3050   0026C4  5004               	movf	EUSART_ASYNC_TX_Init@_eusart^0,w,c
  3051   0026C6  26D9               	addwf	fsr2l,f,c
  3052   0026C8  5005               	movf	(EUSART_ASYNC_TX_Init@_eusart+1)^0,w,c
  3053   0026CA  22DA               	addwfc	fsr2h,f,c
  3054   0026CC  BCDF               	btfsc	indf2,6,c
  3055   0026CE  EF6B  F013         	goto	u6451
  3056   0026D2  EF6D  F013         	goto	u6450
  3057   0026D6                     u6451:
  3058   0026D6  EF6E  F013         	goto	l6461
  3059   0026DA                     u6450:
  3060   0026DA                     
  3061                           ;MCAL_Layer/EUSART/hal_usart.c: 240:         {;MCAL_Layer/EUSART/hal_usart.c: 241:      
      +                                 PIE1bits.TXIE = 0;
  3062   0026DA  989D               	bcf	157,4,c	;volatile
  3063   0026DC                     l6461:
  3064                           
  3065                           ;MCAL_Layer/EUSART/hal_usart.c: 246:         if(1 == _eusart->usart_tx_cfg.usart_tx_9bit
      +                          _enable)
  3066   0026DC  EE20 F005          	lfsr	2,5
  3067   0026E0  5004               	movf	EUSART_ASYNC_TX_Init@_eusart^0,w,c
  3068   0026E2  26D9               	addwf	fsr2l,f,c
  3069   0026E4  5005               	movf	(EUSART_ASYNC_TX_Init@_eusart+1)^0,w,c
  3070   0026E6  22DA               	addwfc	fsr2h,f,c
  3071   0026E8  AEDF               	btfss	indf2,7,c
  3072   0026EA  EF79  F013         	goto	u6461
  3073   0026EE  EF7B  F013         	goto	u6460
  3074   0026F2                     u6461:
  3075   0026F2  EF7E  F013         	goto	l6465
  3076   0026F6                     u6460:
  3077   0026F6                     
  3078                           ;MCAL_Layer/EUSART/hal_usart.c: 247:         {;MCAL_Layer/EUSART/hal_usart.c: 248:      
      +                                 TXSTAbits.TX9 = 1;
  3079   0026F6  8CAC               	bsf	172,6,c	;volatile
  3080                           
  3081                           ;MCAL_Layer/EUSART/hal_usart.c: 249:         }
  3082   0026F8  EF8E  F013         	goto	l597
  3083   0026FC                     l6465:
  3084   0026FC  EE20 F005          	lfsr	2,5
  3085   002700  5004               	movf	EUSART_ASYNC_TX_Init@_eusart^0,w,c
  3086   002702  26D9               	addwf	fsr2l,f,c
  3087   002704  5005               	movf	(EUSART_ASYNC_TX_Init@_eusart+1)^0,w,c
  3088   002706  22DA               	addwfc	fsr2h,f,c
  3089   002708  BEDF               	btfsc	indf2,7,c
  3090   00270A  EF89  F013         	goto	u6471
  3091   00270E  EF8B  F013         	goto	u6470
  3092   002712                     u6471:
  3093   002712  EF8E  F013         	goto	l593
  3094   002716                     u6470:
  3095   002716                     
  3096                           ;MCAL_Layer/EUSART/hal_usart.c: 251:         {;MCAL_Layer/EUSART/hal_usart.c: 252:      
      +                                 TXSTAbits.TX9 = 0;
  3097   002716  9CAC               	bcf	172,6,c	;volatile
  3098                           
  3099                           ;MCAL_Layer/EUSART/hal_usart.c: 253:         }
  3100   002718  EF8E  F013         	goto	l597
  3101   00271C                     l593:
  3102   00271C                     l597:
  3103   00271C  0012               	return		;funcret
  3104   00271E                     __end_of_EUSART_ASYNC_TX_Init:
  3105                           	callstack 0
  3106                           
  3107 ;; *************** function _EUSART_ASYNC_RX_Init *****************
  3108 ;; Defined at:
  3109 ;;		line 260 in file "MCAL_Layer/EUSART/hal_usart.c"
  3110 ;; Parameters:    Size  Location     Type
  3111 ;;  _eusart         2    3[COMRAM] PTR const struct .
  3112 ;;		 -> usart_interrupt_init@usart_obj(18), 
  3113 ;; Auto vars:     Size  Location     Type
  3114 ;;		None
  3115 ;; Return value:  Size  Location     Type
  3116 ;;                  1    wreg      void 
  3117 ;; Registers used:
  3118 ;;		wreg, fsr2l, fsr2h, status,2, status,0
  3119 ;; Tracked objects:
  3120 ;;		On entry : 0/0
  3121 ;;		On exit  : 0/0
  3122 ;;		Unchanged: 0/0
  3123 ;; Data sizes:     COMRAM   BANK0   BANK1   BANK2   BANK3   BANK4   BANK5   BANK6   BANK7   BANK8   BANK9  BANK10  BANK1
      +1  BANK12  BANK13  BANK14  BANK15
  3124 ;;      Params:         2       0       0       0       0       0       0       0       0       0       0       0       
      +0       0       0       0       0
  3125 ;;      Locals:         0       0       0       0       0       0       0       0       0       0       0       0       
      +0       0       0       0       0
  3126 ;;      Temps:          0       0       0       0       0       0       0       0       0       0       0       0       
      +0       0       0       0       0
  3127 ;;      Totals:         2       0       0       0       0       0       0       0       0       0       0       0       
      +0       0       0       0       0
  3128 ;;Total ram usage:        2 bytes
  3129 ;; Hardware stack levels used: 1
  3130 ;; Hardware stack levels required when called: 3
  3131 ;; This function calls:
  3132 ;;		Nothing
  3133 ;; This function is called by:
  3134 ;;		_EUSART_ASYNC_Init
  3135 ;; This function uses a non-reentrant model
  3136 ;;
  3137                           
  3138                           	psect	text9
  3139   00258E                     __ptext9:
  3140                           	callstack 0
  3141   00258E                     _EUSART_ASYNC_RX_Init:
  3142                           	callstack 25
  3143   00258E                     
  3144                           ;MCAL_Layer/EUSART/hal_usart.c: 260: static void EUSART_ASYNC_RX_Init(const usart_t* _eu
      +                          sart);MCAL_Layer/EUSART/hal_usart.c: 261: {;MCAL_Layer/EUSART/hal_usart.c: 262:     if(1
      +                           == _eusart->usart_rx_cfg.usart_rx_enable)
  3145   00258E  EE20 F007          	lfsr	2,7
  3146   002592  5004               	movf	EUSART_ASYNC_RX_Init@_eusart^0,w,c
  3147   002594  26D9               	addwf	fsr2l,f,c
  3148   002596  5005               	movf	(EUSART_ASYNC_RX_Init@_eusart+1)^0,w,c
  3149   002598  22DA               	addwfc	fsr2h,f,c
  3150   00259A  AADF               	btfss	indf2,5,c
  3151   00259C  EFD2  F012         	goto	u6481
  3152   0025A0  EFD4  F012         	goto	u6480
  3153   0025A4                     u6481:
  3154   0025A4  EF34  F013         	goto	l610
  3155   0025A8                     u6480:
  3156   0025A8                     
  3157                           ;MCAL_Layer/EUSART/hal_usart.c: 263:     {;MCAL_Layer/EUSART/hal_usart.c: 264:         R
      +                          CSTAbits.CREN = 1;
  3158   0025A8  88AB               	bsf	171,4,c	;volatile
  3159   0025AA                     
  3160                           ;MCAL_Layer/EUSART/hal_usart.c: 265:         EUSART_RxInterruptHandler = _eusart->EUSART
      +                          _Rx_DefaultInterruptHandler;
  3161   0025AA  EE20 F00C          	lfsr	2,12
  3162   0025AE  5004               	movf	EUSART_ASYNC_RX_Init@_eusart^0,w,c
  3163   0025B0  26D9               	addwf	fsr2l,f,c
  3164   0025B2  5005               	movf	(EUSART_ASYNC_RX_Init@_eusart+1)^0,w,c
  3165   0025B4  22DA               	addwfc	fsr2h,f,c
  3166   0025B6  CFDE F058          	movff	postinc2,_EUSART_RxInterruptHandler
  3167   0025BA  CFDD F059          	movff	postdec2,_EUSART_RxInterruptHandler+1
  3168                           
  3169                           ;MCAL_Layer/EUSART/hal_usart.c: 266:         EUSART_FramingErrorHandler = _eusart->EUSAR
      +                          T_FramingErrorHandler;
  3170   0025BE  EE20 F00E          	lfsr	2,14
  3171   0025C2  5004               	movf	EUSART_ASYNC_RX_Init@_eusart^0,w,c
  3172   0025C4  26D9               	addwf	fsr2l,f,c
  3173   0025C6  5005               	movf	(EUSART_ASYNC_RX_Init@_eusart+1)^0,w,c
  3174   0025C8  22DA               	addwfc	fsr2h,f,c
  3175   0025CA  CFDE F056          	movff	postinc2,_EUSART_FramingErrorHandler
  3176   0025CE  CFDD F057          	movff	postdec2,_EUSART_FramingErrorHandler+1
  3177                           
  3178                           ;MCAL_Layer/EUSART/hal_usart.c: 267:         EUSART_OverrunErrorHandler = _eusart->EUSAR
      +                          T_OverrunErrorHandler;
  3179   0025D2  EE20 F010          	lfsr	2,16
  3180   0025D6  5004               	movf	EUSART_ASYNC_RX_Init@_eusart^0,w,c
  3181   0025D8  26D9               	addwf	fsr2l,f,c
  3182   0025DA  5005               	movf	(EUSART_ASYNC_RX_Init@_eusart+1)^0,w,c
  3183   0025DC  22DA               	addwfc	fsr2h,f,c
  3184   0025DE  CFDE F054          	movff	postinc2,_EUSART_OverrunErrorHandler
  3185   0025E2  CFDD F055          	movff	postdec2,_EUSART_OverrunErrorHandler+1
  3186                           
  3187                           ;MCAL_Layer/EUSART/hal_usart.c: 269:         if(1 == _eusart->usart_rx_cfg.usart_rx_inte
      +                          rrupt_enable)
  3188   0025E6  EE20 F007          	lfsr	2,7
  3189   0025EA  5004               	movf	EUSART_ASYNC_RX_Init@_eusart^0,w,c
  3190   0025EC  26D9               	addwf	fsr2l,f,c
  3191   0025EE  5005               	movf	(EUSART_ASYNC_RX_Init@_eusart+1)^0,w,c
  3192   0025F0  22DA               	addwfc	fsr2h,f,c
  3193   0025F2  ACDF               	btfss	indf2,6,c
  3194   0025F4  EFFE  F012         	goto	u6491
  3195   0025F8  EF00  F013         	goto	u6490
  3196   0025FC                     u6491:
  3197   0025FC  EF06  F013         	goto	l6477
  3198   002600                     u6490:
  3199   002600                     
  3200                           ;MCAL_Layer/EUSART/hal_usart.c: 270:         {;MCAL_Layer/EUSART/hal_usart.c: 271:      
      +                                 PIE1bits.RCIE = 1;
  3201   002600  8A9D               	bsf	157,5,c	;volatile
  3202                           
  3203                           ;MCAL_Layer/EUSART/hal_usart.c: 274:         (PIE1bits.RCIE = 1);
  3204   002602  8A9D               	bsf	157,5,c	;volatile
  3205                           
  3206                           ;MCAL_Layer/EUSART/hal_usart.c: 288:         (INTCONbits.GIE = 1);
  3207   002604  8EF2               	bsf	242,7,c	;volatile
  3208                           
  3209                           ;MCAL_Layer/EUSART/hal_usart.c: 289:         (INTCONbits.PEIE = 1);
  3210   002606  8CF2               	bsf	242,6,c	;volatile
  3211                           
  3212                           ;MCAL_Layer/EUSART/hal_usart.c: 293:         }
  3213   002608  EF14  F013         	goto	l6481
  3214   00260C                     l6477:
  3215   00260C  EE20 F007          	lfsr	2,7
  3216   002610  5004               	movf	EUSART_ASYNC_RX_Init@_eusart^0,w,c
  3217   002612  26D9               	addwf	fsr2l,f,c
  3218   002614  5005               	movf	(EUSART_ASYNC_RX_Init@_eusart+1)^0,w,c
  3219   002616  22DA               	addwfc	fsr2h,f,c
  3220   002618  BCDF               	btfsc	indf2,6,c
  3221   00261A  EF11  F013         	goto	u6501
  3222   00261E  EF13  F013         	goto	u6500
  3223   002622                     u6501:
  3224   002622  EF14  F013         	goto	l6481
  3225   002626                     u6500:
  3226   002626                     
  3227                           ;MCAL_Layer/EUSART/hal_usart.c: 295:         {;MCAL_Layer/EUSART/hal_usart.c: 296:      
      +                                 PIE1bits.RCIE = 0;
  3228   002626  9A9D               	bcf	157,5,c	;volatile
  3229   002628                     l6481:
  3230                           
  3231                           ;MCAL_Layer/EUSART/hal_usart.c: 301:         if(1 == _eusart->usart_rx_cfg.usart_rx_9bit
      +                          _enable)
  3232   002628  EE20 F007          	lfsr	2,7
  3233   00262C  5004               	movf	EUSART_ASYNC_RX_Init@_eusart^0,w,c
  3234   00262E  26D9               	addwf	fsr2l,f,c
  3235   002630  5005               	movf	(EUSART_ASYNC_RX_Init@_eusart+1)^0,w,c
  3236   002632  22DA               	addwfc	fsr2h,f,c
  3237   002634  AEDF               	btfss	indf2,7,c
  3238   002636  EF1F  F013         	goto	u6511
  3239   00263A  EF21  F013         	goto	u6510
  3240   00263E                     u6511:
  3241   00263E  EF24  F013         	goto	l6485
  3242   002642                     u6510:
  3243   002642                     
  3244                           ;MCAL_Layer/EUSART/hal_usart.c: 302:         {;MCAL_Layer/EUSART/hal_usart.c: 303:      
      +                                 RCSTAbits.RX9 = 1;
  3245   002642  8CAB               	bsf	171,6,c	;volatile
  3246                           
  3247                           ;MCAL_Layer/EUSART/hal_usart.c: 304:         }
  3248   002644  EF34  F013         	goto	l610
  3249   002648                     l6485:
  3250   002648  EE20 F007          	lfsr	2,7
  3251   00264C  5004               	movf	EUSART_ASYNC_RX_Init@_eusart^0,w,c
  3252   00264E  26D9               	addwf	fsr2l,f,c
  3253   002650  5005               	movf	(EUSART_ASYNC_RX_Init@_eusart+1)^0,w,c
  3254   002652  22DA               	addwfc	fsr2h,f,c
  3255   002654  BEDF               	btfsc	indf2,7,c
  3256   002656  EF2F  F013         	goto	u6521
  3257   00265A  EF31  F013         	goto	u6520
  3258   00265E                     u6521:
  3259   00265E  EF34  F013         	goto	l606
  3260   002662                     u6520:
  3261   002662                     
  3262                           ;MCAL_Layer/EUSART/hal_usart.c: 306:         {;MCAL_Layer/EUSART/hal_usart.c: 307:      
      +                                 RCSTAbits.RX9 = 0;
  3263   002662  9CAB               	bcf	171,6,c	;volatile
  3264                           
  3265                           ;MCAL_Layer/EUSART/hal_usart.c: 308:         }
  3266   002664  EF34  F013         	goto	l610
  3267   002668                     l606:
  3268   002668                     l610:
  3269   002668  0012               	return		;funcret
  3270   00266A                     __end_of_EUSART_ASYNC_RX_Init:
  3271                           	callstack 0
  3272                           
  3273 ;; *************** function _led_initialize *****************
  3274 ;; Defined at:
  3275 ;;		line 17 in file "ECU_Layer/LED/ecu_led.c"
  3276 ;; Parameters:    Size  Location     Type
  3277 ;;  led             2   17[COMRAM] PTR const struct .
  3278 ;;		 -> led2(1), led1(1), 
  3279 ;; Auto vars:     Size  Location     Type
  3280 ;;  pin_obj         1   21[COMRAM] struct .
  3281 ;;  ret             1   20[COMRAM] unsigned char 
  3282 ;; Return value:  Size  Location     Type
  3283 ;;                  1    wreg      unsigned char 
  3284 ;; Registers used:
  3285 ;;		wreg, fsr2l, fsr2h, status,2, status,0, prodl, prodh, cstack
  3286 ;; Tracked objects:
  3287 ;;		On entry : 0/0
  3288 ;;		On exit  : 0/0
  3289 ;;		Unchanged: 0/0
  3290 ;; Data sizes:     COMRAM   BANK0   BANK1   BANK2   BANK3   BANK4   BANK5   BANK6   BANK7   BANK8   BANK9  BANK10  BANK1
      +1  BANK12  BANK13  BANK14  BANK15
  3291 ;;      Params:         2       0       0       0       0       0       0       0       0       0       0       0       
      +0       0       0       0       0
  3292 ;;      Locals:         2       0       0       0       0       0       0       0       0       0       0       0       
      +0       0       0       0       0
  3293 ;;      Temps:          1       0       0       0       0       0       0       0       0       0       0       0       
      +0       0       0       0       0
  3294 ;;      Totals:         5       0       0       0       0       0       0       0       0       0       0       0       
      +0       0       0       0       0
  3295 ;;Total ram usage:        5 bytes
  3296 ;; Hardware stack levels used: 1
  3297 ;; Hardware stack levels required when called: 5
  3298 ;; This function calls:
  3299 ;;		_gpio_pin_initialize
  3300 ;; This function is called by:
  3301 ;;		_main
  3302 ;; This function uses a non-reentrant model
  3303 ;;
  3304                           
  3305                           	psect	text10
  3306   00271E                     __ptext10:
  3307                           	callstack 0
  3308   00271E                     _led_initialize:
  3309                           	callstack 25
  3310   00271E                     
  3311                           ;ECU_Layer/LED/ecu_led.c: 18:     Std_ReturnType ret = (Std_ReturnType)0x01 ;
  3312   00271E  0E01               	movlw	1
  3313   002720  6E15               	movwf	led_initialize@ret^0,c
  3314   002722                     
  3315                           ;ECU_Layer/LED/ecu_led.c: 19:     if(((void*)0) == led)
  3316   002722  5012               	movf	led_initialize@led^0,w,c
  3317   002724  1013               	iorwf	(led_initialize@led+1)^0,w,c
  3318   002726  A4D8               	btfss	status,2,c
  3319   002728  EF98  F013         	goto	u4221
  3320   00272C  EF9A  F013         	goto	u4220
  3321   002730                     u4221:
  3322   002730  EF9E  F013         	goto	l279
  3323   002734                     u4220:
  3324   002734                     
  3325                           ;ECU_Layer/LED/ecu_led.c: 20:     {;ECU_Layer/LED/ecu_led.c: 21:         ret = (Std_Retu
      +                          rnType)0x00;
  3326   002734  0E00               	movlw	0
  3327   002736  6E15               	movwf	led_initialize@ret^0,c
  3328                           
  3329                           ;ECU_Layer/LED/ecu_led.c: 22:     }
  3330   002738  EFCB  F013         	goto	l4923
  3331   00273C                     l279:
  3332                           
  3333                           ;ECU_Layer/LED/ecu_led.c: 24:     {;ECU_Layer/LED/ecu_led.c: 25:         pin_config_t pi
      +                          n_obj = { .port = led->port_name, .pin = led->pin ,
  3334   00273C  C065  F016         	movff	led_initialize@F3045,led_initialize@pin_obj
  3335   002740  C012  FFD9         	movff	led_initialize@led,fsr2l
  3336   002744  C013  FFDA         	movff	led_initialize@led+1,fsr2h
  3337   002748  50DF               	movf	223,w,c
  3338   00274A  0B0F               	andlw	15
  3339   00274C  6E14               	movwf	??_led_initialize^0,c
  3340   00274E  5016               	movf	led_initialize@pin_obj^0,w,c
  3341   002750  1814               	xorwf	??_led_initialize^0,w,c
  3342   002752  0BF8               	andlw	-8
  3343   002754  1814               	xorwf	??_led_initialize^0,w,c
  3344   002756  6E16               	movwf	led_initialize@pin_obj^0,c
  3345   002758  C012  FFD9         	movff	led_initialize@led,fsr2l
  3346   00275C  C013  FFDA         	movff	led_initialize@led+1,fsr2h
  3347   002760  38DF               	swapf	223,w,c
  3348   002762  0B07               	andlw	7
  3349   002764  6E14               	movwf	??_led_initialize^0,c
  3350   002766  4614               	rlncf	??_led_initialize^0,f,c
  3351   002768  4614               	rlncf	??_led_initialize^0,f,c
  3352   00276A  4614               	rlncf	??_led_initialize^0,f,c
  3353   00276C  5016               	movf	led_initialize@pin_obj^0,w,c
  3354   00276E  1814               	xorwf	??_led_initialize^0,w,c
  3355   002770  0BC7               	andlw	-57
  3356   002772  1814               	xorwf	??_led_initialize^0,w,c
  3357   002774  6E16               	movwf	led_initialize@pin_obj^0,c
  3358   002776  9C16               	bcf	led_initialize@pin_obj^0,6,c
  3359   002778  C012  FFD9         	movff	led_initialize@led,fsr2l
  3360   00277C  C013  FFDA         	movff	led_initialize@led+1,fsr2h
  3361   002780  AEDF               	btfss	indf2,7,c
  3362   002782  D002               	bra	u4235
  3363   002784  8E16               	bsf	led_initialize@pin_obj^0,7,c
  3364   002786  D001               	bra	u4237
  3365   002788                     u4235:
  3366   002788  9E16               	bcf	led_initialize@pin_obj^0,7,c
  3367   00278A                     u4237:
  3368   00278A                     
  3369                           ;ECU_Layer/LED/ecu_led.c: 28:         gpio_pin_initialize(&pin_obj);
  3370   00278A  0E16               	movlw	low led_initialize@pin_obj
  3371   00278C  6E0E               	movwf	gpio_pin_initialize@_pin_config^0,c
  3372   00278E  0E00               	movlw	high led_initialize@pin_obj
  3373   002790  6E0F               	movwf	(gpio_pin_initialize@_pin_config+1)^0,c
  3374   002792  ECFE  F013         	call	_gpio_pin_initialize	;wreg free
  3375   002796                     l4923:
  3376                           
  3377                           ;ECU_Layer/LED/ecu_led.c: 30:     return ret;
  3378   002796  5015               	movf	led_initialize@ret^0,w,c
  3379   002798  0012               	return		;funcret
  3380   00279A                     __end_of_led_initialize:
  3381                           	callstack 0
  3382                           
  3383 ;; *************** function _gpio_pin_initialize *****************
  3384 ;; Defined at:
  3385 ;;		line 134 in file "MCAL_Layer/GPIO/hal_gpio.c"
  3386 ;; Parameters:    Size  Location     Type
  3387 ;;  _pin_config     2   13[COMRAM] PTR struct .
  3388 ;;		 -> led_initialize@pin_obj(1), 
  3389 ;; Auto vars:     Size  Location     Type
  3390 ;;  ret             1   16[COMRAM] unsigned char 
  3391 ;; Return value:  Size  Location     Type
  3392 ;;                  1    wreg      unsigned char 
  3393 ;; Registers used:
  3394 ;;		wreg, fsr2l, fsr2h, status,2, status,0, prodl, prodh, cstack
  3395 ;; Tracked objects:
  3396 ;;		On entry : 0/0
  3397 ;;		On exit  : 0/0
  3398 ;;		Unchanged: 0/0
  3399 ;; Data sizes:     COMRAM   BANK0   BANK1   BANK2   BANK3   BANK4   BANK5   BANK6   BANK7   BANK8   BANK9  BANK10  BANK1
      +1  BANK12  BANK13  BANK14  BANK15
  3400 ;;      Params:         2       0       0       0       0       0       0       0       0       0       0       0       
      +0       0       0       0       0
  3401 ;;      Locals:         1       0       0       0       0       0       0       0       0       0       0       0       
      +0       0       0       0       0
  3402 ;;      Temps:          1       0       0       0       0       0       0       0       0       0       0       0       
      +0       0       0       0       0
  3403 ;;      Totals:         4       0       0       0       0       0       0       0       0       0       0       0       
      +0       0       0       0       0
  3404 ;;Total ram usage:        4 bytes
  3405 ;; Hardware stack levels used: 1
  3406 ;; Hardware stack levels required when called: 4
  3407 ;; This function calls:
  3408 ;;		_gpio_pin_direction_initialize
  3409 ;;		_gpio_pin_write_logic
  3410 ;; This function is called by:
  3411 ;;		_led_initialize
  3412 ;;		_lcd_4bit_initialize
  3413 ;;		_lcd_8bit_initialize
  3414 ;;		_keypad_initialize
  3415 ;; This function uses a non-reentrant model
  3416 ;;
  3417                           
  3418                           	psect	text11
  3419   0027FC                     __ptext11:
  3420                           	callstack 0
  3421   0027FC                     _gpio_pin_initialize:
  3422                           	callstack 25
  3423   0027FC                     
  3424                           ;MCAL_Layer/GPIO/hal_gpio.c: 136:     if(((void*)0) == _pin_config || _pin_config->pin >
      +                           (8 - 1))
  3425   0027FC  500E               	movf	gpio_pin_initialize@_pin_config^0,w,c
  3426   0027FE  100F               	iorwf	(gpio_pin_initialize@_pin_config+1)^0,w,c
  3427   002800  B4D8               	btfsc	status,2,c
  3428   002802  EF05  F014         	goto	u4061
  3429   002806  EF07  F014         	goto	u4060
  3430   00280A                     u4061:
  3431   00280A  EF18  F014         	goto	l4737
  3432   00280E                     u4060:
  3433   00280E  C00E  FFD9         	movff	gpio_pin_initialize@_pin_config,fsr2l
  3434   002812  C00F  FFDA         	movff	gpio_pin_initialize@_pin_config+1,fsr2h
  3435   002816  30DF               	rrcf	223,w,c
  3436   002818  32E8               	rrcf	wreg,f,c
  3437   00281A  32E8               	rrcf	wreg,f,c
  3438   00281C  0B07               	andlw	7
  3439   00281E  6E10               	movwf	??_gpio_pin_initialize^0,c
  3440   002820  0E07               	movlw	7
  3441   002822  6410               	cpfsgt	??_gpio_pin_initialize^0,c
  3442   002824  EF16  F014         	goto	u4071
  3443   002828  EF18  F014         	goto	u4070
  3444   00282C                     u4071:
  3445   00282C  EF1C  F014         	goto	l4739
  3446   002830                     u4070:
  3447   002830                     l4737:
  3448                           
  3449                           ;MCAL_Layer/GPIO/hal_gpio.c: 137:     {;MCAL_Layer/GPIO/hal_gpio.c: 138:         ret = (
      +                          Std_ReturnType)0x00;
  3450   002830  0E00               	movlw	0
  3451   002832  6E11               	movwf	gpio_pin_initialize@ret^0,c
  3452                           
  3453                           ;MCAL_Layer/GPIO/hal_gpio.c: 139:     }
  3454   002834  EF2C  F014         	goto	l4741
  3455   002838                     l4739:
  3456                           
  3457                           ;MCAL_Layer/GPIO/hal_gpio.c: 141:     {;MCAL_Layer/GPIO/hal_gpio.c: 142:         ret = g
      +                          pio_pin_direction_initialize(_pin_config);
  3458   002838  C00E  F004         	movff	gpio_pin_initialize@_pin_config,gpio_pin_direction_initialize@_pin_config
  3459   00283C  C00F  F005         	movff	gpio_pin_initialize@_pin_config+1,gpio_pin_direction_initialize@_pin_config+1
  3460   002840  EC0C  F011         	call	_gpio_pin_direction_initialize	;wreg free
  3461   002844  6E11               	movwf	gpio_pin_initialize@ret^0,c
  3462                           
  3463                           ;MCAL_Layer/GPIO/hal_gpio.c: 143:         ret = gpio_pin_write_logic(_pin_config, GPIO_L
      +                          OW);
  3464   002846  C00E  F004         	movff	gpio_pin_initialize@_pin_config,gpio_pin_write_logic@_pin_config
  3465   00284A  C00F  F005         	movff	gpio_pin_initialize@_pin_config+1,gpio_pin_write_logic@_pin_config+1
  3466   00284E  0E00               	movlw	0
  3467   002850  6E06               	movwf	gpio_pin_write_logic@logic^0,c
  3468   002852  ECAE  F011         	call	_gpio_pin_write_logic	;wreg free
  3469   002856  6E11               	movwf	gpio_pin_initialize@ret^0,c
  3470   002858                     l4741:
  3471                           
  3472                           ;MCAL_Layer/GPIO/hal_gpio.c: 145:     return ret;
  3473   002858  5011               	movf	gpio_pin_initialize@ret^0,w,c
  3474   00285A  0012               	return		;funcret
  3475   00285C                     __end_of_gpio_pin_initialize:
  3476                           	callstack 0
  3477                           
  3478 ;; *************** function _gpio_pin_write_logic *****************
  3479 ;; Defined at:
  3480 ;;		line 78 in file "MCAL_Layer/GPIO/hal_gpio.c"
  3481 ;; Parameters:    Size  Location     Type
  3482 ;;  _pin_config     2    3[COMRAM] PTR struct .
  3483 ;;		 -> relay_turn_off@pin_obj(1), relay_turn_on@pin_obj(1), led_turn_off@pin_obj(1), led_turn_on@pin_obj(1), 
  3484 ;;		 -> led_initialize@pin_obj(1), 
  3485 ;;  logic           1    5[COMRAM] enum E2965
  3486 ;; Auto vars:     Size  Location     Type
  3487 ;;  ret             1   12[COMRAM] unsigned char 
  3488 ;; Return value:  Size  Location     Type
  3489 ;;                  1    wreg      unsigned char 
  3490 ;; Registers used:
  3491 ;;		wreg, fsr2l, fsr2h, status,2, status,0, prodl, prodh
  3492 ;; Tracked objects:
  3493 ;;		On entry : 0/0
  3494 ;;		On exit  : 0/0
  3495 ;;		Unchanged: 0/0
  3496 ;; Data sizes:     COMRAM   BANK0   BANK1   BANK2   BANK3   BANK4   BANK5   BANK6   BANK7   BANK8   BANK9  BANK10  BANK1
      +1  BANK12  BANK13  BANK14  BANK15
  3497 ;;      Params:         3       0       0       0       0       0       0       0       0       0       0       0       
      +0       0       0       0       0
  3498 ;;      Locals:         1       0       0       0       0       0       0       0       0       0       0       0       
      +0       0       0       0       0
  3499 ;;      Temps:          6       0       0       0       0       0       0       0       0       0       0       0       
      +0       0       0       0       0
  3500 ;;      Totals:        10       0       0       0       0       0       0       0       0       0       0       0       
      +0       0       0       0       0
  3501 ;;Total ram usage:       10 bytes
  3502 ;; Hardware stack levels used: 1
  3503 ;; Hardware stack levels required when called: 3
  3504 ;; This function calls:
  3505 ;;		Nothing
  3506 ;; This function is called by:
  3507 ;;		_gpio_pin_initialize
  3508 ;;		_seven_segment_write_number
  3509 ;;		_lcd_4bit_send_command
  3510 ;;		_lcd_4bit_send_char_data
  3511 ;;		_lcd_8bit_send_command
  3512 ;;		_lcd_8bit_send_char_data
  3513 ;;		_lcd_send_4bits
  3514 ;;		_lcd_4bit_send_enable_signal
  3515 ;;		_lcd_8bit_send_enable_signal
  3516 ;;		_dc_motor_move_right
  3517 ;;		_dc_motor_move_left
  3518 ;;		_dc_motor_stop
  3519 ;;		_keypad_get_value
  3520 ;;		_led_turn_on
  3521 ;;		_led_turn_off
  3522 ;;		_relay_turn_on
  3523 ;;		_relay_turn_off
  3524 ;; This function uses a non-reentrant model
  3525 ;;
  3526                           
  3527                           	psect	text12
  3528   00235C                     __ptext12:
  3529                           	callstack 0
  3530   00235C                     _gpio_pin_write_logic:
  3531                           	callstack 25
  3532   00235C                     
  3533                           ;MCAL_Layer/GPIO/hal_gpio.c: 79:     Std_ReturnType ret = (Std_ReturnType)0x01 ;
  3534   00235C  0E01               	movlw	1
  3535   00235E  6E0D               	movwf	gpio_pin_write_logic@ret^0,c
  3536   002360                     
  3537                           ;MCAL_Layer/GPIO/hal_gpio.c: 80:     if(((void*)0) == _pin_config || _pin_config->pin > 
      +                          (8 - 1))
  3538   002360  5004               	movf	gpio_pin_write_logic@_pin_config^0,w,c
  3539   002362  1005               	iorwf	(gpio_pin_write_logic@_pin_config+1)^0,w,c
  3540   002364  B4D8               	btfsc	status,2,c
  3541   002366  EFB7  F011         	goto	u3921
  3542   00236A  EFB9  F011         	goto	u3920
  3543   00236E                     u3921:
  3544   00236E  EFCA  F011         	goto	l4639
  3545   002372                     u3920:
  3546   002372  C004  FFD9         	movff	gpio_pin_write_logic@_pin_config,fsr2l
  3547   002376  C005  FFDA         	movff	gpio_pin_write_logic@_pin_config+1,fsr2h
  3548   00237A  30DF               	rrcf	223,w,c
  3549   00237C  32E8               	rrcf	wreg,f,c
  3550   00237E  32E8               	rrcf	wreg,f,c
  3551   002380  0B07               	andlw	7
  3552   002382  6E07               	movwf	??_gpio_pin_write_logic^0,c
  3553   002384  0E07               	movlw	7
  3554   002386  6407               	cpfsgt	??_gpio_pin_write_logic^0,c
  3555   002388  EFC8  F011         	goto	u3931
  3556   00238C  EFCA  F011         	goto	u3930
  3557   002390                     u3931:
  3558   002390  EF2D  F012         	goto	l4647
  3559   002394                     u3930:
  3560   002394                     l4639:
  3561                           
  3562                           ;MCAL_Layer/GPIO/hal_gpio.c: 81:     {;MCAL_Layer/GPIO/hal_gpio.c: 82:         ret = (St
      +                          d_ReturnType)0x00;
  3563   002394  0E00               	movlw	0
  3564   002396  6E0D               	movwf	gpio_pin_write_logic@ret^0,c
  3565                           
  3566                           ;MCAL_Layer/GPIO/hal_gpio.c: 83:     }
  3567   002398  EF42  F012         	goto	l4649
  3568   00239C                     l4641:
  3569                           
  3570                           ;MCAL_Layer/GPIO/hal_gpio.c: 89:                 (*lat_registers[_pin_config->port] &= ~
      +                          (((uint8)1) << _pin_config->pin));
  3571   00239C  C004  FFD9         	movff	gpio_pin_write_logic@_pin_config,fsr2l
  3572   0023A0  C005  FFDA         	movff	gpio_pin_write_logic@_pin_config+1,fsr2h
  3573   0023A4  30DF               	rrcf	223,w,c
  3574   0023A6  32E8               	rrcf	wreg,f,c
  3575   0023A8  32E8               	rrcf	wreg,f,c
  3576   0023AA  0B07               	andlw	7
  3577   0023AC  6E07               	movwf	??_gpio_pin_write_logic^0,c
  3578   0023AE  0E01               	movlw	1
  3579   0023B0  6E08               	movwf	(??_gpio_pin_write_logic+1)^0,c
  3580   0023B2  2A07               	incf	??_gpio_pin_write_logic^0,f,c
  3581   0023B4  EFDE  F011         	goto	u3944
  3582   0023B8                     u3945:
  3583   0023B8  90D8               	bcf	status,0,c
  3584   0023BA  3608               	rlcf	(??_gpio_pin_write_logic+1)^0,f,c
  3585   0023BC                     u3944:
  3586   0023BC  2E07               	decfsz	??_gpio_pin_write_logic^0,f,c
  3587   0023BE  EFDC  F011         	goto	u3945
  3588   0023C2  5008               	movf	(??_gpio_pin_write_logic+1)^0,w,c
  3589   0023C4  0AFF               	xorlw	255
  3590   0023C6  6E09               	movwf	(??_gpio_pin_write_logic+2)^0,c
  3591   0023C8  C004  FFD9         	movff	gpio_pin_write_logic@_pin_config,fsr2l
  3592   0023CC  C005  FFDA         	movff	gpio_pin_write_logic@_pin_config+1,fsr2h
  3593   0023D0  50DF               	movf	223,w,c
  3594   0023D2  0B07               	andlw	7
  3595   0023D4  6E0A               	movwf	(??_gpio_pin_write_logic+3)^0,c
  3596   0023D6  500A               	movf	(??_gpio_pin_write_logic+3)^0,w,c
  3597   0023D8  0D02               	mullw	2
  3598   0023DA  0EA8               	movlw	low _lat_registers
  3599   0023DC  24F3               	addwf	243,w,c
  3600   0023DE  6ED9               	movwf	fsr2l,c
  3601   0023E0  0E00               	movlw	high _lat_registers
  3602   0023E2  20F4               	addwfc	prodh,w,c
  3603   0023E4  6EDA               	movwf	fsr2h,c
  3604   0023E6  CFDE F00B          	movff	postinc2,??_gpio_pin_write_logic+4
  3605   0023EA  CFDD F00C          	movff	postdec2,??_gpio_pin_write_logic+5
  3606   0023EE  C00B  FFD9         	movff	??_gpio_pin_write_logic+4,fsr2l
  3607   0023F2  C00C  FFDA         	movff	??_gpio_pin_write_logic+5,fsr2h
  3608   0023F6  5009               	movf	(??_gpio_pin_write_logic+2)^0,w,c
  3609   0023F8  16DF               	andwf	indf2,f,c
  3610                           
  3611                           ;MCAL_Layer/GPIO/hal_gpio.c: 90:                 break;
  3612   0023FA  EF42  F012         	goto	l4649
  3613   0023FE                     l4643:
  3614                           
  3615                           ;MCAL_Layer/GPIO/hal_gpio.c: 92:                 (*lat_registers[_pin_config->port] |= (
      +                          ((uint8)1) << _pin_config->pin));
  3616   0023FE  C004  FFD9         	movff	gpio_pin_write_logic@_pin_config,fsr2l
  3617   002402  C005  FFDA         	movff	gpio_pin_write_logic@_pin_config+1,fsr2h
  3618   002406  30DF               	rrcf	223,w,c
  3619   002408  32E8               	rrcf	wreg,f,c
  3620   00240A  32E8               	rrcf	wreg,f,c
  3621   00240C  0B07               	andlw	7
  3622   00240E  6E07               	movwf	??_gpio_pin_write_logic^0,c
  3623   002410  0E01               	movlw	1
  3624   002412  6E08               	movwf	(??_gpio_pin_write_logic+1)^0,c
  3625   002414  2A07               	incf	??_gpio_pin_write_logic^0,f,c
  3626   002416  EF0F  F012         	goto	u3954
  3627   00241A                     u3955:
  3628   00241A  90D8               	bcf	status,0,c
  3629   00241C  3608               	rlcf	(??_gpio_pin_write_logic+1)^0,f,c
  3630   00241E                     u3954:
  3631   00241E  2E07               	decfsz	??_gpio_pin_write_logic^0,f,c
  3632   002420  EF0D  F012         	goto	u3955
  3633   002424  C004  FFD9         	movff	gpio_pin_write_logic@_pin_config,fsr2l
  3634   002428  C005  FFDA         	movff	gpio_pin_write_logic@_pin_config+1,fsr2h
  3635   00242C  50DF               	movf	223,w,c
  3636   00242E  0B07               	andlw	7
  3637   002430  6E09               	movwf	(??_gpio_pin_write_logic+2)^0,c
  3638   002432  5009               	movf	(??_gpio_pin_write_logic+2)^0,w,c
  3639   002434  0D02               	mullw	2
  3640   002436  0EA8               	movlw	low _lat_registers
  3641   002438  24F3               	addwf	243,w,c
  3642   00243A  6ED9               	movwf	fsr2l,c
  3643   00243C  0E00               	movlw	high _lat_registers
  3644   00243E  20F4               	addwfc	prodh,w,c
  3645   002440  6EDA               	movwf	fsr2h,c
  3646   002442  CFDE F00A          	movff	postinc2,??_gpio_pin_write_logic+3
  3647   002446  CFDD F00B          	movff	postdec2,??_gpio_pin_write_logic+4
  3648   00244A  C00A  FFD9         	movff	??_gpio_pin_write_logic+3,fsr2l
  3649   00244E  C00B  FFDA         	movff	??_gpio_pin_write_logic+4,fsr2h
  3650   002452  5008               	movf	(??_gpio_pin_write_logic+1)^0,w,c
  3651   002454  12DF               	iorwf	indf2,f,c
  3652                           
  3653                           ;MCAL_Layer/GPIO/hal_gpio.c: 93:                 break;
  3654   002456  EF42  F012         	goto	l4649
  3655   00245A                     l4647:
  3656   00245A  5006               	movf	gpio_pin_write_logic@logic^0,w,c
  3657   00245C  6E07               	movwf	??_gpio_pin_write_logic^0,c
  3658   00245E  6A08               	clrf	(??_gpio_pin_write_logic+1)^0,c
  3659                           
  3660                           ; Switch on 2 bytes has been partitioned into a top level switch of size 1, and 1 sub-sw
      +                          itches
  3661                           ; Switch size 1, requested type "simple"
  3662                           ; Number of cases is 1, Range of values is 0 to 0
  3663                           ; switch strategies available:
  3664                           ; Name         Instructions Cycles
  3665                           ; simple_byte            4     3 (average)
  3666                           ;	Chosen strategy is simple_byte
  3667   002460  5008               	movf	(??_gpio_pin_write_logic+1)^0,w,c
  3668   002462  0A00               	xorlw	0	; case 0
  3669   002464  B4D8               	btfsc	status,2,c
  3670   002466  EF37  F012         	goto	l6637
  3671   00246A  EFCA  F011         	goto	l4639
  3672   00246E                     l6637:
  3673                           
  3674                           ; Switch size 1, requested type "simple"
  3675                           ; Number of cases is 2, Range of values is 0 to 1
  3676                           ; switch strategies available:
  3677                           ; Name         Instructions Cycles
  3678                           ; simple_byte            7     4 (average)
  3679                           ;	Chosen strategy is simple_byte
  3680   00246E  5007               	movf	??_gpio_pin_write_logic^0,w,c
  3681   002470  0A00               	xorlw	0	; case 0
  3682   002472  B4D8               	btfsc	status,2,c
  3683   002474  EFCE  F011         	goto	l4641
  3684   002478  0A01               	xorlw	1	; case 1
  3685   00247A  B4D8               	btfsc	status,2,c
  3686   00247C  EFFF  F011         	goto	l4643
  3687   002480  EFCA  F011         	goto	l4639
  3688   002484                     l4649:
  3689                           
  3690                           ;MCAL_Layer/GPIO/hal_gpio.c: 99:     return ret;
  3691   002484  500D               	movf	gpio_pin_write_logic@ret^0,w,c
  3692   002486  0012               	return		;funcret
  3693   002488                     __end_of_gpio_pin_write_logic:
  3694                           	callstack 0
  3695                           
  3696 ;; *************** function _gpio_pin_direction_initialize *****************
  3697 ;; Defined at:
  3698 ;;		line 22 in file "MCAL_Layer/GPIO/hal_gpio.c"
  3699 ;; Parameters:    Size  Location     Type
  3700 ;;  _pin_config     2    3[COMRAM] PTR struct .
  3701 ;;		 -> relay_initialize@pin_obj(1), led_initialize@pin_obj(1), 
  3702 ;; Auto vars:     Size  Location     Type
  3703 ;;  ret             1   11[COMRAM] unsigned char 
  3704 ;; Return value:  Size  Location     Type
  3705 ;;                  1    wreg      unsigned char 
  3706 ;; Registers used:
  3707 ;;		wreg, fsr2l, fsr2h, status,2, status,0, prodl, prodh
  3708 ;; Tracked objects:
  3709 ;;		On entry : 0/0
  3710 ;;		On exit  : 0/0
  3711 ;;		Unchanged: 0/0
  3712 ;; Data sizes:     COMRAM   BANK0   BANK1   BANK2   BANK3   BANK4   BANK5   BANK6   BANK7   BANK8   BANK9  BANK10  BANK1
      +1  BANK12  BANK13  BANK14  BANK15
  3713 ;;      Params:         2       0       0       0       0       0       0       0       0       0       0       0       
      +0       0       0       0       0
  3714 ;;      Locals:         1       0       0       0       0       0       0       0       0       0       0       0       
      +0       0       0       0       0
  3715 ;;      Temps:          6       0       0       0       0       0       0       0       0       0       0       0       
      +0       0       0       0       0
  3716 ;;      Totals:         9       0       0       0       0       0       0       0       0       0       0       0       
      +0       0       0       0       0
  3717 ;;Total ram usage:        9 bytes
  3718 ;; Hardware stack levels used: 1
  3719 ;; Hardware stack levels required when called: 3
  3720 ;; This function calls:
  3721 ;;		Nothing
  3722 ;; This function is called by:
  3723 ;;		_gpio_pin_initialize
  3724 ;;		_seven_segment_initialize
  3725 ;;		_button_initialize
  3726 ;;		_dc_motor_initialize
  3727 ;;		_keypad_initialize
  3728 ;;		_relay_initialize
  3729 ;;		_Interrupt_RBx_Init
  3730 ;;		_Interrupt_INTx_Pin_Init
  3731 ;; This function uses a non-reentrant model
  3732 ;;
  3733                           
  3734                           	psect	text13
  3735   002218                     __ptext13:
  3736                           	callstack 0
  3737   002218                     _gpio_pin_direction_initialize:
  3738                           	callstack 25
  3739   002218                     
  3740                           ;MCAL_Layer/GPIO/hal_gpio.c: 22: Std_ReturnType gpio_pin_direction_initialize(pin_config
      +                          _t *_pin_config);MCAL_Layer/GPIO/hal_gpio.c: 23: {;MCAL_Layer/GPIO/hal_gpio.c: 24:     S
      +                          td_ReturnType ret = (Std_ReturnType)0x01 ;
  3741   002218  0E01               	movlw	1
  3742   00221A  6E0C               	movwf	gpio_pin_direction_initialize@ret^0,c
  3743   00221C                     
  3744                           ;MCAL_Layer/GPIO/hal_gpio.c: 25:     if(((void*)0) == _pin_config || _pin_config->pin > 
      +                          (8 - 1))
  3745   00221C  5004               	movf	gpio_pin_direction_initialize@_pin_config^0,w,c
  3746   00221E  1005               	iorwf	(gpio_pin_direction_initialize@_pin_config+1)^0,w,c
  3747   002220  B4D8               	btfsc	status,2,c
  3748   002222  EF15  F011         	goto	u3861
  3749   002226  EF17  F011         	goto	u3860
  3750   00222A                     u3861:
  3751   00222A  EF28  F011         	goto	l4615
  3752   00222E                     u3860:
  3753   00222E  C004  FFD9         	movff	gpio_pin_direction_initialize@_pin_config,fsr2l
  3754   002232  C005  FFDA         	movff	gpio_pin_direction_initialize@_pin_config+1,fsr2h
  3755   002236  30DF               	rrcf	223,w,c
  3756   002238  32E8               	rrcf	wreg,f,c
  3757   00223A  32E8               	rrcf	wreg,f,c
  3758   00223C  0B07               	andlw	7
  3759   00223E  6E06               	movwf	??_gpio_pin_direction_initialize^0,c
  3760   002240  0E07               	movlw	7
  3761   002242  6406               	cpfsgt	??_gpio_pin_direction_initialize^0,c
  3762   002244  EF26  F011         	goto	u3871
  3763   002248  EF28  F011         	goto	u3870
  3764   00224C                     u3871:
  3765   00224C  EF8B  F011         	goto	l4623
  3766   002250                     u3870:
  3767   002250                     l4615:
  3768                           
  3769                           ;MCAL_Layer/GPIO/hal_gpio.c: 26:     {;MCAL_Layer/GPIO/hal_gpio.c: 27:         ret = (St
      +                          d_ReturnType)0x00;
  3770   002250  0E00               	movlw	0
  3771   002252  6E0C               	movwf	gpio_pin_direction_initialize@ret^0,c
  3772                           
  3773                           ;MCAL_Layer/GPIO/hal_gpio.c: 28:     }
  3774   002254  EFAC  F011         	goto	l4625
  3775   002258                     l4617:
  3776                           
  3777                           ;MCAL_Layer/GPIO/hal_gpio.c: 33:                 (*tris_registers[_pin_config->port] &= 
      +                          ~(((uint8)1) << _pin_config->pin));
  3778   002258  C004  FFD9         	movff	gpio_pin_direction_initialize@_pin_config,fsr2l
  3779   00225C  C005  FFDA         	movff	gpio_pin_direction_initialize@_pin_config+1,fsr2h
  3780   002260  30DF               	rrcf	223,w,c
  3781   002262  32E8               	rrcf	wreg,f,c
  3782   002264  32E8               	rrcf	wreg,f,c
  3783   002266  0B07               	andlw	7
  3784   002268  6E06               	movwf	??_gpio_pin_direction_initialize^0,c
  3785   00226A  0E01               	movlw	1
  3786   00226C  6E07               	movwf	(??_gpio_pin_direction_initialize+1)^0,c
  3787   00226E  2A06               	incf	??_gpio_pin_direction_initialize^0,f,c
  3788   002270  EF3C  F011         	goto	u3884
  3789   002274                     u3885:
  3790   002274  90D8               	bcf	status,0,c
  3791   002276  3607               	rlcf	(??_gpio_pin_direction_initialize+1)^0,f,c
  3792   002278                     u3884:
  3793   002278  2E06               	decfsz	??_gpio_pin_direction_initialize^0,f,c
  3794   00227A  EF3A  F011         	goto	u3885
  3795   00227E  5007               	movf	(??_gpio_pin_direction_initialize+1)^0,w,c
  3796   002280  0AFF               	xorlw	255
  3797   002282  6E08               	movwf	(??_gpio_pin_direction_initialize+2)^0,c
  3798   002284  C004  FFD9         	movff	gpio_pin_direction_initialize@_pin_config,fsr2l
  3799   002288  C005  FFDA         	movff	gpio_pin_direction_initialize@_pin_config+1,fsr2h
  3800   00228C  50DF               	movf	223,w,c
  3801   00228E  0B07               	andlw	7
  3802   002290  6E09               	movwf	(??_gpio_pin_direction_initialize+3)^0,c
  3803   002292  5009               	movf	(??_gpio_pin_direction_initialize+3)^0,w,c
  3804   002294  0D02               	mullw	2
  3805   002296  0EB2               	movlw	low _tris_registers
  3806   002298  24F3               	addwf	243,w,c
  3807   00229A  6ED9               	movwf	fsr2l,c
  3808   00229C  0E00               	movlw	high _tris_registers
  3809   00229E  20F4               	addwfc	prodh,w,c
  3810   0022A0  6EDA               	movwf	fsr2h,c
  3811   0022A2  CFDE F00A          	movff	postinc2,??_gpio_pin_direction_initialize+4
  3812   0022A6  CFDD F00B          	movff	postdec2,??_gpio_pin_direction_initialize+5
  3813   0022AA  C00A  FFD9         	movff	??_gpio_pin_direction_initialize+4,fsr2l
  3814   0022AE  C00B  FFDA         	movff	??_gpio_pin_direction_initialize+5,fsr2h
  3815   0022B2  5008               	movf	(??_gpio_pin_direction_initialize+2)^0,w,c
  3816   0022B4  16DF               	andwf	indf2,f,c
  3817                           
  3818                           ;MCAL_Layer/GPIO/hal_gpio.c: 34:                 break;
  3819   0022B6  EFAC  F011         	goto	l4625
  3820   0022BA                     l4619:
  3821                           
  3822                           ;MCAL_Layer/GPIO/hal_gpio.c: 36:                 (*tris_registers[_pin_config->port] |= 
      +                          (((uint8)1) << _pin_config->pin));
  3823   0022BA  C004  FFD9         	movff	gpio_pin_direction_initialize@_pin_config,fsr2l
  3824   0022BE  C005  FFDA         	movff	gpio_pin_direction_initialize@_pin_config+1,fsr2h
  3825   0022C2  30DF               	rrcf	223,w,c
  3826   0022C4  32E8               	rrcf	wreg,f,c
  3827   0022C6  32E8               	rrcf	wreg,f,c
  3828   0022C8  0B07               	andlw	7
  3829   0022CA  6E06               	movwf	??_gpio_pin_direction_initialize^0,c
  3830   0022CC  0E01               	movlw	1
  3831   0022CE  6E07               	movwf	(??_gpio_pin_direction_initialize+1)^0,c
  3832   0022D0  2A06               	incf	??_gpio_pin_direction_initialize^0,f,c
  3833   0022D2  EF6D  F011         	goto	u3894
  3834   0022D6                     u3895:
  3835   0022D6  90D8               	bcf	status,0,c
  3836   0022D8  3607               	rlcf	(??_gpio_pin_direction_initialize+1)^0,f,c
  3837   0022DA                     u3894:
  3838   0022DA  2E06               	decfsz	??_gpio_pin_direction_initialize^0,f,c
  3839   0022DC  EF6B  F011         	goto	u3895
  3840   0022E0  C004  FFD9         	movff	gpio_pin_direction_initialize@_pin_config,fsr2l
  3841   0022E4  C005  FFDA         	movff	gpio_pin_direction_initialize@_pin_config+1,fsr2h
  3842   0022E8  50DF               	movf	223,w,c
  3843   0022EA  0B07               	andlw	7
  3844   0022EC  6E08               	movwf	(??_gpio_pin_direction_initialize+2)^0,c
  3845   0022EE  5008               	movf	(??_gpio_pin_direction_initialize+2)^0,w,c
  3846   0022F0  0D02               	mullw	2
  3847   0022F2  0EB2               	movlw	low _tris_registers
  3848   0022F4  24F3               	addwf	243,w,c
  3849   0022F6  6ED9               	movwf	fsr2l,c
  3850   0022F8  0E00               	movlw	high _tris_registers
  3851   0022FA  20F4               	addwfc	prodh,w,c
  3852   0022FC  6EDA               	movwf	fsr2h,c
  3853   0022FE  CFDE F009          	movff	postinc2,??_gpio_pin_direction_initialize+3
  3854   002302  CFDD F00A          	movff	postdec2,??_gpio_pin_direction_initialize+4
  3855   002306  C009  FFD9         	movff	??_gpio_pin_direction_initialize+3,fsr2l
  3856   00230A  C00A  FFDA         	movff	??_gpio_pin_direction_initialize+4,fsr2h
  3857   00230E  5007               	movf	(??_gpio_pin_direction_initialize+1)^0,w,c
  3858   002310  12DF               	iorwf	indf2,f,c
  3859                           
  3860                           ;MCAL_Layer/GPIO/hal_gpio.c: 37:                 break;
  3861   002312  EFAC  F011         	goto	l4625
  3862   002316                     l4623:
  3863   002316  C004  FFD9         	movff	gpio_pin_direction_initialize@_pin_config,fsr2l
  3864   00231A  C005  FFDA         	movff	gpio_pin_direction_initialize@_pin_config+1,fsr2h
  3865   00231E  BCDF               	btfsc	indf2,6,c
  3866   002320  EF94  F011         	goto	u3901
  3867   002324  EF97  F011         	goto	u3900
  3868   002328                     u3901:
  3869   002328  0E01               	movlw	1
  3870   00232A  EF98  F011         	goto	u3910
  3871   00232E                     u3900:
  3872   00232E  0E00               	movlw	0
  3873   002330                     u3910:
  3874   002330  6E06               	movwf	??_gpio_pin_direction_initialize^0,c
  3875   002332  6A07               	clrf	(??_gpio_pin_direction_initialize+1)^0,c
  3876                           
  3877                           ; Switch on 2 bytes has been partitioned into a top level switch of size 1, and 1 sub-sw
      +                          itches
  3878                           ; Switch size 1, requested type "simple"
  3879                           ; Number of cases is 1, Range of values is 0 to 0
  3880                           ; switch strategies available:
  3881                           ; Name         Instructions Cycles
  3882                           ; simple_byte            4     3 (average)
  3883                           ;	Chosen strategy is simple_byte
  3884   002334  5007               	movf	(??_gpio_pin_direction_initialize+1)^0,w,c
  3885   002336  0A00               	xorlw	0	; case 0
  3886   002338  B4D8               	btfsc	status,2,c
  3887   00233A  EFA1  F011         	goto	l6639
  3888   00233E  EF28  F011         	goto	l4615
  3889   002342                     l6639:
  3890                           
  3891                           ; Switch size 1, requested type "simple"
  3892                           ; Number of cases is 2, Range of values is 0 to 1
  3893                           ; switch strategies available:
  3894                           ; Name         Instructions Cycles
  3895                           ; simple_byte            7     4 (average)
  3896                           ;	Chosen strategy is simple_byte
  3897   002342  5006               	movf	??_gpio_pin_direction_initialize^0,w,c
  3898   002344  0A00               	xorlw	0	; case 0
  3899   002346  B4D8               	btfsc	status,2,c
  3900   002348  EF2C  F011         	goto	l4617
  3901   00234C  0A01               	xorlw	1	; case 1
  3902   00234E  B4D8               	btfsc	status,2,c
  3903   002350  EF5D  F011         	goto	l4619
  3904   002354  EF28  F011         	goto	l4615
  3905   002358                     l4625:
  3906                           
  3907                           ;MCAL_Layer/GPIO/hal_gpio.c: 42:     return ret;
  3908   002358  500C               	movf	gpio_pin_direction_initialize@ret^0,w,c
  3909   00235A  0012               	return		;funcret
  3910   00235C                     __end_of_gpio_pin_direction_initialize:
  3911                           	callstack 0
  3912                           
  3913 ;; *************** function _EUSART_ASYNC_WriteByteNonBlocking *****************
  3914 ;; Defined at:
  3915 ;;		line 92 in file "MCAL_Layer/EUSART/hal_usart.c"
  3916 ;; Parameters:    Size  Location     Type
  3917 ;;  _data           1    wreg     unsigned char 
  3918 ;; Auto vars:     Size  Location     Type
  3919 ;;  _data           1    3[COMRAM] unsigned char 
  3920 ;;  ret             1    4[COMRAM] unsigned char 
  3921 ;; Return value:  Size  Location     Type
  3922 ;;                  1    wreg      unsigned char 
  3923 ;; Registers used:
  3924 ;;		wreg, status,2
  3925 ;; Tracked objects:
  3926 ;;		On entry : 0/0
  3927 ;;		On exit  : 0/0
  3928 ;;		Unchanged: 0/0
  3929 ;; Data sizes:     COMRAM   BANK0   BANK1   BANK2   BANK3   BANK4   BANK5   BANK6   BANK7   BANK8   BANK9  BANK10  BANK1
      +1  BANK12  BANK13  BANK14  BANK15
  3930 ;;      Params:         0       0       0       0       0       0       0       0       0       0       0       0       
      +0       0       0       0       0
  3931 ;;      Locals:         2       0       0       0       0       0       0       0       0       0       0       0       
      +0       0       0       0       0
  3932 ;;      Temps:          0       0       0       0       0       0       0       0       0       0       0       0       
      +0       0       0       0       0
  3933 ;;      Totals:         2       0       0       0       0       0       0       0       0       0       0       0       
      +0       0       0       0       0
  3934 ;;Total ram usage:        2 bytes
  3935 ;; Hardware stack levels used: 1
  3936 ;; Hardware stack levels required when called: 3
  3937 ;; This function calls:
  3938 ;;		Nothing
  3939 ;; This function is called by:
  3940 ;;		_main
  3941 ;;		_EUSART_ASYNC_WriteStringNonBlocking
  3942 ;; This function uses a non-reentrant model
  3943 ;;
  3944                           
  3945                           	psect	text14
  3946   002958                     __ptext14:
  3947                           	callstack 0
  3948   002958                     _EUSART_ASYNC_WriteByteNonBlocking:
  3949                           	callstack 27
  3950                           
  3951                           ;incstack = 0
  3952                           ;EUSART_ASYNC_WriteByteNonBlocking@_data stored from wreg
  3953   002958  6E04               	movwf	EUSART_ASYNC_WriteByteNonBlocking@_data^0,c
  3954   00295A                     
  3955                           ;MCAL_Layer/EUSART/hal_usart.c: 92: Std_ReturnType EUSART_ASYNC_WriteByteNonBlocking(uin
      +                          t8 _data);MCAL_Layer/EUSART/hal_usart.c: 93: {;MCAL_Layer/EUSART/hal_usart.c: 94:     St
      +                          d_ReturnType ret = (Std_ReturnType)0x01;
  3956   00295A  0E01               	movlw	1
  3957   00295C  6E05               	movwf	EUSART_ASYNC_WriteByteNonBlocking@ret^0,c
  3958   00295E                     
  3959                           ;MCAL_Layer/EUSART/hal_usart.c: 95:     if(1 == TXSTAbits.TRMT){
  3960   00295E  A2AC               	btfss	172,1,c	;volatile
  3961   002960  EFB4  F014         	goto	u1261
  3962   002964  EFB6  F014         	goto	u1260
  3963   002968                     u1261:
  3964   002968  EFBB  F014         	goto	l2653
  3965   00296C                     u1260:
  3966   00296C                     
  3967                           ;MCAL_Layer/EUSART/hal_usart.c: 96:         (PIE1bits.TXIE = 1);
  3968   00296C  889D               	bsf	157,4,c	;volatile
  3969   00296E                     
  3970                           ;MCAL_Layer/EUSART/hal_usart.c: 97:         TXREG = _data;
  3971   00296E  C004  FFAD         	movff	EUSART_ASYNC_WriteByteNonBlocking@_data,4013	;volatile
  3972                           
  3973                           ;MCAL_Layer/EUSART/hal_usart.c: 102:     }
  3974   002972  EFBD  F014         	goto	l2655
  3975   002976                     l2653:
  3976                           
  3977                           ;MCAL_Layer/EUSART/hal_usart.c: 104:         ret = (Std_ReturnType)0x00;
  3978   002976  0E00               	movlw	0
  3979   002978  6E05               	movwf	EUSART_ASYNC_WriteByteNonBlocking@ret^0,c
  3980   00297A                     l2655:
  3981                           
  3982                           ;MCAL_Layer/EUSART/hal_usart.c: 106:     return ret;
  3983   00297A  5005               	movf	EUSART_ASYNC_WriteByteNonBlocking@ret^0,w,c
  3984   00297C  0012               	return		;funcret
  3985   00297E                     __end_of_EUSART_ASYNC_WriteByteNonBlocking:
  3986                           	callstack 0
  3987                           
  3988 ;; *************** function _InterruptManager *****************
  3989 ;; Defined at:
  3990 ;;		line 33 in file "MCAL_Layer/Interrupt/mcal_interrupt_manager.c"
  3991 ;; Parameters:    Size  Location     Type
  3992 ;;		None
  3993 ;; Auto vars:     Size  Location     Type
  3994 ;;		None
  3995 ;; Return value:  Size  Location     Type
  3996 ;;                  1    wreg      void 
  3997 ;; Registers used:
  3998 ;;		wreg, status,2, status,0, pcl, pclath, pclatu, tosl, cstack
  3999 ;; Tracked objects:
  4000 ;;		On entry : 0/0
  4001 ;;		On exit  : 0/0
  4002 ;;		Unchanged: 0/0
  4003 ;; Data sizes:     COMRAM   BANK0   BANK1   BANK2   BANK3   BANK4   BANK5   BANK6   BANK7   BANK8   BANK9  BANK10  BANK1
      +1  BANK12  BANK13  BANK14  BANK15
  4004 ;;      Params:         0       0       0       0       0       0       0       0       0       0       0       0       
      +0       0       0       0       0
  4005 ;;      Locals:         0       0       0       0       0       0       0       0       0       0       0       0       
      +0       0       0       0       0
  4006 ;;      Temps:          2       0       0       0       0       0       0       0       0       0       0       0       
      +0       0       0       0       0
  4007 ;;      Totals:         2       0       0       0       0       0       0       0       0       0       0       0       
      +0       0       0       0       0
  4008 ;;Total ram usage:        2 bytes
  4009 ;; Hardware stack levels used: 1
  4010 ;; Hardware stack levels required when called: 2
  4011 ;; This function calls:
  4012 ;;		_ADC_ISR
  4013 ;;		_EUSART_RX_ISR
  4014 ;;		_EUSART_TX_ISR
  4015 ;;		_INT0_ISR
  4016 ;;		_INT1_ISR
  4017 ;;		_INT2_ISR
  4018 ;;		_RB4_ISR
  4019 ;;		_RB5_ISR
  4020 ;;		_RB6_ISR
  4021 ;;		_RB7_ISR
  4022 ;;		_TMR0_ISR
  4023 ;; This function is called by:
  4024 ;;		Interrupt level 2
  4025 ;; This function uses a non-reentrant model
  4026 ;;
  4027                           
  4028                           	psect	intcode
  4029   000008                     __pintcode:
  4030                           	callstack 0
  4031   000008                     _InterruptManager:
  4032                           	callstack 24
  4033                           
  4034                           ;incstack = 0
  4035   000008  826C               	bsf	int$flags,1,c	;set compiler interrupt flag (level 2)
  4036   00000A  EDA7  F00E         	call	int_func,f	;refresh shadow registers
  4037                           
  4038                           	psect	intcode_body
  4039   001D4E                     __pintcode_body:
  4040                           	callstack 24
  4041   001D4E                     int_func:
  4042                           	callstack 24
  4043   001D4E  0006               	pop		; remove dummy address from shadow register refresh
  4044   001D50  CFFA F002          	movff	pclath,??_InterruptManager
  4045   001D54  CFFB F003          	movff	pclatu,??_InterruptManager+1
  4046   001D58                     
  4047                           ;MCAL_Layer/Interrupt/mcal_interrupt_manager.c: 34:     if((1 == INTCONbits.INT0IE) && (
      +                          1 == INTCONbits.INT0IF)){
  4048   001D58  A8F2               	btfss	242,4,c	;volatile
  4049   001D5A  EFB1  F00E         	goto	i2u509_41
  4050   001D5E  EFB3  F00E         	goto	i2u509_40
  4051   001D62                     i2u509_41:
  4052   001D62  EFBC  F00E         	goto	i2l1002
  4053   001D66                     i2u509_40:
  4054   001D66  A2F2               	btfss	242,1,c	;volatile
  4055   001D68  EFB8  F00E         	goto	i2u510_41
  4056   001D6C  EFBA  F00E         	goto	i2u510_40
  4057   001D70                     i2u510_41:
  4058   001D70  EFBC  F00E         	goto	i2l1002
  4059   001D74                     i2u510_40:
  4060   001D74                     
  4061                           ;MCAL_Layer/Interrupt/mcal_interrupt_manager.c: 35:         INT0_ISR();
  4062   001D74  EC18  F015         	call	_INT0_ISR	;wreg free
  4063   001D78                     i2l1002:
  4064                           
  4065                           ;MCAL_Layer/Interrupt/mcal_interrupt_manager.c: 38:     if((1 == INTCON3bits.INT1E) && (
      +                          1 == INTCON3bits.INT1F)){
  4066   001D78  A6F0               	btfss	240,3,c	;volatile
  4067   001D7A  EFC1  F00E         	goto	i2u511_41
  4068   001D7E  EFC3  F00E         	goto	i2u511_40
  4069   001D82                     i2u511_41:
  4070   001D82  EFCC  F00E         	goto	i2l1004
  4071   001D86                     i2u511_40:
  4072   001D86  A0F0               	btfss	240,0,c	;volatile
  4073   001D88  EFC8  F00E         	goto	i2u512_41
  4074   001D8C  EFCA  F00E         	goto	i2u512_40
  4075   001D90                     i2u512_41:
  4076   001D90  EFCC  F00E         	goto	i2l1004
  4077   001D94                     i2u512_40:
  4078   001D94                     
  4079                           ;MCAL_Layer/Interrupt/mcal_interrupt_manager.c: 39:         INT1_ISR();
  4080   001D94  EC16  F015         	call	_INT1_ISR	;wreg free
  4081   001D98                     i2l1004:
  4082                           
  4083                           ;MCAL_Layer/Interrupt/mcal_interrupt_manager.c: 42:     if((1 == INTCON3bits.INT2IE) && 
      +                          (1 == INTCON3bits.INT2IF)){
  4084   001D98  A8F0               	btfss	240,4,c	;volatile
  4085   001D9A  EFD1  F00E         	goto	i2u513_41
  4086   001D9E  EFD3  F00E         	goto	i2u513_40
  4087   001DA2                     i2u513_41:
  4088   001DA2  EFDC  F00E         	goto	i2l1006
  4089   001DA6                     i2u513_40:
  4090   001DA6  A2F0               	btfss	240,1,c	;volatile
  4091   001DA8  EFD8  F00E         	goto	i2u514_41
  4092   001DAC  EFDA  F00E         	goto	i2u514_40
  4093   001DB0                     i2u514_41:
  4094   001DB0  EFDC  F00E         	goto	i2l1006
  4095   001DB4                     i2u514_40:
  4096   001DB4                     
  4097                           ;MCAL_Layer/Interrupt/mcal_interrupt_manager.c: 43:         INT2_ISR();
  4098   001DB4  EC14  F015         	call	_INT2_ISR	;wreg free
  4099   001DB8                     i2l1006:
  4100                           
  4101                           ;MCAL_Layer/Interrupt/mcal_interrupt_manager.c: 49:     if((1 == INTCONbits.RBIE) && (1 
      +                          == INTCONbits.RBIF )
  4102   001DB8  A6F2               	btfss	242,3,c	;volatile
  4103   001DBA  EFE1  F00E         	goto	i2u515_41
  4104   001DBE  EFE3  F00E         	goto	i2u515_40
  4105   001DC2                     i2u515_41:
  4106   001DC2  EFFE  F00E         	goto	i2l1008
  4107   001DC6                     i2u515_40:
  4108   001DC6  A0F2               	btfss	242,0,c	;volatile
  4109   001DC8  EFE8  F00E         	goto	i2u516_41
  4110   001DCC  EFEA  F00E         	goto	i2u516_40
  4111   001DD0                     i2u516_41:
  4112   001DD0  EFFE  F00E         	goto	i2l1008
  4113   001DD4                     i2u516_40:
  4114   001DD4  A881               	btfss	129,4,c	;volatile
  4115   001DD6  EFEF  F00E         	goto	i2u517_41
  4116   001DDA  EFF1  F00E         	goto	i2u517_40
  4117   001DDE                     i2u517_41:
  4118   001DDE  EFFE  F00E         	goto	i2l1008
  4119   001DE2                     i2u517_40:
  4120   001DE2  0469               	decf	_RB4_Flag^0,w,c	;volatile
  4121   001DE4  A4D8               	btfss	status,2,c
  4122   001DE6  EFF7  F00E         	goto	i2u518_41
  4123   001DEA  EFF9  F00E         	goto	i2u518_40
  4124   001DEE                     i2u518_41:
  4125   001DEE  EFFE  F00E         	goto	i2l1008
  4126   001DF2                     i2u518_40:
  4127   001DF2                     
  4128                           ;MCAL_Layer/Interrupt/mcal_interrupt_manager.c: 50:     && (PORTBbits.RB4 == GPIO_HIGH) 
      +                          && (RB4_Flag == 1)){;MCAL_Layer/Interrupt/mcal_interrupt_manager.c: 51:         RB4_Flag
      +                           = 0;
  4129   001DF2  0E00               	movlw	0
  4130   001DF4  6E69               	movwf	_RB4_Flag^0,c	;volatile
  4131   001DF6                     
  4132                           ;MCAL_Layer/Interrupt/mcal_interrupt_manager.c: 52:         RB4_ISR(0);
  4133   001DF6  0E00               	movlw	0
  4134   001DF8  ECF5  F014         	call	_RB4_ISR
  4135   001DFC                     i2l1008:
  4136                           
  4137                           ;MCAL_Layer/Interrupt/mcal_interrupt_manager.c: 55:     if((1 == INTCONbits.RBIE) && (1 
      +                          == INTCONbits.RBIF )
  4138   001DFC  A6F2               	btfss	242,3,c	;volatile
  4139   001DFE  EF03  F00F         	goto	i2u519_41
  4140   001E02  EF05  F00F         	goto	i2u519_40
  4141   001E06                     i2u519_41:
  4142   001E06  EF20  F00F         	goto	i2l1010
  4143   001E0A                     i2u519_40:
  4144   001E0A  A0F2               	btfss	242,0,c	;volatile
  4145   001E0C  EF0A  F00F         	goto	i2u520_41
  4146   001E10  EF0C  F00F         	goto	i2u520_40
  4147   001E14                     i2u520_41:
  4148   001E14  EF20  F00F         	goto	i2l1010
  4149   001E18                     i2u520_40:
  4150   001E18  B881               	btfsc	129,4,c	;volatile
  4151   001E1A  EF11  F00F         	goto	i2u521_41
  4152   001E1E  EF13  F00F         	goto	i2u521_40
  4153   001E22                     i2u521_41:
  4154   001E22  EF20  F00F         	goto	i2l1010
  4155   001E26                     i2u521_40:
  4156   001E26  5069               	movf	_RB4_Flag^0,w,c	;volatile
  4157   001E28  A4D8               	btfss	status,2,c
  4158   001E2A  EF19  F00F         	goto	i2u522_41
  4159   001E2E  EF1B  F00F         	goto	i2u522_40
  4160   001E32                     i2u522_41:
  4161   001E32  EF20  F00F         	goto	i2l1010
  4162   001E36                     i2u522_40:
  4163   001E36                     
  4164                           ;MCAL_Layer/Interrupt/mcal_interrupt_manager.c: 56:     && (PORTBbits.RB4 == GPIO_LOW) &
      +                          & (RB4_Flag == 0)){;MCAL_Layer/Interrupt/mcal_interrupt_manager.c: 57:         RB4_Flag 
      +                          = 1;
  4165   001E36  0E01               	movlw	1
  4166   001E38  6E69               	movwf	_RB4_Flag^0,c	;volatile
  4167   001E3A                     
  4168                           ;MCAL_Layer/Interrupt/mcal_interrupt_manager.c: 58:         RB4_ISR(1);
  4169   001E3A  0E01               	movlw	1
  4170   001E3C  ECF5  F014         	call	_RB4_ISR
  4171   001E40                     i2l1010:
  4172                           
  4173                           ;MCAL_Layer/Interrupt/mcal_interrupt_manager.c: 62:     if((1 == INTCONbits.RBIE) && (1 
      +                          == INTCONbits.RBIF )
  4174   001E40  A6F2               	btfss	242,3,c	;volatile
  4175   001E42  EF25  F00F         	goto	i2u523_41
  4176   001E46  EF27  F00F         	goto	i2u523_40
  4177   001E4A                     i2u523_41:
  4178   001E4A  EF42  F00F         	goto	i2l1012
  4179   001E4E                     i2u523_40:
  4180   001E4E  A0F2               	btfss	242,0,c	;volatile
  4181   001E50  EF2C  F00F         	goto	i2u524_41
  4182   001E54  EF2E  F00F         	goto	i2u524_40
  4183   001E58                     i2u524_41:
  4184   001E58  EF42  F00F         	goto	i2l1012
  4185   001E5C                     i2u524_40:
  4186   001E5C  AA81               	btfss	129,5,c	;volatile
  4187   001E5E  EF33  F00F         	goto	i2u525_41
  4188   001E62  EF35  F00F         	goto	i2u525_40
  4189   001E66                     i2u525_41:
  4190   001E66  EF42  F00F         	goto	i2l1012
  4191   001E6A                     i2u525_40:
  4192   001E6A  0468               	decf	_RB5_Flag^0,w,c	;volatile
  4193   001E6C  A4D8               	btfss	status,2,c
  4194   001E6E  EF3B  F00F         	goto	i2u526_41
  4195   001E72  EF3D  F00F         	goto	i2u526_40
  4196   001E76                     i2u526_41:
  4197   001E76  EF42  F00F         	goto	i2l1012
  4198   001E7A                     i2u526_40:
  4199   001E7A                     
  4200                           ;MCAL_Layer/Interrupt/mcal_interrupt_manager.c: 63:     && (PORTBbits.RB5 == GPIO_HIGH) 
      +                          && (RB5_Flag == 1)){;MCAL_Layer/Interrupt/mcal_interrupt_manager.c: 64:         RB5_Flag
      +                           = 0;
  4201   001E7A  0E00               	movlw	0
  4202   001E7C  6E68               	movwf	_RB5_Flag^0,c	;volatile
  4203   001E7E                     
  4204                           ;MCAL_Layer/Interrupt/mcal_interrupt_manager.c: 65:         RB5_ISR(0);
  4205   001E7E  0E00               	movlw	0
  4206   001E80  ECE8  F014         	call	_RB5_ISR
  4207   001E84                     i2l1012:
  4208                           
  4209                           ;MCAL_Layer/Interrupt/mcal_interrupt_manager.c: 68:     if((1 == INTCONbits.RBIE) && (1 
      +                          == INTCONbits.RBIF )
  4210   001E84  A6F2               	btfss	242,3,c	;volatile
  4211   001E86  EF47  F00F         	goto	i2u527_41
  4212   001E8A  EF49  F00F         	goto	i2u527_40
  4213   001E8E                     i2u527_41:
  4214   001E8E  EF64  F00F         	goto	i2l1014
  4215   001E92                     i2u527_40:
  4216   001E92  A0F2               	btfss	242,0,c	;volatile
  4217   001E94  EF4E  F00F         	goto	i2u528_41
  4218   001E98  EF50  F00F         	goto	i2u528_40
  4219   001E9C                     i2u528_41:
  4220   001E9C  EF64  F00F         	goto	i2l1014
  4221   001EA0                     i2u528_40:
  4222   001EA0  BA81               	btfsc	129,5,c	;volatile
  4223   001EA2  EF55  F00F         	goto	i2u529_41
  4224   001EA6  EF57  F00F         	goto	i2u529_40
  4225   001EAA                     i2u529_41:
  4226   001EAA  EF64  F00F         	goto	i2l1014
  4227   001EAE                     i2u529_40:
  4228   001EAE  5068               	movf	_RB5_Flag^0,w,c	;volatile
  4229   001EB0  A4D8               	btfss	status,2,c
  4230   001EB2  EF5D  F00F         	goto	i2u530_41
  4231   001EB6  EF5F  F00F         	goto	i2u530_40
  4232   001EBA                     i2u530_41:
  4233   001EBA  EF64  F00F         	goto	i2l1014
  4234   001EBE                     i2u530_40:
  4235   001EBE                     
  4236                           ;MCAL_Layer/Interrupt/mcal_interrupt_manager.c: 69:     && (PORTBbits.RB5 == GPIO_LOW) &
      +                          & (RB5_Flag == 0)){;MCAL_Layer/Interrupt/mcal_interrupt_manager.c: 70:         RB5_Flag 
      +                          = 1;
  4237   001EBE  0E01               	movlw	1
  4238   001EC0  6E68               	movwf	_RB5_Flag^0,c	;volatile
  4239   001EC2                     
  4240                           ;MCAL_Layer/Interrupt/mcal_interrupt_manager.c: 71:         RB5_ISR(1);
  4241   001EC2  0E01               	movlw	1
  4242   001EC4  ECE8  F014         	call	_RB5_ISR
  4243   001EC8                     i2l1014:
  4244                           
  4245                           ;MCAL_Layer/Interrupt/mcal_interrupt_manager.c: 75:     if((1 == INTCONbits.RBIE) && (1 
      +                          == INTCONbits.RBIF )
  4246   001EC8  A6F2               	btfss	242,3,c	;volatile
  4247   001ECA  EF69  F00F         	goto	i2u531_41
  4248   001ECE  EF6B  F00F         	goto	i2u531_40
  4249   001ED2                     i2u531_41:
  4250   001ED2  EF86  F00F         	goto	i2l1016
  4251   001ED6                     i2u531_40:
  4252   001ED6  A0F2               	btfss	242,0,c	;volatile
  4253   001ED8  EF70  F00F         	goto	i2u532_41
  4254   001EDC  EF72  F00F         	goto	i2u532_40
  4255   001EE0                     i2u532_41:
  4256   001EE0  EF86  F00F         	goto	i2l1016
  4257   001EE4                     i2u532_40:
  4258   001EE4  AC81               	btfss	129,6,c	;volatile
  4259   001EE6  EF77  F00F         	goto	i2u533_41
  4260   001EEA  EF79  F00F         	goto	i2u533_40
  4261   001EEE                     i2u533_41:
  4262   001EEE  EF86  F00F         	goto	i2l1016
  4263   001EF2                     i2u533_40:
  4264   001EF2  0467               	decf	_RB6_Flag^0,w,c	;volatile
  4265   001EF4  A4D8               	btfss	status,2,c
  4266   001EF6  EF7F  F00F         	goto	i2u534_41
  4267   001EFA  EF81  F00F         	goto	i2u534_40
  4268   001EFE                     i2u534_41:
  4269   001EFE  EF86  F00F         	goto	i2l1016
  4270   001F02                     i2u534_40:
  4271   001F02                     
  4272                           ;MCAL_Layer/Interrupt/mcal_interrupt_manager.c: 76:     && (PORTBbits.RB6 == GPIO_HIGH) 
      +                          && (RB6_Flag == 1)){;MCAL_Layer/Interrupt/mcal_interrupt_manager.c: 77:         RB6_Flag
      +                           = 0;
  4273   001F02  0E00               	movlw	0
  4274   001F04  6E67               	movwf	_RB6_Flag^0,c	;volatile
  4275   001F06                     
  4276                           ;MCAL_Layer/Interrupt/mcal_interrupt_manager.c: 78:         RB6_ISR(0);
  4277   001F06  0E00               	movlw	0
  4278   001F08  ECDB  F014         	call	_RB6_ISR
  4279   001F0C                     i2l1016:
  4280                           
  4281                           ;MCAL_Layer/Interrupt/mcal_interrupt_manager.c: 81:     if((1 == INTCONbits.RBIE) && (1 
      +                          == INTCONbits.RBIF )
  4282   001F0C  A6F2               	btfss	242,3,c	;volatile
  4283   001F0E  EF8B  F00F         	goto	i2u535_41
  4284   001F12  EF8D  F00F         	goto	i2u535_40
  4285   001F16                     i2u535_41:
  4286   001F16  EFA8  F00F         	goto	i2l1018
  4287   001F1A                     i2u535_40:
  4288   001F1A  A0F2               	btfss	242,0,c	;volatile
  4289   001F1C  EF92  F00F         	goto	i2u536_41
  4290   001F20  EF94  F00F         	goto	i2u536_40
  4291   001F24                     i2u536_41:
  4292   001F24  EFA8  F00F         	goto	i2l1018
  4293   001F28                     i2u536_40:
  4294   001F28  BC81               	btfsc	129,6,c	;volatile
  4295   001F2A  EF99  F00F         	goto	i2u537_41
  4296   001F2E  EF9B  F00F         	goto	i2u537_40
  4297   001F32                     i2u537_41:
  4298   001F32  EFA8  F00F         	goto	i2l1018
  4299   001F36                     i2u537_40:
  4300   001F36  5067               	movf	_RB6_Flag^0,w,c	;volatile
  4301   001F38  A4D8               	btfss	status,2,c
  4302   001F3A  EFA1  F00F         	goto	i2u538_41
  4303   001F3E  EFA3  F00F         	goto	i2u538_40
  4304   001F42                     i2u538_41:
  4305   001F42  EFA8  F00F         	goto	i2l1018
  4306   001F46                     i2u538_40:
  4307   001F46                     
  4308                           ;MCAL_Layer/Interrupt/mcal_interrupt_manager.c: 82:     && (PORTBbits.RB6 == GPIO_LOW) &
      +                          & (RB6_Flag == 0)){;MCAL_Layer/Interrupt/mcal_interrupt_manager.c: 83:         RB6_Flag 
      +                          = 1;
  4309   001F46  0E01               	movlw	1
  4310   001F48  6E67               	movwf	_RB6_Flag^0,c	;volatile
  4311   001F4A                     
  4312                           ;MCAL_Layer/Interrupt/mcal_interrupt_manager.c: 84:         RB6_ISR(1);
  4313   001F4A  0E01               	movlw	1
  4314   001F4C  ECDB  F014         	call	_RB6_ISR
  4315   001F50                     i2l1018:
  4316                           
  4317                           ;MCAL_Layer/Interrupt/mcal_interrupt_manager.c: 88:     if((1 == INTCONbits.RBIE) && (1 
      +                          == INTCONbits.RBIF )
  4318   001F50  A6F2               	btfss	242,3,c	;volatile
  4319   001F52  EFAD  F00F         	goto	i2u539_41
  4320   001F56  EFAF  F00F         	goto	i2u539_40
  4321   001F5A                     i2u539_41:
  4322   001F5A  EFCA  F00F         	goto	i2l1020
  4323   001F5E                     i2u539_40:
  4324   001F5E  A0F2               	btfss	242,0,c	;volatile
  4325   001F60  EFB4  F00F         	goto	i2u540_41
  4326   001F64  EFB6  F00F         	goto	i2u540_40
  4327   001F68                     i2u540_41:
  4328   001F68  EFCA  F00F         	goto	i2l1020
  4329   001F6C                     i2u540_40:
  4330   001F6C  AE81               	btfss	129,7,c	;volatile
  4331   001F6E  EFBB  F00F         	goto	i2u541_41
  4332   001F72  EFBD  F00F         	goto	i2u541_40
  4333   001F76                     i2u541_41:
  4334   001F76  EFCA  F00F         	goto	i2l1020
  4335   001F7A                     i2u541_40:
  4336   001F7A  0466               	decf	_RB7_Flag^0,w,c	;volatile
  4337   001F7C  A4D8               	btfss	status,2,c
  4338   001F7E  EFC3  F00F         	goto	i2u542_41
  4339   001F82  EFC5  F00F         	goto	i2u542_40
  4340   001F86                     i2u542_41:
  4341   001F86  EFCA  F00F         	goto	i2l1020
  4342   001F8A                     i2u542_40:
  4343   001F8A                     
  4344                           ;MCAL_Layer/Interrupt/mcal_interrupt_manager.c: 89:     && (PORTBbits.RB7 == GPIO_HIGH) 
      +                          && (RB7_Flag == 1)){;MCAL_Layer/Interrupt/mcal_interrupt_manager.c: 90:         RB7_Flag
      +                           = 0;
  4345   001F8A  0E00               	movlw	0
  4346   001F8C  6E66               	movwf	_RB7_Flag^0,c	;volatile
  4347   001F8E                     
  4348                           ;MCAL_Layer/Interrupt/mcal_interrupt_manager.c: 91:         RB7_ISR(0);
  4349   001F8E  0E00               	movlw	0
  4350   001F90  ECCE  F014         	call	_RB7_ISR
  4351   001F94                     i2l1020:
  4352                           
  4353                           ;MCAL_Layer/Interrupt/mcal_interrupt_manager.c: 94:     if((1 == INTCONbits.RBIE) && (1 
      +                          == INTCONbits.RBIF )
  4354   001F94  A6F2               	btfss	242,3,c	;volatile
  4355   001F96  EFCF  F00F         	goto	i2u543_41
  4356   001F9A  EFD1  F00F         	goto	i2u543_40
  4357   001F9E                     i2u543_41:
  4358   001F9E  EFEC  F00F         	goto	i2l1022
  4359   001FA2                     i2u543_40:
  4360   001FA2  A0F2               	btfss	242,0,c	;volatile
  4361   001FA4  EFD6  F00F         	goto	i2u544_41
  4362   001FA8  EFD8  F00F         	goto	i2u544_40
  4363   001FAC                     i2u544_41:
  4364   001FAC  EFEC  F00F         	goto	i2l1022
  4365   001FB0                     i2u544_40:
  4366   001FB0  BE81               	btfsc	129,7,c	;volatile
  4367   001FB2  EFDD  F00F         	goto	i2u545_41
  4368   001FB6  EFDF  F00F         	goto	i2u545_40
  4369   001FBA                     i2u545_41:
  4370   001FBA  EFEC  F00F         	goto	i2l1022
  4371   001FBE                     i2u545_40:
  4372   001FBE  5066               	movf	_RB7_Flag^0,w,c	;volatile
  4373   001FC0  A4D8               	btfss	status,2,c
  4374   001FC2  EFE5  F00F         	goto	i2u546_41
  4375   001FC6  EFE7  F00F         	goto	i2u546_40
  4376   001FCA                     i2u546_41:
  4377   001FCA  EFEC  F00F         	goto	i2l1022
  4378   001FCE                     i2u546_40:
  4379   001FCE                     
  4380                           ;MCAL_Layer/Interrupt/mcal_interrupt_manager.c: 95:     && (PORTBbits.RB7 == GPIO_LOW) &
      +                          & (RB7_Flag == 0)){;MCAL_Layer/Interrupt/mcal_interrupt_manager.c: 96:         RB7_Flag 
      +                          = 1;
  4381   001FCE  0E01               	movlw	1
  4382   001FD0  6E66               	movwf	_RB7_Flag^0,c	;volatile
  4383   001FD2                     
  4384                           ;MCAL_Layer/Interrupt/mcal_interrupt_manager.c: 97:         RB7_ISR(1);
  4385   001FD2  0E01               	movlw	1
  4386   001FD4  ECCE  F014         	call	_RB7_ISR
  4387   001FD8                     i2l1022:
  4388                           
  4389                           ;MCAL_Layer/Interrupt/mcal_interrupt_manager.c: 102:     if((1 == PIE1bits.ADIE) && (1 =
      +                          = PIR1bits.ADIF)){
  4390   001FD8  AC9D               	btfss	157,6,c	;volatile
  4391   001FDA  EFF1  F00F         	goto	i2u547_41
  4392   001FDE  EFF3  F00F         	goto	i2u547_40
  4393   001FE2                     i2u547_41:
  4394   001FE2  EFFC  F00F         	goto	i2l1024
  4395   001FE6                     i2u547_40:
  4396   001FE6  AC9E               	btfss	158,6,c	;volatile
  4397   001FE8  EFF8  F00F         	goto	i2u548_41
  4398   001FEC  EFFA  F00F         	goto	i2u548_40
  4399   001FF0                     i2u548_41:
  4400   001FF0  EFFC  F00F         	goto	i2l1024
  4401   001FF4                     i2u548_40:
  4402   001FF4                     
  4403                           ;MCAL_Layer/Interrupt/mcal_interrupt_manager.c: 103:         ADC_ISR();
  4404   001FF4  EC1A  F015         	call	_ADC_ISR	;wreg free
  4405   001FF8                     i2l1024:
  4406                           
  4407                           ;MCAL_Layer/Interrupt/mcal_interrupt_manager.c: 108:     if((1 == INTCONbits.TMR0IE) && 
      +                          (INTCONbits.TMR0IF)){
  4408   001FF8  AAF2               	btfss	242,5,c	;volatile
  4409   001FFA  EF01  F010         	goto	i2u549_41
  4410   001FFE  EF03  F010         	goto	i2u549_40
  4411   002002                     i2u549_41:
  4412   002002  EF0C  F010         	goto	i2l1026
  4413   002006                     i2u549_40:
  4414   002006  A4F2               	btfss	242,2,c	;volatile
  4415   002008  EF08  F010         	goto	i2u550_41
  4416   00200C  EF0A  F010         	goto	i2u550_40
  4417   002010                     i2u550_41:
  4418   002010  EF0C  F010         	goto	i2l1026
  4419   002014                     i2u550_40:
  4420   002014                     
  4421                           ;MCAL_Layer/Interrupt/mcal_interrupt_manager.c: 109:         TMR0_ISR();
  4422   002014  EC0B  F015         	call	_TMR0_ISR	;wreg free
  4423   002018                     i2l1026:
  4424                           
  4425                           ;MCAL_Layer/Interrupt/mcal_interrupt_manager.c: 114:     if((1 == PIE1bits.TXIE) && (PIR
      +                          1bits.TXIF)){
  4426   002018  A89D               	btfss	157,4,c	;volatile
  4427   00201A  EF11  F010         	goto	i2u551_41
  4428   00201E  EF13  F010         	goto	i2u551_40
  4429   002022                     i2u551_41:
  4430   002022  EF1C  F010         	goto	i2l1028
  4431   002026                     i2u551_40:
  4432   002026  A89E               	btfss	158,4,c	;volatile
  4433   002028  EF18  F010         	goto	i2u552_41
  4434   00202C  EF1A  F010         	goto	i2u552_40
  4435   002030                     i2u552_41:
  4436   002030  EF1C  F010         	goto	i2l1028
  4437   002034                     i2u552_40:
  4438   002034                     
  4439                           ;MCAL_Layer/Interrupt/mcal_interrupt_manager.c: 115:         EUSART_TX_ISR();
  4440   002034  EC95  F014         	call	_EUSART_TX_ISR	;wreg free
  4441   002038                     i2l1028:
  4442                           
  4443                           ;MCAL_Layer/Interrupt/mcal_interrupt_manager.c: 119:     if((1 == PIE1bits.RCIE) && (PIR
      +                          1bits.RCIF)){
  4444   002038  AA9D               	btfss	157,5,c	;volatile
  4445   00203A  EF21  F010         	goto	i2u553_41
  4446   00203E  EF23  F010         	goto	i2u553_40
  4447   002042                     i2u553_41:
  4448   002042  EF2C  F010         	goto	i2l1031
  4449   002046                     i2u553_40:
  4450   002046  AA9E               	btfss	158,5,c	;volatile
  4451   002048  EF28  F010         	goto	i2u554_41
  4452   00204C  EF2A  F010         	goto	i2u554_40
  4453   002050                     i2u554_41:
  4454   002050  EF2C  F010         	goto	i2l1031
  4455   002054                     i2u554_40:
  4456   002054                     
  4457                           ;MCAL_Layer/Interrupt/mcal_interrupt_manager.c: 120:         EUSART_RX_ISR();
  4458   002054  EC1C  F015         	call	_EUSART_RX_ISR	;wreg free
  4459   002058                     i2l1031:
  4460   002058  C003  FFFB         	movff	??_InterruptManager+1,pclatu
  4461   00205C  C002  FFFA         	movff	??_InterruptManager,pclath
  4462   002060  926C               	bcf	int$flags,1,c	;clear compiler interrupt flag (level 2)
  4463   002062  0011               	retfie		f
  4464   002064                     __end_of_InterruptManager:
  4465                           	callstack 0
  4466                           
  4467 ;; *************** function _TMR0_ISR *****************
  4468 ;; Defined at:
  4469 ;;		line 129 in file "MCAL_Layer/Timer0/timer0.c"
  4470 ;; Parameters:    Size  Location     Type
  4471 ;;		None
  4472 ;; Auto vars:     Size  Location     Type
  4473 ;;		None
  4474 ;; Return value:  Size  Location     Type
  4475 ;;                  1    wreg      void 
  4476 ;; Registers used:
  4477 ;;		wreg, status,2
  4478 ;; Tracked objects:
  4479 ;;		On entry : 0/0
  4480 ;;		On exit  : 0/0
  4481 ;;		Unchanged: 0/0
  4482 ;; Data sizes:     COMRAM   BANK0   BANK1   BANK2   BANK3   BANK4   BANK5   BANK6   BANK7   BANK8   BANK9  BANK10  BANK1
      +1  BANK12  BANK13  BANK14  BANK15
  4483 ;;      Params:         0       0       0       0       0       0       0       0       0       0       0       0       
      +0       0       0       0       0
  4484 ;;      Locals:         0       0       0       0       0       0       0       0       0       0       0       0       
      +0       0       0       0       0
  4485 ;;      Temps:          0       0       0       0       0       0       0       0       0       0       0       0       
      +0       0       0       0       0
  4486 ;;      Totals:         0       0       0       0       0       0       0       0       0       0       0       0       
      +0       0       0       0       0
  4487 ;;Total ram usage:        0 bytes
  4488 ;; Hardware stack levels used: 1
  4489 ;; This function calls:
  4490 ;;		Nothing
  4491 ;; This function is called by:
  4492 ;;		_InterruptManager
  4493 ;; This function uses a non-reentrant model
  4494 ;;
  4495                           
  4496                           	psect	text16
  4497   002A16                     __ptext16:
  4498                           	callstack 0
  4499   002A16                     _TMR0_ISR:
  4500                           	callstack 25
  4501   002A16                     
  4502                           ;MCAL_Layer/Timer0/timer0.c: 131:     (INTCONbits.TMR0IF = 0);
  4503   002A16  94F2               	bcf	242,2,c	;volatile
  4504                           
  4505                           ;MCAL_Layer/Timer0/timer0.c: 132:     TMR0L = (uint8)(timer0_preload);
  4506   002A18  C04A  FFD6         	movff	_timer0_preload,4054	;volatile
  4507   002A1C                     
  4508                           ;MCAL_Layer/Timer0/timer0.c: 133:     TMR0H = ((timer0_preload)>> 8);
  4509   002A1C  504B               	movf	(_timer0_preload+1)^0,w,c
  4510   002A1E  6ED7               	movwf	215,c	;volatile
  4511   002A20  0012               	return		;funcret
  4512   002A22                     __end_of_TMR0_ISR:
  4513                           	callstack 0
  4514                           
  4515 ;; *************** function _RB7_ISR *****************
  4516 ;; Defined at:
  4517 ;;		line 159 in file "MCAL_Layer/Interrupt/mcal_external_interrup.c"
  4518 ;; Parameters:    Size  Location     Type
  4519 ;;  RB7_Source      1    wreg     unsigned char 
  4520 ;; Auto vars:     Size  Location     Type
  4521 ;;  RB7_Source      1    0[COMRAM] unsigned char 
  4522 ;; Return value:  Size  Location     Type
  4523 ;;                  1    wreg      void 
  4524 ;; Registers used:
  4525 ;;		wreg, status,2, status,0
  4526 ;; Tracked objects:
  4527 ;;		On entry : 0/0
  4528 ;;		On exit  : 0/0
  4529 ;;		Unchanged: 0/0
  4530 ;; Data sizes:     COMRAM   BANK0   BANK1   BANK2   BANK3   BANK4   BANK5   BANK6   BANK7   BANK8   BANK9  BANK10  BANK1
      +1  BANK12  BANK13  BANK14  BANK15
  4531 ;;      Params:         0       0       0       0       0       0       0       0       0       0       0       0       
      +0       0       0       0       0
  4532 ;;      Locals:         1       0       0       0       0       0       0       0       0       0       0       0       
      +0       0       0       0       0
  4533 ;;      Temps:          0       0       0       0       0       0       0       0       0       0       0       0       
      +0       0       0       0       0
  4534 ;;      Totals:         1       0       0       0       0       0       0       0       0       0       0       0       
      +0       0       0       0       0
  4535 ;;Total ram usage:        1 bytes
  4536 ;; Hardware stack levels used: 1
  4537 ;; This function calls:
  4538 ;;		Nothing
  4539 ;; This function is called by:
  4540 ;;		_InterruptManager
  4541 ;; This function uses a non-reentrant model
  4542 ;;
  4543                           
  4544                           	psect	text17
  4545   00299C                     __ptext17:
  4546                           	callstack 0
  4547   00299C                     _RB7_ISR:
  4548                           	callstack 25
  4549                           
  4550                           ;incstack = 0
  4551                           ;RB7_ISR@RB7_Source stored from wreg
  4552   00299C  6E01               	movwf	RB7_ISR@RB7_Source^0,c
  4553   00299E                     
  4554                           ;MCAL_Layer/Interrupt/mcal_external_interrup.c: 159: void RB7_ISR(uint8 RB7_Source);MCAL
      +                          _Layer/Interrupt/mcal_external_interrup.c: 160: {;MCAL_Layer/Interrupt/mcal_external_int
      +                          errup.c: 162:     (INTCONbits.RBIF = 0);
  4555   00299E  90F2               	bcf	242,0,c	;volatile
  4556   0029A0                     
  4557                           ;MCAL_Layer/Interrupt/mcal_external_interrup.c: 166:     if(0 == RB7_Source) {
  4558   0029A0  5001               	movf	RB7_ISR@RB7_Source^0,w,c
  4559   0029A2  A4D8               	btfss	status,2,c
  4560   0029A4  EFD6  F014         	goto	i2u429_41
  4561   0029A8  EFD8  F014         	goto	i2u429_40
  4562   0029AC                     i2u429_41:
  4563   0029AC  EFDA  F014         	goto	i2l4983
  4564   0029B0                     i2u429_40:
  4565   0029B0  EFDA  F014         	goto	i2l847
  4566   0029B4                     i2l4983:
  4567   0029B4                     i2l847:
  4568   0029B4  0012               	return		;funcret
  4569   0029B6                     __end_of_RB7_ISR:
  4570                           	callstack 0
  4571                           
  4572 ;; *************** function _RB6_ISR *****************
  4573 ;; Defined at:
  4574 ;;		line 141 in file "MCAL_Layer/Interrupt/mcal_external_interrup.c"
  4575 ;; Parameters:    Size  Location     Type
  4576 ;;  RB6_Source      1    wreg     unsigned char 
  4577 ;; Auto vars:     Size  Location     Type
  4578 ;;  RB6_Source      1    0[COMRAM] unsigned char 
  4579 ;; Return value:  Size  Location     Type
  4580 ;;                  1    wreg      void 
  4581 ;; Registers used:
  4582 ;;		wreg, status,2, status,0
  4583 ;; Tracked objects:
  4584 ;;		On entry : 0/0
  4585 ;;		On exit  : 0/0
  4586 ;;		Unchanged: 0/0
  4587 ;; Data sizes:     COMRAM   BANK0   BANK1   BANK2   BANK3   BANK4   BANK5   BANK6   BANK7   BANK8   BANK9  BANK10  BANK1
      +1  BANK12  BANK13  BANK14  BANK15
  4588 ;;      Params:         0       0       0       0       0       0       0       0       0       0       0       0       
      +0       0       0       0       0
  4589 ;;      Locals:         1       0       0       0       0       0       0       0       0       0       0       0       
      +0       0       0       0       0
  4590 ;;      Temps:          0       0       0       0       0       0       0       0       0       0       0       0       
      +0       0       0       0       0
  4591 ;;      Totals:         1       0       0       0       0       0       0       0       0       0       0       0       
      +0       0       0       0       0
  4592 ;;Total ram usage:        1 bytes
  4593 ;; Hardware stack levels used: 1
  4594 ;; This function calls:
  4595 ;;		Nothing
  4596 ;; This function is called by:
  4597 ;;		_InterruptManager
  4598 ;; This function uses a non-reentrant model
  4599 ;;
  4600                           
  4601                           	psect	text18
  4602   0029B6                     __ptext18:
  4603                           	callstack 0
  4604   0029B6                     _RB6_ISR:
  4605                           	callstack 25
  4606                           
  4607                           ;incstack = 0
  4608                           ;RB6_ISR@RB6_Source stored from wreg
  4609   0029B6  6E01               	movwf	RB6_ISR@RB6_Source^0,c
  4610   0029B8                     
  4611                           ;MCAL_Layer/Interrupt/mcal_external_interrup.c: 141: void RB6_ISR(uint8 RB6_Source);MCAL
      +                          _Layer/Interrupt/mcal_external_interrup.c: 142: {;MCAL_Layer/Interrupt/mcal_external_int
      +                          errup.c: 144:     (INTCONbits.RBIF = 0);
  4612   0029B8  90F2               	bcf	242,0,c	;volatile
  4613   0029BA                     
  4614                           ;MCAL_Layer/Interrupt/mcal_external_interrup.c: 148:     if(0 == RB6_Source) {
  4615   0029BA  5001               	movf	RB6_ISR@RB6_Source^0,w,c
  4616   0029BC  A4D8               	btfss	status,2,c
  4617   0029BE  EFE3  F014         	goto	i2u428_41
  4618   0029C2  EFE5  F014         	goto	i2u428_40
  4619   0029C6                     i2u428_41:
  4620   0029C6  EFE7  F014         	goto	i2l4969
  4621   0029CA                     i2u428_40:
  4622   0029CA  EFE7  F014         	goto	i2l836
  4623   0029CE                     i2l4969:
  4624   0029CE                     i2l836:
  4625   0029CE  0012               	return		;funcret
  4626   0029D0                     __end_of_RB6_ISR:
  4627                           	callstack 0
  4628                           
  4629 ;; *************** function _RB5_ISR *****************
  4630 ;; Defined at:
  4631 ;;		line 123 in file "MCAL_Layer/Interrupt/mcal_external_interrup.c"
  4632 ;; Parameters:    Size  Location     Type
  4633 ;;  RB5_Source      1    wreg     unsigned char 
  4634 ;; Auto vars:     Size  Location     Type
  4635 ;;  RB5_Source      1    0[COMRAM] unsigned char 
  4636 ;; Return value:  Size  Location     Type
  4637 ;;                  1    wreg      void 
  4638 ;; Registers used:
  4639 ;;		wreg, status,2, status,0
  4640 ;; Tracked objects:
  4641 ;;		On entry : 0/0
  4642 ;;		On exit  : 0/0
  4643 ;;		Unchanged: 0/0
  4644 ;; Data sizes:     COMRAM   BANK0   BANK1   BANK2   BANK3   BANK4   BANK5   BANK6   BANK7   BANK8   BANK9  BANK10  BANK1
      +1  BANK12  BANK13  BANK14  BANK15
  4645 ;;      Params:         0       0       0       0       0       0       0       0       0       0       0       0       
      +0       0       0       0       0
  4646 ;;      Locals:         1       0       0       0       0       0       0       0       0       0       0       0       
      +0       0       0       0       0
  4647 ;;      Temps:          0       0       0       0       0       0       0       0       0       0       0       0       
      +0       0       0       0       0
  4648 ;;      Totals:         1       0       0       0       0       0       0       0       0       0       0       0       
      +0       0       0       0       0
  4649 ;;Total ram usage:        1 bytes
  4650 ;; Hardware stack levels used: 1
  4651 ;; This function calls:
  4652 ;;		Nothing
  4653 ;; This function is called by:
  4654 ;;		_InterruptManager
  4655 ;; This function uses a non-reentrant model
  4656 ;;
  4657                           
  4658                           	psect	text19
  4659   0029D0                     __ptext19:
  4660                           	callstack 0
  4661   0029D0                     _RB5_ISR:
  4662                           	callstack 25
  4663                           
  4664                           ;incstack = 0
  4665                           ;RB5_ISR@RB5_Source stored from wreg
  4666   0029D0  6E01               	movwf	RB5_ISR@RB5_Source^0,c
  4667   0029D2                     
  4668                           ;MCAL_Layer/Interrupt/mcal_external_interrup.c: 123: void RB5_ISR(uint8 RB5_Source);MCAL
      +                          _Layer/Interrupt/mcal_external_interrup.c: 124: {;MCAL_Layer/Interrupt/mcal_external_int
      +                          errup.c: 126:     (INTCONbits.RBIF = 0);
  4669   0029D2  90F2               	bcf	242,0,c	;volatile
  4670   0029D4                     
  4671                           ;MCAL_Layer/Interrupt/mcal_external_interrup.c: 130:     if(0 == RB5_Source) {
  4672   0029D4  5001               	movf	RB5_ISR@RB5_Source^0,w,c
  4673   0029D6  A4D8               	btfss	status,2,c
  4674   0029D8  EFF0  F014         	goto	i2u427_41
  4675   0029DC  EFF2  F014         	goto	i2u427_40
  4676   0029E0                     i2u427_41:
  4677   0029E0  EFF4  F014         	goto	i2l4955
  4678   0029E4                     i2u427_40:
  4679   0029E4  EFF4  F014         	goto	i2l825
  4680   0029E8                     i2l4955:
  4681   0029E8                     i2l825:
  4682   0029E8  0012               	return		;funcret
  4683   0029EA                     __end_of_RB5_ISR:
  4684                           	callstack 0
  4685                           
  4686 ;; *************** function _RB4_ISR *****************
  4687 ;; Defined at:
  4688 ;;		line 104 in file "MCAL_Layer/Interrupt/mcal_external_interrup.c"
  4689 ;; Parameters:    Size  Location     Type
  4690 ;;  RB4_Source      1    wreg     unsigned char 
  4691 ;; Auto vars:     Size  Location     Type
  4692 ;;  RB4_Source      1    0[COMRAM] unsigned char 
  4693 ;; Return value:  Size  Location     Type
  4694 ;;                  1    wreg      void 
  4695 ;; Registers used:
  4696 ;;		wreg, status,2, status,0
  4697 ;; Tracked objects:
  4698 ;;		On entry : 0/0
  4699 ;;		On exit  : 0/0
  4700 ;;		Unchanged: 0/0
  4701 ;; Data sizes:     COMRAM   BANK0   BANK1   BANK2   BANK3   BANK4   BANK5   BANK6   BANK7   BANK8   BANK9  BANK10  BANK1
      +1  BANK12  BANK13  BANK14  BANK15
  4702 ;;      Params:         0       0       0       0       0       0       0       0       0       0       0       0       
      +0       0       0       0       0
  4703 ;;      Locals:         1       0       0       0       0       0       0       0       0       0       0       0       
      +0       0       0       0       0
  4704 ;;      Temps:          0       0       0       0       0       0       0       0       0       0       0       0       
      +0       0       0       0       0
  4705 ;;      Totals:         1       0       0       0       0       0       0       0       0       0       0       0       
      +0       0       0       0       0
  4706 ;;Total ram usage:        1 bytes
  4707 ;; Hardware stack levels used: 1
  4708 ;; This function calls:
  4709 ;;		Nothing
  4710 ;; This function is called by:
  4711 ;;		_InterruptManager
  4712 ;; This function uses a non-reentrant model
  4713 ;;
  4714                           
  4715                           	psect	text20
  4716   0029EA                     __ptext20:
  4717                           	callstack 0
  4718   0029EA                     _RB4_ISR:
  4719                           	callstack 25
  4720                           
  4721                           ;incstack = 0
  4722                           ;RB4_ISR@RB4_Source stored from wreg
  4723   0029EA  6E01               	movwf	RB4_ISR@RB4_Source^0,c
  4724   0029EC                     
  4725                           ;MCAL_Layer/Interrupt/mcal_external_interrup.c: 104: void RB4_ISR(uint8 RB4_Source);MCAL
      +                          _Layer/Interrupt/mcal_external_interrup.c: 105: {;MCAL_Layer/Interrupt/mcal_external_int
      +                          errup.c: 107:     (INTCONbits.RBIF = 0);
  4726   0029EC  90F2               	bcf	242,0,c	;volatile
  4727   0029EE                     
  4728                           ;MCAL_Layer/Interrupt/mcal_external_interrup.c: 111:     if(0 == RB4_Source) {
  4729   0029EE  5001               	movf	RB4_ISR@RB4_Source^0,w,c
  4730   0029F0  A4D8               	btfss	status,2,c
  4731   0029F2  EFFD  F014         	goto	i2u426_41
  4732   0029F6  EFFF  F014         	goto	i2u426_40
  4733   0029FA                     i2u426_41:
  4734   0029FA  EF01  F015         	goto	i2l4941
  4735   0029FE                     i2u426_40:
  4736   0029FE  EF01  F015         	goto	i2l814
  4737   002A02                     i2l4941:
  4738   002A02                     i2l814:
  4739   002A02  0012               	return		;funcret
  4740   002A04                     __end_of_RB4_ISR:
  4741                           	callstack 0
  4742                           
  4743 ;; *************** function _INT2_ISR *****************
  4744 ;; Defined at:
  4745 ;;		line 93 in file "MCAL_Layer/Interrupt/mcal_external_interrup.c"
  4746 ;; Parameters:    Size  Location     Type
  4747 ;;		None
  4748 ;; Auto vars:     Size  Location     Type
  4749 ;;		None
  4750 ;; Return value:  Size  Location     Type
  4751 ;;                  1    wreg      void 
  4752 ;; Registers used:
  4753 ;;		None
  4754 ;; Tracked objects:
  4755 ;;		On entry : 0/0
  4756 ;;		On exit  : 0/0
  4757 ;;		Unchanged: 0/0
  4758 ;; Data sizes:     COMRAM   BANK0   BANK1   BANK2   BANK3   BANK4   BANK5   BANK6   BANK7   BANK8   BANK9  BANK10  BANK1
      +1  BANK12  BANK13  BANK14  BANK15
  4759 ;;      Params:         0       0       0       0       0       0       0       0       0       0       0       0       
      +0       0       0       0       0
  4760 ;;      Locals:         0       0       0       0       0       0       0       0       0       0       0       0       
      +0       0       0       0       0
  4761 ;;      Temps:          0       0       0       0       0       0       0       0       0       0       0       0       
      +0       0       0       0       0
  4762 ;;      Totals:         0       0       0       0       0       0       0       0       0       0       0       0       
      +0       0       0       0       0
  4763 ;;Total ram usage:        0 bytes
  4764 ;; Hardware stack levels used: 1
  4765 ;; This function calls:
  4766 ;;		Nothing
  4767 ;; This function is called by:
  4768 ;;		_InterruptManager
  4769 ;; This function uses a non-reentrant model
  4770 ;;
  4771                           
  4772                           	psect	text21
  4773   002A28                     __ptext21:
  4774                           	callstack 0
  4775   002A28                     _INT2_ISR:
  4776                           	callstack 25
  4777   002A28                     
  4778                           ;MCAL_Layer/Interrupt/mcal_external_interrup.c: 96:     (INTCON3bits.INT2IF = 0);
  4779   002A28  92F0               	bcf	240,1,c	;volatile
  4780   002A2A  0012               	return		;funcret
  4781   002A2C                     __end_of_INT2_ISR:
  4782                           	callstack 0
  4783                           
  4784 ;; *************** function _INT1_ISR *****************
  4785 ;; Defined at:
  4786 ;;		line 81 in file "MCAL_Layer/Interrupt/mcal_external_interrup.c"
  4787 ;; Parameters:    Size  Location     Type
  4788 ;;		None
  4789 ;; Auto vars:     Size  Location     Type
  4790 ;;		None
  4791 ;; Return value:  Size  Location     Type
  4792 ;;                  1    wreg      void 
  4793 ;; Registers used:
  4794 ;;		None
  4795 ;; Tracked objects:
  4796 ;;		On entry : 0/0
  4797 ;;		On exit  : 0/0
  4798 ;;		Unchanged: 0/0
  4799 ;; Data sizes:     COMRAM   BANK0   BANK1   BANK2   BANK3   BANK4   BANK5   BANK6   BANK7   BANK8   BANK9  BANK10  BANK1
      +1  BANK12  BANK13  BANK14  BANK15
  4800 ;;      Params:         0       0       0       0       0       0       0       0       0       0       0       0       
      +0       0       0       0       0
  4801 ;;      Locals:         0       0       0       0       0       0       0       0       0       0       0       0       
      +0       0       0       0       0
  4802 ;;      Temps:          0       0       0       0       0       0       0       0       0       0       0       0       
      +0       0       0       0       0
  4803 ;;      Totals:         0       0       0       0       0       0       0       0       0       0       0       0       
      +0       0       0       0       0
  4804 ;;Total ram usage:        0 bytes
  4805 ;; Hardware stack levels used: 1
  4806 ;; This function calls:
  4807 ;;		Nothing
  4808 ;; This function is called by:
  4809 ;;		_InterruptManager
  4810 ;; This function uses a non-reentrant model
  4811 ;;
  4812                           
  4813                           	psect	text22
  4814   002A2C                     __ptext22:
  4815                           	callstack 0
  4816   002A2C                     _INT1_ISR:
  4817                           	callstack 25
  4818   002A2C                     
  4819                           ;MCAL_Layer/Interrupt/mcal_external_interrup.c: 84:     (INTCON3bits.INT1IF = 0);
  4820   002A2C  90F0               	bcf	240,0,c	;volatile
  4821   002A2E  0012               	return		;funcret
  4822   002A30                     __end_of_INT1_ISR:
  4823                           	callstack 0
  4824                           
  4825 ;; *************** function _INT0_ISR *****************
  4826 ;; Defined at:
  4827 ;;		line 70 in file "MCAL_Layer/Interrupt/mcal_external_interrup.c"
  4828 ;; Parameters:    Size  Location     Type
  4829 ;;		None
  4830 ;; Auto vars:     Size  Location     Type
  4831 ;;		None
  4832 ;; Return value:  Size  Location     Type
  4833 ;;                  1    wreg      void 
  4834 ;; Registers used:
  4835 ;;		None
  4836 ;; Tracked objects:
  4837 ;;		On entry : 0/0
  4838 ;;		On exit  : 0/0
  4839 ;;		Unchanged: 0/0
  4840 ;; Data sizes:     COMRAM   BANK0   BANK1   BANK2   BANK3   BANK4   BANK5   BANK6   BANK7   BANK8   BANK9  BANK10  BANK1
      +1  BANK12  BANK13  BANK14  BANK15
  4841 ;;      Params:         0       0       0       0       0       0       0       0       0       0       0       0       
      +0       0       0       0       0
  4842 ;;      Locals:         0       0       0       0       0       0       0       0       0       0       0       0       
      +0       0       0       0       0
  4843 ;;      Temps:          0       0       0       0       0       0       0       0       0       0       0       0       
      +0       0       0       0       0
  4844 ;;      Totals:         0       0       0       0       0       0       0       0       0       0       0       0       
      +0       0       0       0       0
  4845 ;;Total ram usage:        0 bytes
  4846 ;; Hardware stack levels used: 1
  4847 ;; This function calls:
  4848 ;;		Nothing
  4849 ;; This function is called by:
  4850 ;;		_InterruptManager
  4851 ;; This function uses a non-reentrant model
  4852 ;;
  4853                           
  4854                           	psect	text23
  4855   002A30                     __ptext23:
  4856                           	callstack 0
  4857   002A30                     _INT0_ISR:
  4858                           	callstack 25
  4859   002A30                     
  4860                           ;MCAL_Layer/Interrupt/mcal_external_interrup.c: 73:     (INTCONbits.INT0IF = 0);
  4861   002A30  92F2               	bcf	242,1,c	;volatile
  4862   002A32  0012               	return		;funcret
  4863   002A34                     __end_of_INT0_ISR:
  4864                           	callstack 0
  4865                           
  4866 ;; *************** function _EUSART_TX_ISR *****************
  4867 ;; Defined at:
  4868 ;;		line 315 in file "MCAL_Layer/EUSART/hal_usart.c"
  4869 ;; Parameters:    Size  Location     Type
  4870 ;;		None
  4871 ;; Auto vars:     Size  Location     Type
  4872 ;;		None
  4873 ;; Return value:  Size  Location     Type
  4874 ;;                  1    wreg      void 
  4875 ;; Registers used:
  4876 ;;		wreg, status,2, status,0, pcl, pclath, pclatu, tosl, cstack
  4877 ;; Tracked objects:
  4878 ;;		On entry : 0/0
  4879 ;;		On exit  : 0/0
  4880 ;;		Unchanged: 0/0
  4881 ;; Data sizes:     COMRAM   BANK0   BANK1   BANK2   BANK3   BANK4   BANK5   BANK6   BANK7   BANK8   BANK9  BANK10  BANK1
      +1  BANK12  BANK13  BANK14  BANK15
  4882 ;;      Params:         0       0       0       0       0       0       0       0       0       0       0       0       
      +0       0       0       0       0
  4883 ;;      Locals:         0       0       0       0       0       0       0       0       0       0       0       0       
      +0       0       0       0       0
  4884 ;;      Temps:          0       0       0       0       0       0       0       0       0       0       0       0       
      +0       0       0       0       0
  4885 ;;      Totals:         0       0       0       0       0       0       0       0       0       0       0       0       
      +0       0       0       0       0
  4886 ;;Total ram usage:        0 bytes
  4887 ;; Hardware stack levels used: 1
  4888 ;; Hardware stack levels required when called: 1
  4889 ;; This function calls:
  4890 ;;		Absolute function
  4891 ;;		_tx_isr
  4892 ;; This function is called by:
  4893 ;;		_InterruptManager
  4894 ;; This function uses a non-reentrant model
  4895 ;;
  4896                           
  4897                           	psect	text24
  4898   00292A                     __ptext24:
  4899                           	callstack 0
  4900   00292A                     _EUSART_TX_ISR:
  4901                           	callstack 24
  4902   00292A                     
  4903                           ;MCAL_Layer/EUSART/hal_usart.c: 316:     (PIE1bits.TXIE = 0);
  4904   00292A  989D               	bcf	157,4,c	;volatile
  4905   00292C                     
  4906                           ;MCAL_Layer/EUSART/hal_usart.c: 317:     if(EUSART_TxInterruptHandler){
  4907   00292C  505A               	movf	_EUSART_TxInterruptHandler^0,w,c
  4908   00292E  105B               	iorwf	(_EUSART_TxInterruptHandler+1)^0,w,c
  4909   002930  B4D8               	btfsc	status,2,c
  4910   002932  EF9D  F014         	goto	i2u424_41
  4911   002936  EF9F  F014         	goto	i2u424_40
  4912   00293A                     i2u424_41:
  4913   00293A  EFAB  F014         	goto	i2l615
  4914   00293E                     i2u424_40:
  4915   00293E                     
  4916                           ;MCAL_Layer/EUSART/hal_usart.c: 318:         EUSART_TxInterruptHandler();
  4917   00293E  D802               	call	i2u425_48
  4918   002940  EFAB  F014         	goto	i2u425_49
  4919   002944                     i2u425_48:
  4920   002944  0005               	push	
  4921   002946  6EFA               	movwf	pclath,c
  4922   002948  505A               	movf	_EUSART_TxInterruptHandler^0,w,c
  4923   00294A  6EFD               	movwf	tosl,c
  4924   00294C  505B               	movf	(_EUSART_TxInterruptHandler+1)^0,w,c
  4925   00294E  6EFE               	movwf	tosh,c
  4926   002950  6AFF               	clrf	tosu,c
  4927   002952  50FA               	movf	pclath,w,c
  4928   002954  0012               	return		;indir
  4929   002956                     i2u425_49:
  4930   002956                     i2l615:
  4931   002956  0012               	return		;funcret
  4932   002958                     __end_of_EUSART_TX_ISR:
  4933                           	callstack 0
  4934                           
  4935 ;; *************** function _tx_isr *****************
  4936 ;; Defined at:
  4937 ;;		line 17 in file "appplication.c"
  4938 ;; Parameters:    Size  Location     Type
  4939 ;;		None
  4940 ;; Auto vars:     Size  Location     Type
  4941 ;;		None
  4942 ;; Return value:  Size  Location     Type
  4943 ;;                  1    wreg      void 
  4944 ;; Registers used:
  4945 ;;		wreg, status,2, status,0
  4946 ;; Tracked objects:
  4947 ;;		On entry : 0/0
  4948 ;;		On exit  : 0/0
  4949 ;;		Unchanged: 0/0
  4950 ;; Data sizes:     COMRAM   BANK0   BANK1   BANK2   BANK3   BANK4   BANK5   BANK6   BANK7   BANK8   BANK9  BANK10  BANK1
      +1  BANK12  BANK13  BANK14  BANK15
  4951 ;;      Params:         0       0       0       0       0       0       0       0       0       0       0       0       
      +0       0       0       0       0
  4952 ;;      Locals:         0       0       0       0       0       0       0       0       0       0       0       0       
      +0       0       0       0       0
  4953 ;;      Temps:          0       0       0       0       0       0       0       0       0       0       0       0       
      +0       0       0       0       0
  4954 ;;      Totals:         0       0       0       0       0       0       0       0       0       0       0       0       
      +0       0       0       0       0
  4955 ;;Total ram usage:        0 bytes
  4956 ;; Hardware stack levels used: 1
  4957 ;; This function calls:
  4958 ;;		Nothing
  4959 ;; This function is called by:
  4960 ;;		_usart_interrupt_init
  4961 ;;		_EUSART_TX_ISR
  4962 ;; This function uses a non-reentrant model
  4963 ;;
  4964                           
  4965                           	psect	text25
  4966   002A04                     __ptext25:
  4967                           	callstack 0
  4968   002A04                     _tx_isr:
  4969                           	callstack 24
  4970   002A04                     
  4971                           ;appplication.c: 19:     val_tx++;
  4972   002A04  0E01               	movlw	1
  4973   002A06  0100               	movlb	0	; () banked
  4974   002A08  2786               	addwf	_val_tx& (0+255),f,b
  4975   002A0A  0E00               	movlw	0
  4976   002A0C  2387               	addwfc	(_val_tx+1)& (0+255),f,b
  4977   002A0E  2388               	addwfc	(_val_tx+2)& (0+255),f,b
  4978   002A10  2389               	addwfc	(_val_tx+3)& (0+255),f,b
  4979   002A12                     
  4980                           ; BSR set to: 0
  4981                           ;appplication.c: 20:     PIE1bits.TXIE = 0;
  4982   002A12  989D               	bcf	157,4,c	;volatile
  4983   002A14                     
  4984                           ; BSR set to: 0
  4985   002A14  0012               	return		;funcret
  4986   002A16                     __end_of_tx_isr:
  4987                           	callstack 0
  4988                           
  4989 ;; *************** function _EUSART_RX_ISR *****************
  4990 ;; Defined at:
  4991 ;;		line 324 in file "MCAL_Layer/EUSART/hal_usart.c"
  4992 ;; Parameters:    Size  Location     Type
  4993 ;;		None
  4994 ;; Auto vars:     Size  Location     Type
  4995 ;;		None
  4996 ;; Return value:  Size  Location     Type
  4997 ;;                  1    wreg      void 
  4998 ;; Registers used:
  4999 ;;		wreg, status,2, status,0
  5000 ;; Tracked objects:
  5001 ;;		On entry : 0/0
  5002 ;;		On exit  : 0/0
  5003 ;;		Unchanged: 0/0
  5004 ;; Data sizes:     COMRAM   BANK0   BANK1   BANK2   BANK3   BANK4   BANK5   BANK6   BANK7   BANK8   BANK9  BANK10  BANK1
      +1  BANK12  BANK13  BANK14  BANK15
  5005 ;;      Params:         0       0       0       0       0       0       0       0       0       0       0       0       
      +0       0       0       0       0
  5006 ;;      Locals:         0       0       0       0       0       0       0       0       0       0       0       0       
      +0       0       0       0       0
  5007 ;;      Temps:          0       0       0       0       0       0       0       0       0       0       0       0       
      +0       0       0       0       0
  5008 ;;      Totals:         0       0       0       0       0       0       0       0       0       0       0       0       
      +0       0       0       0       0
  5009 ;;Total ram usage:        0 bytes
  5010 ;; Hardware stack levels used: 1
  5011 ;; This function calls:
  5012 ;;		Nothing
  5013 ;; This function is called by:
  5014 ;;		_InterruptManager
  5015 ;; This function uses a non-reentrant model
  5016 ;;
  5017                           
  5018                           	psect	text26
  5019   002A38                     __ptext26:
  5020                           	callstack 0
  5021   002A38                     _EUSART_RX_ISR:
  5022                           	callstack 25
  5023   002A38  0012               	return		;funcret
  5024   002A3A                     __end_of_EUSART_RX_ISR:
  5025                           	callstack 0
  5026                           
  5027 ;; *************** function _ADC_ISR *****************
  5028 ;; Defined at:
  5029 ;;		line 269 in file "MCAL_Layer/ADC/hal_adc.c"
  5030 ;; Parameters:    Size  Location     Type
  5031 ;;		None
  5032 ;; Auto vars:     Size  Location     Type
  5033 ;;		None
  5034 ;; Return value:  Size  Location     Type
  5035 ;;                  1    wreg      void 
  5036 ;; Registers used:
  5037 ;;		None
  5038 ;; Tracked objects:
  5039 ;;		On entry : 0/0
  5040 ;;		On exit  : 0/0
  5041 ;;		Unchanged: 0/0
  5042 ;; Data sizes:     COMRAM   BANK0   BANK1   BANK2   BANK3   BANK4   BANK5   BANK6   BANK7   BANK8   BANK9  BANK10  BANK1
      +1  BANK12  BANK13  BANK14  BANK15
  5043 ;;      Params:         0       0       0       0       0       0       0       0       0       0       0       0       
      +0       0       0       0       0
  5044 ;;      Locals:         0       0       0       0       0       0       0       0       0       0       0       0       
      +0       0       0       0       0
  5045 ;;      Temps:          0       0       0       0       0       0       0       0       0       0       0       0       
      +0       0       0       0       0
  5046 ;;      Totals:         0       0       0       0       0       0       0       0       0       0       0       0       
      +0       0       0       0       0
  5047 ;;Total ram usage:        0 bytes
  5048 ;; Hardware stack levels used: 1
  5049 ;; This function calls:
  5050 ;;		Nothing
  5051 ;; This function is called by:
  5052 ;;		_InterruptManager
  5053 ;; This function uses a non-reentrant model
  5054 ;;
  5055                           
  5056                           	psect	text27
  5057   002A34                     __ptext27:
  5058                           	callstack 0
  5059   002A34                     _ADC_ISR:
  5060                           	callstack 25
  5061   002A34                     
  5062                           ;MCAL_Layer/ADC/hal_adc.c: 271:     (PIR1bits.ADIF = 0);
  5063   002A34  9C9E               	bcf	158,6,c	;volatile
  5064   002A36  0012               	return		;funcret
  5065   002A38                     __end_of_ADC_ISR:
  5066                           	callstack 0
  5067                           
  5068                           	psect	text28
  5069   000000                     __ptext28:
  5070                           	callstack 0
  5071   000000                     
  5072                           	psect	rparam
  5073   000000                     
  5074                           	psect	temp
  5075   00006C                     btemp:
  5076                           	callstack 0
  5077   00006C                     	ds	1
  5078   000000                     int$flags	set	btemp
  5079   000000                     wtemp8	set	btemp+1
  5080   000000                     ttemp5	set	btemp+1
  5081   000000                     ttemp6	set	btemp+4
  5082   000000                     ttemp7	set	btemp+8
  5083                           
  5084                           	psect	config
  5085                           
  5086                           ; Padding undefined space
  5087   300000                     	org	3145728
  5088   300000  FF                 	db	255
  5089                           
  5090                           ;Config register CONFIG1H @ 0x300001
  5091                           ;	Oscillator Selection bits
  5092                           ;	OSC = HS, HS oscillator
  5093                           ;	Fail-Safe Clock Monitor Enable bit
  5094                           ;	FCMEN = OFF, Fail-Safe Clock Monitor disabled
  5095                           ;	Internal/External Oscillator Switchover bit
  5096                           ;	IESO = OFF, Oscillator Switchover mode disabled
  5097   300001                     	org	3145729
  5098   300001  02                 	db	2
  5099                           
  5100                           ;Config register CONFIG2L @ 0x300002
  5101                           ;	Power-up Timer Enable bit
  5102                           ;	PWRT = OFF, PWRT disabled
  5103                           ;	Brown-out Reset Enable bits
  5104                           ;	BOREN = OFF, Brown-out Reset disabled in hardware and software
  5105                           ;	Brown Out Reset Voltage bits
  5106                           ;	BORV = 1, 
  5107   300002                     	org	3145730
  5108   300002  09                 	db	9
  5109                           
  5110                           ;Config register CONFIG2H @ 0x300003
  5111                           ;	Watchdog Timer Enable bit
  5112                           ;	WDT = OFF, WDT disabled (control is placed on the SWDTEN bit)
  5113                           ;	Watchdog Timer Postscale Select bits
  5114                           ;	WDTPS = 32768, 1:32768
  5115   300003                     	org	3145731
  5116   300003  1E                 	db	30
  5117                           
  5118                           ; Padding undefined space
  5119   300004                     	org	3145732
  5120   300004  FF                 	db	255
  5121                           
  5122                           ;Config register CONFIG3H @ 0x300005
  5123                           ;	CCP2 MUX bit
  5124                           ;	CCP2MX = PORTC, CCP2 input/output is multiplexed with RC1
  5125                           ;	PORTB A/D Enable bit
  5126                           ;	PBADEN = OFF, PORTB<4:0> pins are configured as digital I/O on Reset
  5127                           ;	Low-Power Timer1 Oscillator Enable bit
  5128                           ;	LPT1OSC = OFF, Timer1 configured for higher power operation
  5129                           ;	MCLR Pin Enable bit
  5130                           ;	MCLRE = ON, MCLR pin enabled; RE3 input pin disabled
  5131   300005                     	org	3145733
  5132   300005  81                 	db	129
  5133                           
  5134                           ;Config register CONFIG4L @ 0x300006
  5135                           ;	Stack Full/Underflow Reset Enable bit
  5136                           ;	STVREN = ON, Stack full/underflow will cause Reset
  5137                           ;	Single-Supply ICSP Enable bit
  5138                           ;	LVP = OFF, Single-Supply ICSP disabled
  5139                           ;	Extended Instruction Set Enable bit
  5140                           ;	XINST = OFF, Instruction set extension and Indexed Addressing mode disabled (Legacy mo
      +                          de)
  5141                           ;	Background Debugger Enable bit
  5142                           ;	DEBUG = 0x1, unprogrammed default
  5143   300006                     	org	3145734
  5144   300006  81                 	db	129
  5145                           
  5146                           ; Padding undefined space
  5147   300007                     	org	3145735
  5148   300007  FF                 	db	255
  5149                           
  5150                           ;Config register CONFIG5L @ 0x300008
  5151                           ;	Code Protection bit
  5152                           ;	CP0 = OFF, Block 0 (000800-003FFFh) not code-protected
  5153                           ;	Code Protection bit
  5154                           ;	CP1 = OFF, Block 1 (004000-007FFFh) not code-protected
  5155                           ;	Code Protection bit
  5156                           ;	CP2 = OFF, Block 2 (008000-00BFFFh) not code-protected
  5157                           ;	Code Protection bit
  5158                           ;	CP3 = OFF, Block 3 (00C000-00FFFFh) not code-protected
  5159   300008                     	org	3145736
  5160   300008  0F                 	db	15
  5161                           
  5162                           ;Config register CONFIG5H @ 0x300009
  5163                           ;	Boot Block Code Protection bit
  5164                           ;	CPB = OFF, Boot block (000000-0007FFh) not code-protected
  5165                           ;	Data EEPROM Code Protection bit
  5166                           ;	CPD = OFF, Data EEPROM not code-protected
  5167   300009                     	org	3145737
  5168   300009  C0                 	db	192
  5169                           
  5170                           ;Config register CONFIG6L @ 0x30000A
  5171                           ;	Write Protection bit
  5172                           ;	WRT0 = OFF, Block 0 (000800-003FFFh) not write-protected
  5173                           ;	Write Protection bit
  5174                           ;	WRT1 = OFF, Block 1 (004000-007FFFh) not write-protected
  5175                           ;	Write Protection bit
  5176                           ;	WRT2 = OFF, Block 2 (008000-00BFFFh) not write-protected
  5177                           ;	Write Protection bit
  5178                           ;	WRT3 = OFF, Block 3 (00C000-00FFFFh) not write-protected
  5179   30000A                     	org	3145738
  5180   30000A  0F                 	db	15
  5181                           
  5182                           ;Config register CONFIG6H @ 0x30000B
  5183                           ;	Configuration Register Write Protection bit
  5184                           ;	WRTC = OFF, Configuration registers (300000-3000FFh) not write-protected
  5185                           ;	Boot Block Write Protection bit
  5186                           ;	WRTB = OFF, Boot Block (000000-0007FFh) not write-protected
  5187                           ;	Data EEPROM Write Protection bit
  5188                           ;	WRTD = OFF, Data EEPROM not write-protected
  5189   30000B                     	org	3145739
  5190   30000B  E0                 	db	224
  5191                           
  5192                           ;Config register CONFIG7L @ 0x30000C
  5193                           ;	Table Read Protection bit
  5194                           ;	EBTR0 = OFF, Block 0 (000800-003FFFh) not protected from table reads executed in other
      +                           blocks
  5195                           ;	Table Read Protection bit
  5196                           ;	EBTR1 = OFF, Block 1 (004000-007FFFh) not protected from table reads executed in other
      +                           blocks
  5197                           ;	Table Read Protection bit
  5198                           ;	EBTR2 = OFF, Block 2 (008000-00BFFFh) not protected from table reads executed in other
      +                           blocks
  5199                           ;	Table Read Protection bit
  5200                           ;	EBTR3 = OFF, Block 3 (00C000-00FFFFh) not protected from table reads executed in other
      +                           blocks
  5201   30000C                     	org	3145740
  5202   30000C  0F                 	db	15
  5203                           
  5204                           ;Config register CONFIG7H @ 0x30000D
  5205                           ;	Boot Block Table Read Protection bit
  5206                           ;	EBTRB = OFF, Boot Block (000000-0007FFh) not protected from table reads executed in ot
      +                          her blocks
  5207   30000D                     	org	3145741
  5208   30000D  40                 	db	64
  5209                           tosu	equ	0xFFF
  5210                           tosh	equ	0xFFE
  5211                           tosl	equ	0xFFD
  5212                           stkptr	equ	0xFFC
  5213                           pclatu	equ	0xFFB
  5214                           pclath	equ	0xFFA
  5215                           pcl	equ	0xFF9
  5216                           tblptru	equ	0xFF8
  5217                           tblptrh	equ	0xFF7
  5218                           tblptrl	equ	0xFF6
  5219                           tablat	equ	0xFF5
  5220                           prodh	equ	0xFF4
  5221                           prodl	equ	0xFF3
  5222                           indf0	equ	0xFEF
  5223                           postinc0	equ	0xFEE
  5224                           postdec0	equ	0xFED
  5225                           preinc0	equ	0xFEC
  5226                           plusw0	equ	0xFEB
  5227                           fsr0h	equ	0xFEA
  5228                           fsr0l	equ	0xFE9
  5229                           wreg	equ	0xFE8
  5230                           indf1	equ	0xFE7
  5231                           postinc1	equ	0xFE6
  5232                           postdec1	equ	0xFE5
  5233                           preinc1	equ	0xFE4
  5234                           plusw1	equ	0xFE3
  5235                           fsr1h	equ	0xFE2
  5236                           fsr1l	equ	0xFE1
  5237                           bsr	equ	0xFE0
  5238                           indf2	equ	0xFDF
  5239                           postinc2	equ	0xFDE
  5240                           postdec2	equ	0xFDD
  5241                           preinc2	equ	0xFDC
  5242                           plusw2	equ	0xFDB
  5243                           fsr2h	equ	0xFDA
  5244                           fsr2l	equ	0xFD9
  5245                           status	equ	0xFD8

Data Sizes:
    Strings     3
    Constant    16
    Data        36
    BSS         58
    Persistent  0
    Stack       0

Auto Spaces:
    Space          Size  Autos    Used
    COMRAM          126     73     107
    BANK0           128     18      78
    BANK1           256      0       0
    BANK2           256      0       0
    BANK3           256      0       0
    BANK4           256      0       0
    BANK5           256      0       0
    BANK6           256      0       0
    BANK7           256      0       0
    BANK8           256      0       0
    BANK9           256      0       0
    BANK10          256      0       0
    BANK11          256      0       0
    BANK12          256      0       0
    BANK13          256      0       0
    BANK14          256      0       0
    BANK15          128      0       0

Pointer List with Targets:

    vfprintf$2	PTR PTR void  size(2) Largest target is 2
		 -> sprintf@ap(COMRAM[2]), 

    vfprintf$1	PTR const unsigned char  size(2) Largest target is 3
		 -> STR_3(CODE[3]), STR_2(CODE[3]), STR_1(CODE[3]), 

    vfprintf$0	PTR struct _IO_FILE size(2) Largest target is 11
		 -> sprintf@f(COMRAM[11]), 

    S3034$source	PTR const unsigned char  size(2) Largest target is 0

    f...source	PTR const unsigned char  size(2) Largest target is 0

    S3034$buffer	PTR unsigned char  size(2) Largest target is 0

    f...buffer	PTR unsigned char  size(2) Largest target is 0

    usart_obj.EUSART_OverrunErrorHandler	PTR FTN()void  size(2) Largest target is 0
		 -> NULL(NULL[0]), 

    usart_obj.EUSART_FramingErrorHandler	PTR FTN()void  size(2) Largest target is 0
		 -> NULL(NULL[0]), 

    usart_obj.EUSART_Rx_DefaultInterruptHandler	PTR FTN()void  size(2) Largest target is 0
		 -> NULL(NULL[0]), 

    usart_obj.EUSART_Tx_DefaultInterruptHandler	PTR FTN()void  size(2) Largest target is 1
		 -> tx_isr(), 

    Timer0_Register_Size_Config@_timer0.TMR0_InterruptHandler	PTR FTN()void  size(2) Largest target is 0

    Timer0_Mode_Select@_timer0.TMR0_InterruptHandler	PTR FTN()void  size(2) Largest target is 0

    Timer0_Prescaler_Config@_timer0.TMR0_InterruptHandler	PTR FTN()void  size(2) Largest target is 0

    TMR0_InterruptHandler	PTR FTN()void  size(2) Largest target is 1
		 -> Absolute function(), 

    S2296$TMR0_InterruptHandler	PTR FTN()void  size(2) Largest target is 0

    TIMER0_Init@_timer0.TMR0_InterruptHandler	PTR FTN()void  size(2) Largest target is 0

    Interrupt_INTx_SetInterruptHandler@int_obj.EXT_InterruptHandler	PTR FTN()void  size(2) Largest target is 0

    Interrupt_INTx_Clear_Flag@int_obj.EXT_InterruptHandler	PTR FTN()void  size(2) Largest target is 0

    Interrupt_INTx_Pin_Init@int_obj.EXT_InterruptHandler	PTR FTN()void  size(2) Largest target is 0

    Interrupt_INTx_Edge_Init@int_obj.EXT_InterruptHandler	PTR FTN()void  size(2) Largest target is 0

    Interrupt_INTx_Disable@int_obj.EXT_InterruptHandler	PTR FTN()void  size(2) Largest target is 0

    S1744$EXT_InterruptHandler	PTR FTN()void  size(2) Largest target is 0

    Interrupt_INTx_Enable@int_obj.EXT_InterruptHandler	PTR FTN()void  size(2) Largest target is 0

    S1860$EXT_InterruptHandler_LOW	PTR FTN()void  size(2) Largest target is 0

    Interrupt_RBx_Init@int_obj.EXT_InterruptHandler_LOW	PTR FTN()void  size(2) Largest target is 0

    S1860$EXT_InterruptHandler_HIGH	PTR FTN()void  size(2) Largest target is 0

    Interrupt_RBx_Init@int_obj.EXT_InterruptHandler_HIGH	PTR FTN()void  size(2) Largest target is 0

    RB7_InterruptHandler_LOW	PTR FTN()void  size(2) Largest target is 1
		 -> Absolute function(), 

    RB7_InterruptHandler_HIGH	PTR FTN()void  size(2) Largest target is 1
		 -> Absolute function(), 

    RB6_InterruptHandler_LOW	PTR FTN()void  size(2) Largest target is 1
		 -> Absolute function(), 

    RB6_InterruptHandler_HIGH	PTR FTN()void  size(2) Largest target is 1
		 -> Absolute function(), 

    RB5_InterruptHandler_LOW	PTR FTN()void  size(2) Largest target is 1
		 -> Absolute function(), 

    RB5_InterruptHandler_HIGH	PTR FTN()void  size(2) Largest target is 1
		 -> Absolute function(), 

    RB4_InterruptHandler_LOW	PTR FTN()void  size(2) Largest target is 1
		 -> Absolute function(), 

    RB4_InterruptHandler_HIGH	PTR FTN()void  size(2) Largest target is 1
		 -> Absolute function(), 

    INT2_InterruptHandler	PTR FTN()void  size(2) Largest target is 1
		 -> Absolute function(), 

    INT1_InterruptHandler	PTR FTN()void  size(2) Largest target is 1
		 -> Absolute function(), 

    INT0_InterruptHandler	PTR FTN()void  size(2) Largest target is 1
		 -> Absolute function(), 

    gpio_pin_initialize@_pin_config	PTR struct . size(2) Largest target is 1
		 -> led_initialize@pin_obj(COMRAM[1]), 

    gpio_pin_write_logic@_pin_config	PTR struct . size(2) Largest target is 1
		 -> relay_turn_off@pin_obj(COMRAM[1]), relay_turn_on@pin_obj(COMRAM[1]), led_turn_off@pin_obj(COMRAM[1]), led_turn_on@pin_obj(COMRAM[1]), 
		 -> led_initialize@pin_obj(COMRAM[1]), 

    gpio_pin_direction_initialize@_pin_config	PTR struct . size(2) Largest target is 1
		 -> relay_initialize@pin_obj(COMRAM[1]), led_initialize@pin_obj(COMRAM[1]), 

    port_registers	PTR volatile unsigned char [5] size(2) Largest target is 1
		 -> PORTE(BITBIGSFRllll[1]), PORTD(BITBIGSFRllll[1]), PORTC(BITBIGSFRllll[1]), PORTB(BITBIGSFRllll[1]), 
		 -> PORTA(BITBIGSFRllll[1]), 

    lat_registers	PTR volatile unsigned char [5] size(2) Largest target is 1
		 -> LATE(BITBIGSFRlllh[1]), LATD(BITBIGSFRlllh[1]), LATC(BITBIGSFRlllh[1]), LATB(BITBIGSFRlllh[1]), 
		 -> LATA(BITBIGSFRllll[1]), 

    tris_registers	PTR volatile unsigned char [5] size(2) Largest target is 1
		 -> TRISD(ABS[1]), TRISC(SFR[1]), TRISB(ABS[1]), TRISE(ABS[1]), 
		 -> TRISA(BITBIGSFRllll[1]), 

    EUSART_OverrunErrorHandler	PTR FTN()void  size(2) Largest target is 1
		 -> Absolute function(), NULL(NULL[0]), 

    EUSART_FramingErrorHandler	PTR FTN()void  size(2) Largest target is 1
		 -> Absolute function(), NULL(NULL[0]), 

    EUSART_RxInterruptHandler	PTR FTN()void  size(2) Largest target is 1
		 -> Absolute function(), NULL(NULL[0]), 

    EUSART_ASYNC_RX_Init@_eusart.EUSART_OverrunErrorHandler	PTR FTN()void  size(2) Largest target is 0
		 -> NULL(NULL[0]), 

    EUSART_ASYNC_RX_Init@_eusart.EUSART_FramingErrorHandler	PTR FTN()void  size(2) Largest target is 0
		 -> NULL(NULL[0]), 

    EUSART_ASYNC_RX_Init@_eusart.EUSART_Rx_DefaultInterruptHandler	PTR FTN()void  size(2) Largest target is 0
		 -> NULL(NULL[0]), 

    EUSART_ASYNC_RX_Init@_eusart.EUSART_Tx_DefaultInterruptHandler	PTR FTN()void  size(2) Largest target is 1
		 -> tx_isr(), 

    EUSART_ASYNC_RX_Init@_eusart	PTR const struct . size(2) Largest target is 18
		 -> usart_interrupt_init@usart_obj(BANK0[18]), 

    EUSART_TxInterruptHandler	PTR FTN()void  size(2) Largest target is 1
		 -> tx_isr(), Absolute function(), 

    EUSART_ASYNC_TX_Init@_eusart.EUSART_OverrunErrorHandler	PTR FTN()void  size(2) Largest target is 0
		 -> NULL(NULL[0]), 

    EUSART_ASYNC_TX_Init@_eusart.EUSART_FramingErrorHandler	PTR FTN()void  size(2) Largest target is 0
		 -> NULL(NULL[0]), 

    EUSART_ASYNC_TX_Init@_eusart.EUSART_Rx_DefaultInterruptHandler	PTR FTN()void  size(2) Largest target is 0
		 -> NULL(NULL[0]), 

    EUSART_ASYNC_TX_Init@_eusart.EUSART_Tx_DefaultInterruptHandler	PTR FTN()void  size(2) Largest target is 1
		 -> tx_isr(), 

    EUSART_ASYNC_TX_Init@_eusart	PTR const struct . size(2) Largest target is 18
		 -> usart_interrupt_init@usart_obj(BANK0[18]), 

    S1174$EUSART_OverrunErrorHandler	PTR FTN()void  size(2) Largest target is 0
		 -> NULL(NULL[0]), 

    EUSART_Baud_Rate_Calculation@_eusart.EUSART_OverrunErrorHandler	PTR FTN()void  size(2) Largest target is 0
		 -> NULL(NULL[0]), 

    S1174$EUSART_FramingErrorHandler	PTR FTN()void  size(2) Largest target is 0
		 -> NULL(NULL[0]), 

    EUSART_Baud_Rate_Calculation@_eusart.EUSART_FramingErrorHandler	PTR FTN()void  size(2) Largest target is 0
		 -> NULL(NULL[0]), 

    S1174$EUSART_Rx_DefaultInterruptHandler	PTR FTN()void  size(2) Largest target is 0
		 -> NULL(NULL[0]), 

    EUSART_Baud_Rate_Calculation@_eusart.EUSART_Rx_DefaultInterruptHandler	PTR FTN()void  size(2) Largest target is 0
		 -> NULL(NULL[0]), 

    S1174$EUSART_Tx_DefaultInterruptHandler	PTR FTN()void  size(2) Largest target is 1
		 -> tx_isr(), 

    EUSART_Baud_Rate_Calculation@_eusart.EUSART_Tx_DefaultInterruptHandler	PTR FTN()void  size(2) Largest target is 1
		 -> tx_isr(), 

    EUSART_Baud_Rate_Calculation@_eusart	PTR const struct . size(2) Largest target is 18
		 -> usart_interrupt_init@usart_obj(BANK0[18]), 

    EUSART_ASYNC_Init@_eusart	PTR const struct . size(2) Largest target is 18
		 -> usart_interrupt_init@usart_obj(BANK0[18]), 

    configure_voltage_reference@_adc.ADC_InterruptHandler	PTR FTN()void  size(2) Largest target is 0

    select_result_format@_adc.ADC_InterruptHandler	PTR FTN()void  size(2) Largest target is 0

    ADC_GetConversionResult@_adc.ADC_InterruptHandler	PTR FTN()void  size(2) Largest target is 0

    ADC_InterruptHandler	PTR FTN()void  size(2) Largest target is 1
		 -> Absolute function(), 

    S658$ADC_InterruptHandler	PTR FTN()void  size(2) Largest target is 0

    ADC_Init@_adc.ADC_InterruptHandler	PTR FTN()void  size(2) Largest target is 0

    led_initialize@led	PTR const struct . size(2) Largest target is 1
		 -> led2(COMRAM[1]), led1(COMRAM[1]), 

    sp__memset	PTR void  size(2) Largest target is 0


Critical Paths under _main in COMRAM

    _usart_interrupt_init->_EUSART_ASYNC_Init
    _EUSART_ASYNC_Init->_EUSART_Baud_Rate_Calculation
    _EUSART_Baud_Rate_Calculation->___fladd
    ___fldiv->___xxtofl
    ___fladd->___fldiv
    _led_initialize->_gpio_pin_initialize
    _gpio_pin_initialize->_gpio_pin_write_logic

Critical Paths under _InterruptManager in COMRAM

    _InterruptManager->_RB4_ISR
    _InterruptManager->_RB5_ISR
    _InterruptManager->_RB6_ISR
    _InterruptManager->_RB7_ISR

Critical Paths under _main in BANK0

    _main->_usart_interrupt_init

Critical Paths under _InterruptManager in BANK0

    None.

Critical Paths under _main in BANK1

    None.

Critical Paths under _InterruptManager in BANK1

    None.

Critical Paths under _main in BANK2

    None.

Critical Paths under _InterruptManager in BANK2

    None.

Critical Paths under _main in BANK3

    None.

Critical Paths under _InterruptManager in BANK3

    None.

Critical Paths under _main in BANK4

    None.

Critical Paths under _InterruptManager in BANK4

    None.

Critical Paths under _main in BANK5

    None.

Critical Paths under _InterruptManager in BANK5

    None.

Critical Paths under _main in BANK6

    None.

Critical Paths under _InterruptManager in BANK6

    None.

Critical Paths under _main in BANK7

    None.

Critical Paths under _InterruptManager in BANK7

    None.

Critical Paths under _main in BANK8

    None.

Critical Paths under _InterruptManager in BANK8

    None.

Critical Paths under _main in BANK9

    None.

Critical Paths under _InterruptManager in BANK9

    None.

Critical Paths under _main in BANK10

    None.

Critical Paths under _InterruptManager in BANK10

    None.

Critical Paths under _main in BANK11

    None.

Critical Paths under _InterruptManager in BANK11

    None.

Critical Paths under _main in BANK12

    None.

Critical Paths under _InterruptManager in BANK12

    None.

Critical Paths under _main in BANK13

    None.

Critical Paths under _InterruptManager in BANK13

    None.

Critical Paths under _main in BANK14

    None.

Critical Paths under _InterruptManager in BANK14

    None.

Critical Paths under _main in BANK15

    None.

Critical Paths under _InterruptManager in BANK15

    None.

Call Graph Tables:

 ---------------------------------------------------------------------------------
 (Depth) Function   	        Calls       Base Space   Used Autos Params    Refs
 ---------------------------------------------------------------------------------
 (0) _main                                                 1     1      0   17564
  _EUSART_ASYNC_WriteByteNonBlocking
                     _led_initialize
               _usart_interrupt_init
 ---------------------------------------------------------------------------------
 (1) _usart_interrupt_init                                19    19      0   10512
                                              0 BANK0     18    18      0
                  _EUSART_ASYNC_Init
 ---------------------------------------------------------------------------------
 (2) _EUSART_ASYNC_Init                                    3     1      2   10020
                                             70 COMRAM     3     1      2
               _EUSART_ASYNC_RX_Init
               _EUSART_ASYNC_TX_Init
       _EUSART_Baud_Rate_Calculation
 ---------------------------------------------------------------------------------
 (3) _EUSART_Baud_Rate_Calculation                        12    10      2    9152
                                             58 COMRAM    12    10      2
                            ___fladd
                            ___fldiv
                            ___fltol
                           ___xxtofl
 ---------------------------------------------------------------------------------
 (4) ___xxtofl                                            14    10      4     836
                                              3 COMRAM    14    10      4
 ---------------------------------------------------------------------------------
 (4) ___fltol                                             10     6      4     517
                                              3 COMRAM    10     6      4
 ---------------------------------------------------------------------------------
 (4) ___fldiv                                             25    17      8    3263
                                             17 COMRAM    25    17      8
                           ___xxtofl (ARG)
 ---------------------------------------------------------------------------------
 (4) ___fladd                                             16     8      8    3942
                                             42 COMRAM    16     8      8
                            ___fldiv (ARG)
                           ___xxtofl (ARG)
 ---------------------------------------------------------------------------------
 (3) _EUSART_ASYNC_TX_Init                                 2     0      2     276
                                              3 COMRAM     2     0      2
 ---------------------------------------------------------------------------------
 (3) _EUSART_ASYNC_RX_Init                                 2     0      2     338
                                              3 COMRAM     2     0      2
 ---------------------------------------------------------------------------------
 (1) _led_initialize                                       5     3      2    7007
                                             17 COMRAM     5     3      2
                _gpio_pin_initialize
 ---------------------------------------------------------------------------------
 (2) _gpio_pin_initialize                                  4     2      2    6704
                                             13 COMRAM     4     2      2
      _gpio_pin_direction_initialize
               _gpio_pin_write_logic
 ---------------------------------------------------------------------------------
 (3) _gpio_pin_write_logic                                10     7      3    4891
                                              3 COMRAM    10     7      3
 ---------------------------------------------------------------------------------
 (3) _gpio_pin_direction_initialize                        9     7      2    1091
                                              3 COMRAM     9     7      2
 ---------------------------------------------------------------------------------
 (1) _EUSART_ASYNC_WriteByteNonBlocking                    2     2      0      30
                                              3 COMRAM     2     2      0
 ---------------------------------------------------------------------------------
 Estimated maximum stack depth 4
 ---------------------------------------------------------------------------------
 (Depth) Function   	        Calls       Base Space   Used Autos Params    Refs
 ---------------------------------------------------------------------------------
 (5) _InterruptManager                                     2     2      0     176
                                              1 COMRAM     2     2      0
                            _ADC_ISR
                      _EUSART_RX_ISR
                      _EUSART_TX_ISR
                           _INT0_ISR
                           _INT1_ISR
                           _INT2_ISR
                            _RB4_ISR
                            _RB5_ISR
                            _RB6_ISR
                            _RB7_ISR
                           _TMR0_ISR
 ---------------------------------------------------------------------------------
 (6) _TMR0_ISR                                             0     0      0       0
 ---------------------------------------------------------------------------------
 (6) _RB7_ISR                                              1     1      0      44
                                              0 COMRAM     1     1      0
 ---------------------------------------------------------------------------------
 (6) _RB6_ISR                                              1     1      0      44
                                              0 COMRAM     1     1      0
 ---------------------------------------------------------------------------------
 (6) _RB5_ISR                                              1     1      0      44
                                              0 COMRAM     1     1      0
 ---------------------------------------------------------------------------------
 (6) _RB4_ISR                                              1     1      0      44
                                              0 COMRAM     1     1      0
 ---------------------------------------------------------------------------------
 (6) _INT2_ISR                                             0     0      0       0
 ---------------------------------------------------------------------------------
 (6) _INT1_ISR                                             0     0      0       0
 ---------------------------------------------------------------------------------
 (6) _INT0_ISR                                             0     0      0       0
 ---------------------------------------------------------------------------------
 (6) _EUSART_TX_ISR                                        0     0      0       0
                   Absolute function *
                             _tx_isr *
 ---------------------------------------------------------------------------------
 (7) _tx_isr                                               0     0      0       0
 ---------------------------------------------------------------------------------
 (7) Absolute function(Fake)                               0     0      0       0
 ---------------------------------------------------------------------------------
 (6) _EUSART_RX_ISR                                        0     0      0       0
 ---------------------------------------------------------------------------------
 (6) _ADC_ISR                                              0     0      0       0
 ---------------------------------------------------------------------------------
 Estimated maximum stack depth 7
 ---------------------------------------------------------------------------------

 Call Graph Graphs:

 _main (ROOT)
   _EUSART_ASYNC_WriteByteNonBlocking
   _led_initialize
     _gpio_pin_initialize
       _gpio_pin_direction_initialize
       _gpio_pin_write_logic
   _usart_interrupt_init
     _EUSART_ASYNC_Init
       _EUSART_ASYNC_RX_Init
       _EUSART_ASYNC_TX_Init
       _EUSART_Baud_Rate_Calculation
         ___fladd
           ___fldiv (ARG)
             ___xxtofl (ARG)
           ___xxtofl (ARG)
         ___fldiv
         ___fltol
         ___xxtofl

 _InterruptManager (ROOT)
   _ADC_ISR
   _EUSART_RX_ISR
   _EUSART_TX_ISR
     Absolute function(Fake) *
     _tx_isr *
   _INT0_ISR
   _INT1_ISR
   _INT2_ISR
   _RB4_ISR
   _RB5_ISR
   _RB6_ISR
   _RB7_ISR
   _TMR0_ISR

 Address spaces:
Name               Size   Autos  Total    Cost      Usage
BIGRAM             F7F      0       0      46        0.0%
EEDATA             400      0       0       0        0.0%
BITBANK14          100      0       0      33        0.0%
BANK14             100      0       0      34        0.0%
BITBANK13          100      0       0      31        0.0%
BANK13             100      0       0      32        0.0%
BITBANK12          100      0       0      29        0.0%
BANK12             100      0       0      30        0.0%
BITBANK11          100      0       0      27        0.0%
BANK11             100      0       0      28        0.0%
BITBANK10          100      0       0      25        0.0%
BANK10             100      0       0      26        0.0%
BITBANK9           100      0       0      23        0.0%
BANK9              100      0       0      24        0.0%
BITBANK8           100      0       0      21        0.0%
BANK8              100      0       0      22        0.0%
BITBANK7           100      0       0      18        0.0%
BANK7              100      0       0      19        0.0%
BITBANK6           100      0       0      16        0.0%
BANK6              100      0       0      17        0.0%
BITBANK5           100      0       0      14        0.0%
BANK5              100      0       0      15        0.0%
BITBANK4           100      0       0      12        0.0%
BANK4              100      0       0      13        0.0%
BITBANK3           100      0       0      10        0.0%
BANK3              100      0       0      11        0.0%
BITBANK2           100      0       0       8        0.0%
BANK2              100      0       0       9        0.0%
BITBANK1           100      0       0       6        0.0%
BANK1              100      0       0       7        0.0%
BITBANK15           80      0       0      35        0.0%
BANK15              80      0       0      36        0.0%
BITBANK0            80      0       0       4        0.0%
BANK0               80     12      4E       5       60.9%
BITCOMRAM           7E      0       0       0        0.0%
COMRAM              7E     49      6B       1       84.9%
BITBIGSFRhlhlh      18      0       0      38        0.0%
BITBIGSFRhlhll      10      0       0      39        0.0%
BITBIGSFRhh          D      0       0      37        0.0%
BITBIGSFRlhhh        7      0       0      40        0.0%
BITBIGSFRlhhl        7      0       0      41        0.0%
BITBIGSFRlhll        7      0       0      42        0.0%
BITBIGSFRllhh        6      0       0      43        0.0%
BITBIGSFRlllh        4      0       0      44        0.0%
BITBIGSFRllll        4      0       0      45        0.0%
BIGSFR               0      0       0     200        0.0%
BITSFR               0      0       0     200        0.0%
SFR                  0      0       0     200        0.0%
STACK                0      0       0       2        0.0%
NULL                 0      0       0       0        0.0%
ABS                  0      0      B9      20        0.0%
DATA                 0      0      B9       3        0.0%
CODE                 0      0       0       0        0.0%


Microchip Technology PIC18 Macro Assembler V2.40 build 20220703182018 
Symbol Table                                                                                   Sun Apr 28 06:36:47 2024

                        ??_InterruptManager 0002                                ___fldiv@aexp 002A  
                              ___fldiv@bexp 0029                                ___fldiv@sign 0022  
                                       l610 2668                                         l283 2798  
                                       l523 28C6                                         l525 28F8  
                                       l606 2668                                         l279 273C  
                                       l705 285A                                         l580 1246  
                                       l549 297C                                         l581 12FA  
                                       l582 13AC                                         l672 235A  
                                       l584 14F2                                         l576 102A  
                                       l593 271C                                         l578 10DE  
                                       l691 2486                                         l579 1192  
                                       l597 271C                   _RB5_InterruptHandler_HIGH 009A  
                           __end_of_ADC_ISR 2A38                         led_initialize@F3045 0065  
                                       prod 000FF3                                         tosl 000FFD  
                                       wreg 000FE8                       relay_initialize@F3039 0061  
                           __end_of_RB4_ISR 2A04                             __end_of_RB5_ISR 29EA  
                           __end_of_RB6_ISR 29D0                             __end_of_RB7_ISR 29B6  
                              ___fltol@exp1 000D                                        l1126 28AA  
                                      l1434 258C                                        l1721 1BAC  
                                      l1730 1BF2                                        l1732 1C6A  
                                      l1724 1B70                                        l1733 1C58  
                                      l1806 21AE                                        l1719 1D4C  
                                      l1665 16E2                                        l1682 17FC  
                                      l1674 19B2                                        l1666 16D0  
                                      l2651 296E                                        l1691 18CC  
                                      l1667 1696                                        l1692 18BA  
                                      l2653 2976                                        l2645 295A  
                                      l6101 1662                                        l6021 1500  
                                      l2655 297A                                        l2647 295E  
                                      l6111 16B4                                        l6103 167E  
                                      l6031 1540                                        l6023 150E  
                                      l1792 20BA                                        l2649 296C  
                                      l6201 1952                                        l6121 1700  
                                      l6113 16C2                                        l6105 168E  
                                      l6041 1572                                        l6033 1542  
                                      l6025 1510                                        l4611 221C  
                                      l6211 198C                                        l6203 1972  
                                      l6131 1740                                        l6115 16C4  
                                      l6107 16A4                                        l6051 159A  
                                      l6043 1574                                        l6027 1520  
                                      l6035 154A                                        l6019 14F4  
                                      l1795 2216                                        l4613 222E  
                                      l6213 1992                                        l6205 1976  
                                      l6141 176A                                        l6133 174C  
                                      l6125 1714                                        l6117 16CE  
                                      l6109 16B0                                        l6061 15D4  
                                      l6053 15AA                                        l6045 157A  
                                      l6037 155A                                        l6029 1530  
                                      l6301 1B9A                                        l6221 19B4  
                                      l4623 2316                                        l4615 2250  
                                      l6215 19A0                                        l6207 1984  
                                      l6151 17DC                                        l6135 1750  
                                      l6127 1724                                        l6119 16F0  
                                      l6143 1770                                        l6071 1600  
                                      l6063 15E6                                        l6055 15BA  
                                      l6047 1588                                        l6039 1560  
                                      l6311 1BE2                                        l6303 1BAA  
                                      l6231 19F0                                        l6223 19C0  
                                      l1799 2152                                        l4617 2258  
                                      l4625 2358                                        l4609 2218  
                                      l4641 239C                                        l4633 235C  
                                      l6217 19A2                                        l6209 198A  
                                      l6161 1836                                        l6145 1796  
                                      l6153 17EC                                        l6137 175E  
                                      l6129 1732                                        l6081 1614  
                                      l6073 1604                                        l6065 15F4  
                                      l6057 15BC                                        l6049 158A  
                                      l6321 1C22                                        l6313 1BF0  
                                      l6305 1BBC                                        l6241 1A20  
                                      l6233 1A00                                        l6225 19CE  
                                      l4619 22BA                                        l4643 23FE  
                                      l4635 2360                                        l4731 27FC  
                                      l6171 1866                                        l6163 1840  
                                      l6155 1812                                        l6147 17CA  
                                      l6139 1760                                        l6091 1628  
                                      l6083 1618                                        l6075 1608  
                                      l6067 15F8                                        l6059 15C4  
                                      l6331 1C94                                        l6323 1C50  
                                      l6307 1BD2                                        l6315 1C02  
                                      l6251 1A56                                        l6243 1A26  
                                      l6235 1A02                                        l6227 19D0  
                                      l6411 20E0                                        l6403 2066  
                                      l4637 2372                                        l4741 2858  
                                      l4733 27FC                                        l6181 188E  
                                      l6173 186A                                        l6165 184E  
                                      l6157 1822                                        l6149 17CC  
                                      l6093 162C                                        l6085 161C  
                                      l6077 160C                                        l6069 15FC  
                                      l6341 1D0C                                        l6333 1CBE  
                                      l6317 1C10                                        l6309 1BD8  
                                      l6261 1A96                                        l6253 1A66  
                                      l6245 1A34                                        l6229 19E0  
                                      l6237 1A0A                                        l6421 213A  
                                      l6405 2076                                        l6501 11EA  
                                      l4647 245A                                        l4639 2394  
                                      l4735 280E                                        l4911 2722  
                                      l6191 18E8                                        l6183 189C  
                                      l6175 187A                                        l6167 1850  
                                      l6095 1630                                        l6087 1620  
                                      l6079 1610                                        l6351 1D42  
                                      l6343 1D28                                        l6327 1C7A  
                                      l6335 1CC2                                        l6319 1C14  
                                      l6263 1AA6                                        l6271 1AC6  
                                      l6255 1A68                                        l6247 1A36  
                                      l6239 1A1A                                        l6431 219E  
                                      l6423 213C                                        l6415 20F4  
                                      l6407 2084                                        l6511 13B0  
                                      l6503 124C                                        l4649 2484  
                                      l4737 2830                                        l4921 278A  
                                      l4913 2734                                        l6193 18F6  
                                      l6185 18B2                                        l6169 185E  
                                      l6177 187C                                        l6089 1624  
                                      l6097 1634                                        l6345 1D2C  
                                      l6337 1CDC                                        l6329 1C86  
                                      l6281 1B04                                        l6273 1AD6  
                                      l6265 1AAE                                        l6249 1A46  
                                      l6257 1A70                                        l6361 249E  
                                      l6441 21F6                                        l6433 21BC  
                                      l6425 2148                                        l6417 20FC  
                                      l6409 20CA                                        l6513 1402  
                                      l6505 129E                                        l4739 2838  
                                      l4915 2740                                        l4923 2796  
                                      l6451 2684                                        l6195 1930  
                                      l6179 188A                                        l6099 1638  
                                      l6347 1D3A                                        l6339 1CF2  
                                      l6291 1B4C                                        l6283 1B14  
                                      l6275 1AD6                                        l6267 1AB2  
                                      l6259 1A80                                        l6371 24EE  
                                      l6443 2204                                        l6435 21BE  
                                      l6427 2184                                        l6419 2108  
                                      l6507 12FE                                        l6515 145E  
                                      l6531 28F0                                        l6523 28AC  
                                      l4917 2776                                        l4909 271E  
                                      l6461 26DC                                        l6453 2686  
                                      l6189 18DC                                        l6197 1932  
                                      l6349 1D40                                        l6293 1B60  
                                      l6285 1B24                                        l6381 2518  
                                      l6373 24F2                                        l6365 24B2  
                                      l6445 2206                                        l6437 21C2  
                                      l6429 2190                                        l6509 1350  
                                      l6517 14B4                                        l6533 28F2  
                                      l6525 28AC                                        l6541 2872  
                                      l4919 2778                                        l6471 25A8  
                                      l6463 26F6                                        l6455 26B4  
                                      l6199 1942                                        l6295 1B6E  
                                      l6287 1B34                                        l6279 1AEA  
                                      l6391 2540                                        l6383 2522  
                                      l6375 2500                                        l6367 24DC  
                                      l6359 2488                                        l6439 21E6  
                                      l6535 28F6                                        l6527 28BE  
                                      l6551 287C                                        l6543 2874  
                                      l6481 2628                                        l6473 25AA  
                                      l6465 26FC                                        l6457 26C0  
                                      l6449 266A                                        l6297 1B7A  
                                      l6289 1B3C                                        l6393 254C  
                                      l6385 252C                                        l6369 24DE  
                                      l6529 28CC                                        l6561 289E  
                                      l6553 287E                                        l6545 2876  
                                      l6483 2642                                        l6475 2600  
                                      l6467 2716                                        l6459 26DA  
                                      l6299 1B98                                        l6395 255C  
                                      l6635 147E                                        l6491 1030  
                                      l6555 2886                                        l6547 2878  
                                      l6539 285C                                        l6571 2916  
                                      l6563 28FA                                        l6637 246E  
                                      l6485 2648                                        l6477 260C  
                                      l6469 258E                                        l6397 256C  
                                      l6493 1082                                        l6557 288E  
                                      l6549 287A                                        l6573 291C  
                                      l6565 28FA                                        l6639 2342  
                                      l6487 2662                                        l6479 2626  
                                      l6399 257C                                        l6495 10E4  
                                      l6559 2896                                        l6567 28FE  
                                      l6497 1136                                        l6489 1016  
                                      l6569 290A                                        l6499 1198  
                                      STR_1 1011                                        u1260 296C  
                                      u1261 2968                                        _LATA 000F89  
                                      _LATB 000F8A                                        _LATC 000F8B  
                                      _LATD 000F8C                                        _LATE 000F8D  
                                      u4060 280E                                        u4220 2734  
                                      u4061 280A                                        u4221 2730  
                                      u4070 2830                                        u4071 282C  
                                      u6000 1972                                        u6001 196E  
                                      u6010 1984                                        u4235 2788  
                                      u6011 1980                                        u6020 19A0  
                                      u6100 1AD6                                        u4237 278A  
                                      u6021 199C                                        u6101 1AD2  
                                      u6110 1B4C                                        u6030 19CE  
                                      u6111 1B48                                        u6031 19CA  
                                      u6200 1C66                                        u6120 1B6E  
                                      u6040 19E0                                        u6201 1C62  
                                      u6121 1B6A                                        u6041 19DC  
                                      u6210 1C7A                                        u6130 1B98  
                                      u6050 19F0                                        u6211 1C76  
                                      u6131 1B94                                        u6051 19EC  
                                      u3900 232E                                        u6220 1C94  
                                      u6140 1BBC                                        u6060 1A34  
                                      u6300 253C                                        u3901 2328  
                                      u6221 1C90                                        u6141 1BB8  
                                      u6061 1A30                                        u6301 2538  
                                      u3910 2330                                        u6230 1CDC  
                                      u6150 1BD2                                        u6070 1A46  
                                      u6310 255C                                        u6231 1CD8  
                                      u6151 1BCE                                        u6071 1A42  
                                      u6311 2558                                        u3920 2372  
                                      u6240 1D0C                                        u6160 1BF0  
                                      u6080 1A56                                        u6320 256C  
                                      u6400 21BC                                        u3921 236E  
                                      u6241 1D08                                        u6161 1BEC  
                                      u6081 1A52                                        u6321 2568  
                                      u6401 21B8                                        u3930 2394  
                                      u6250 1D3A                                        u6170 1C10  
                                      u6090 1A96                                        u6410 21F6  
                                      u6330 2076                                        u3931 2390  
                                      u6251 1D36                                        u6171 1C0C  
                                      u6091 1A92                                        u6411 21F2  
                                      u6331 2072                                        u3860 222E  
                                      u6500 2626                                        u5700 15AA  
                                      u6180 1C22                                        u6260 249E  
                                      u6420 2204                                        u6340 2084  
                                      u3861 222A                                        u6501 2622  
                                      u5701 15A6                                        u6181 1C1E  
                                      u6261 249A                                        u6421 2200  
                                      u6341 2080                                        u3870 2250  
                                      u6510 2642                                        u6430 2684  
                                      u5710 15E6                                        u6190 1C50  
                                      u6270 24D2                                        u6350 20E0  
                                      u3871 224C                                        u6511 263E  
                                      u6431 2680                                        u5711 15E2  
                                      u6191 1C4C                                        u6351 20DC  
                                      u3944 23BC                                        u6520 2662  
                                      u6440 26B4                                        u5800 1700  
                                      u5720 15F4                                        u5640 150E  
                                      u6280 2500                                        u6360 2136  
                                      u3945 23B8                                        u6521 265E  
                                      u6441 26B0                                        u5801 16FC  
                                      u5721 15F0                                        u5641 150A  
                                      u6281 24FC                                        u6361 2132  
                                      u3954 241E                                        u6450 26DA  
                                      u5810 1732                                        u5730 1662  
                                      u5650 1520                                        u6290 2514  
                                      u6370 2180                                        u6530 28BE  
                                      u3955 241A                                        u6451 26D6  
                                      u5811 172E                                        u5731 165E  
                                      u5651 151C                                        u6291 2510  
                                      u6275 24C8                                        u6371 217C  
                                      u6531 28BA                                        u3884 2278  
                                      u6460 26F6                                        u5900 187A  
                                      u5820 1740                                        u5740 167A  
                                      u5660 1530                                        u6380 219E  
                                      u3885 2274                                        u6461 26F2  
                                      u5901 1876                                        u5821 173C  
                                      u5741 1674                                        u5661 152C  
                                      u6381 219A                                        u3894 22DA  
                                      u6470 2716                                        u5910 188A  
                                      u5830 175E                                        u5750 167C  
                                      u5670 1572                                        u6390 21AE  
                                      u3895 22D6                                        u6471 2712  
                                      u5911 1886                                        u5831 175A  
                                      u5671 156E                                        u6391 21AA  
                                      u6480 25A8                                        u5920 189C  
                                      u5840 1796                                        u5760 16A4  
                                      u5680 1588                                        u6481 25A4  
                                      u5921 1898                                        u5841 1792  
                                      u5761 16A0                                        u5681 1584  
                                      u6490 2600                                        u5930 18B2  
                                      u5850 17DC                                        u5770 16C2  
                                      u5690 159A                                        u6491 25FC  
                                      u5931 18AE                                        u5851 17D8  
                                      u5771 16BE                                        u5691 1596  
                                      u5940 18C8                                        u5860 1812  
                                      u5780 16E2                                        u5941 18C4  
                                      u5861 180E                                        u5781 16DE  
                                      u5950 18DC                                        u5870 1822  
                                      u5790 16F0                                        u5951 18D8  
                                      u5871 181E                                        u5791 16EC  
                                      u5960 18F6                                        u5880 184E  
                                      u5961 18F2                                        u5881 184A  
                                      u5970 1930                                        u5890 185E  
                                      u5971 192C                                        u5891 185A  
                                      u5980 1942                                        u5981 193E  
                                      u5990 1952                                        u5991 194E  
                  _RB4_InterruptHandler_LOW 009C                                        _led1 006B  
                                      _led2 006A                                        _main 28FA  
      EUSART_ASYNC_WriteByteNonBlocking@ret 0005                    _RB7_InterruptHandler_LOW 0090  
                                      fsr2h 000FDA                                        indf2 000FDF  
                                      fsr1l 000FE1                                        fsr2l 000FD9  
                                      btemp 006C                      __end_of_led_initialize 279A  
                                      prodl 000FF3                                        start 000E  
                           ___fldiv@new_exp 0023                                ___param_bank 000000  
                      _gpio_pin_write_logic 235C                            __end_of_INT0_ISR 2A34  
                          __end_of_INT1_ISR 2A30                            __end_of_INT2_ISR 2A2C  
                             _EUSART_RX_ISR 2A38                               ___fltol@sign1 000C  
                             _EUSART_TX_ISR 292A                             __end_of___fladd 19B4  
                                     ?_main 0001                             __end_of___fldiv 1D4E  
             usart_interrupt_init@usart_obj 00BC                                       _EEADR 000FA9  
                           __end_of___fltol 258E                                       i2l615 2956  
                                     i2l624 2A38                                       i2l459 2A36  
                                     i2l803 2A2A                                       i2l814 2A02  
                                     i2l825 29E8                                       i2l836 29CE  
                                     i2l847 29B4                                       i2l793 2A32  
                                     i2l798 2A2E                                       _RCREG 000FAE  
                       relay_turn_off@F3049 005F                                       _TMR0H 000FD7  
                                     _TMR0L 000FD6                                       _SPBRG 000FAF  
                                     _PORTA 000F80                                       _PORTB 000F81  
                                     _PORTC 000F82                                       _PORTD 000F83  
                                     _PORTE 000F84                                       _TRISA 000F92  
                                     _TRISB 000F93                                       _TRISC 000F94  
                                     _TRISD 000F95                                       _TRISE 000F96  
                                     _TXREG 000FAD                            __end_of_TMR0_ISR 2A22  
                                     pclath 000FFA                                       pclatu 000FFB  
                                     tablat 000FF5                                       ttemp5 006D  
                                     ttemp6 0070                                       ttemp7 0074  
                                     status 000FD8                                       wtemp8 006D  
                           ?_led_initialize 0012              ?_gpio_pin_direction_initialize 0004  
                           __initialization 279A                                __end_of_main 292A  
                     ?_gpio_pin_write_logic 0004                                   ??_ADC_ISR 0001  
                            ?_EUSART_RX_ISR 0001                              ?_EUSART_TX_ISR 0001  
                             _lat_registers 00A8                                      ??_main 004A  
                             __activetblptr 000003                            led_turn_on@F3050 0064  
                                 ??_RB4_ISR 0001                                   ??_RB5_ISR 0001  
                                 ??_RB6_ISR 0001                                   ??_RB7_ISR 0001  
                _EUSART_OverrunErrorHandler 0054                                      _ADRESH 000FC4  
                                    _EEADRH 000FAA                                      _ADRESL 000FC3  
                                    _EEDATA 000FA8                                      _EECON2 000FA7  
                         _EUSART_ASYNC_Init 28AC                                      i2l1010 1E40  
                                    i2l1002 1D78                                      i2l1020 1F94  
                                    i2l1012 1E84                                      i2l1004 1D98  
                                    i2l1022 1FD8                                      i2l1014 1EC8  
                                    i2l1006 1DB8                                      i2l1031 2058  
                                    i2l1120 2A14                                      i2l1024 1FF8  
                                    i2l1016 1F0C                                      i2l1008 1DFC  
                                    i2l1026 2018                                      i2l1018 1F50  
                                    i2l1028 2038                                      i2l1074 2A20  
                                    i2l2629 2A34                                      i2l2665 2A38  
                                    i2l2683 2A2C                                      i2l2677 2A30  
                                    i2l2689 2A28                                      i2l5801 1E26  
                                    i2l4843 2A04                                      i2l4931 293E  
                                    i2l5811 1E6A                                      i2l5803 1E36  
                                    i2l4845 2A12                                      i2l4941 2A02  
                                    i2l4933 29EC                                      i2l5821 1EAE  
                                    i2l5813 1E7A                                      i2l5805 1E3A  
                                    i2l4927 292A                                      i2l4935 29EE  
                                    i2l5831 1EF2                                      i2l5823 1EBE  
                                    i2l5815 1E7E                                      i2l5807 1E4E  
                                    i2l4929 292C                                      i2l4961 29B8  
                                    i2l5841 1F36                                      i2l5833 1F02  
                                    i2l5825 1EC2                                      i2l5817 1E92  
                                    i2l5809 1E5C                                      i2l4955 29E8  
                                    i2l4947 29D2                                      i2l4963 29BA  
                                    i2l5851 1F7A                                      i2l5843 1F46  
                                    i2l5835 1F06                                      i2l5827 1ED6  
                                    i2l5819 1EA0                                      i2l4949 29D4  
                                    i2l5861 1FBE                                      i2l5853 1F8A  
                                    i2l5845 1F4A                                      i2l5837 1F1A  
                                    i2l5829 1EE4                                      i2l5781 1D94  
                                    i2l5773 1D58                                      i2l4983 29B4  
                                    i2l4975 299E                                      i2l4991 2A1C  
                                    i2l5871 2006                                      i2l5863 1FCE  
                                    i2l5855 1F8E                                      i2l5847 1F5E  
                                    i2l5839 1F28                                      i2l5791 1DE2  
                                    i2l5783 1DA6                                      i2l5775 1D66  
                                    i2l4969 29CE                                      i2l4977 29A0  
                                    i2l5881 2054                                      i2l5873 2014  
                                    i2l5865 1FD2                                      i2l5857 1FA2  
                                    i2l5849 1F6C                                      i2l5793 1DF2  
                                    i2l5785 1DB4                                      i2l5777 1D74  
                                    i2l5875 2026                                      i2l5867 1FE6  
                                    i2l5859 1FB0                                      i2l5795 1DF6  
                                    i2l5787 1DC6                                      i2l5779 1D86  
                                    i2l4989 2A16                                      i2l5877 2034  
                                    i2l5869 1FF4                                      i2l5797 1E0A  
                                    i2l5789 1DD4                                      i2l5879 2046  
                                    i2l5799 1E18                                      _SPBRGH 000FB0  
                        ?_EUSART_ASYNC_Init 0047                            __end_of___xxtofl 2218  
                       ??_EUSART_ASYNC_Init 0049                                   ??___fladd 0033  
                                 ??___fldiv 001A                                   ??___fltol 0008  
                                    clear_0 27E0                                      clear_1 27EC  
                     led_initialize@pin_obj 0016                                      _val_rx 008A  
                                    _val_tx 0086                                      isa$std 000001  
                                    _tx_isr 2A04                                __pdataCOMRAM 0066  
                              __mediumconst 0000                                      tblptrh 000FF7  
                                    tblptrl 000FF6                                      tblptru 000FF8  
                 __end_of_EUSART_ASYNC_Init 28FA                __end_of_EUSART_ASYNC_RX_Init 266A  
              __end_of_EUSART_ASYNC_TX_Init 271E                                ___xxtofl@arg 000E  
                              ___xxtofl@exp 000D                                ___xxtofl@val 0004  
                                __accesstop 0080                     __end_of__initialization 27F2  
                                 ?_INT0_ISR 0001                                   ?_INT1_ISR 0001  
                                 ?_INT2_ISR 0001                               ___rparam_used 000001  
                                ___fltol@f1 0004                           led_initialize@led 0012  
                         led_initialize@ret 0015                           RB5_ISR@RB5_Source 0001  
                    ??_gpio_pin_write_logic 0007                              __pcstackCOMRAM 0001  
                              __pidataBANK0 297E                                   ?_TMR0_ISR 0001  
                           ??_EUSART_RX_ISR 0001                             ??_EUSART_TX_ISR 0001  
  gpio_pin_direction_initialize@_pin_config 0004                                  __pbssBANK0 0080  
                     _INT0_InterruptHandler 0052                                  ??_INT0_ISR 0001  
                                ??_INT1_ISR 0001                                  ??_INT2_ISR 0001  
                                ??_TMR0_ISR 0001                           led_turn_off@F3055 0063  
                                   _ADC_ISR 2A34                 EUSART_ASYNC_TX_Init@_eusart 0004  
                                   ?_tx_isr 0001                           RB7_ISR@RB7_Source 0001  
                                   _RB4_ISR 29EA                                     _RB5_ISR 29D0  
                                   _RB6_ISR 29B6                                     _RB7_ISR 299C  
                                 ?___xxtofl 0004                   _RB6_InterruptHandler_HIGH 0096  
                      led_turn_toggle@F3060 0062                            ??_led_initialize 0014  
                                _btn_values 1001                              _tris_registers 00B2  
                  _RB6_InterruptHandler_LOW 0094                __end_of_usart_interrupt_init 28AC  
                      _ADC_InterruptHandler 005C                                     __Hparam 0000  
                                   __Lparam 0000                         _gpio_pin_initialize 27FC  
                                   ___fladd 14F4                                     ___fldiv 19B4  
                                   ___fltol 2488           _EUSART_Baud_Rate_Calculation$3459 0043  
                      EUSART_ASYNC_Init@ret 0049                                __psmallconst 1000  
                      _EUSART_ASYNC_RX_Init 258E                        _EUSART_ASYNC_TX_Init 266A  
                                   __pcinit 279A                                     __ramtop 1000  
                                   __ptext0 28FA                                     __ptext1 285C  
                                   __ptext2 28AC                                     __ptext3 1016  
                                   __ptext4 2064                                     __ptext5 2488  
                                   __ptext6 19B4                                     __ptext7 14F4  
                                   __ptext8 266A                                     __ptext9 258E  
                                 _T0CONbits 000FD5             ??_gpio_pin_direction_initialize 0006  
                                ??___xxtofl 0008  EUSART_Baud_Rate_Calculation@Baud_Rate_Temp 003F  
 __end_of_EUSART_ASYNC_WriteByteNonBlocking 297E         ??_EUSART_ASYNC_WriteByteNonBlocking 0004  
        ?_EUSART_ASYNC_WriteByteNonBlocking 0001           _EUSART_ASYNC_WriteByteNonBlocking 2958  
                      ?_gpio_pin_initialize 000E                              __pintcode_body 1D4E  
                      end_of_initialization 27F2                                     int_func 1D4E  
                                 _RCSTAbits 000FAB                                     postdec1 000FE5  
                                   postdec2 000FDD                                     postinc0 000FEE  
                                   postinc2 000FDE                       ?_EUSART_ASYNC_RX_Init 0004  
                     ?_EUSART_ASYNC_TX_Init 0004                       _INT1_InterruptHandler 0050  
                                 _PORTBbits 000F81                            _InterruptManager 0008  
                               ___fladd@grs 003A                               ___xxtofl@sign 000C  
                                 _TRISCbits 000F94                       ??_gpio_pin_initialize 0010  
                               ___fldiv@grs 0025                                 ___fldiv@rem 001E  
                                 _TXSTAbits 000FAC                          relay_turn_on@F3044 0060  
                  EUSART_ASYNC_Init@_eusart 0047               convert_uint16_to_string@F3215 0080  
                               _BAUDCONbits 000FB8                               __pidataCOMRAM 2A22  
                            _timer0_preload 004A                              __end_of_tx_isr 2A16  
                       start_initialization 279A         EUSART_Baud_Rate_Calculation@_eusart 003B  
                      _usart_interrupt_init 285C       __end_of_gpio_pin_direction_initialize 235C  
             _gpio_pin_direction_initialize 2218        __end_of_EUSART_Baud_Rate_Calculation 14F4  
              _EUSART_Baud_Rate_Calculation 1016                   _EUSART_RxInterruptHandler 0058  
                _EUSART_FramingErrorHandler 0056                      ??_EUSART_ASYNC_RX_Init 0006  
                    ??_EUSART_ASYNC_TX_Init 0006                                 __pdataBANK0 009E  
                                  ?_ADC_ISR 0001                       __end_of_EUSART_RX_ISR 2A3A  
                     __end_of_EUSART_TX_ISR 2958                                    ??_tx_isr 0001  
                                 ___fladd@a 002F                                   ___fladd@b 002B  
                                 ___fldiv@a 0016                                   ___fldiv@b 0012  
                                  ?_RB4_ISR 0001                                    ?_RB5_ISR 0001  
                                  ?_RB6_ISR 0001                                    ?_RB7_ISR 0001  
                               __pbssCOMRAM 004A                       ?_usart_interrupt_init 0001  
                             __pcstackBANK0 00BC                       _INT2_InterruptHandler 004E  
             ?_EUSART_Baud_Rate_Calculation 003B                       _TMR0_InterruptHandler 008E  
                                 __pintcode 0008                                    ?___fladd 002B  
           gpio_pin_write_logic@_pin_config 0004                                    ?___fldiv 0012  
                                  ?___fltol 0004                   gpio_pin_write_logic@logic 0006  
                               __smallconst 1000                   _RB4_InterruptHandler_HIGH 004C  
                 _RB7_InterruptHandler_HIGH 0092                    _RB5_InterruptHandler_LOW 0098  
                                  _INT0_ISR 2A30                                    _INT1_ISR 2A2C  
                                  _INT2_ISR 2A28                                    _RB4_Flag 0069  
                                  _RB5_Flag 0068                                    _RB6_Flag 0067  
                                  _RB7_Flag 0066                           RB4_ISR@RB4_Source 0001  
                  __end_of_InterruptManager 2064                                    _PIE1bits 000F9D  
                                  i2u510_40 1D74                                    i2u510_41 1D70  
                                  i2u511_40 1D86                                    i2u511_41 1D82  
                                  i2u424_40 293E                                    i2u520_40 1E18  
                                  i2u512_40 1D94                                    i2u424_41 293A  
                                  i2u520_41 1E14                                    i2u512_41 1D90  
                                  i2u521_40 1E26                                    i2u513_40 1DA6  
                                  i2u521_41 1E22                                    i2u513_41 1DA2  
                                  _PIR1bits 000F9E                                    i2u425_48 2944  
                                  i2u426_40 29FE                                    i2u530_40 1EBE  
                                  i2u522_40 1E36                                    i2u514_40 1DB4  
                                  i2u425_49 2956                                    i2u426_41 29FA  
                                  i2u530_41 1EBA                                    i2u522_41 1E32  
                                  i2u514_41 1DB0                                    i2u427_40 29E4  
                                  i2u531_40 1ED6                                    i2u523_40 1E4E  
                                  i2u515_40 1DC6                                    i2u427_41 29E0  
                                  i2u531_41 1ED2                                    i2u523_41 1E4A  
                                  i2u515_41 1DC2                                    i2u428_40 29CA  
                                  i2u540_40 1F6C                                    i2u532_40 1EE4  
                                  i2u524_40 1E5C                                    i2u516_40 1DD4  
                                  i2u428_41 29C6                                    i2u540_41 1F68  
                                  i2u532_41 1EE0                                    i2u524_41 1E58  
                                  i2u516_41 1DD0                                    i2u429_40 29B0  
                                  i2u541_40 1F7A                                    i2u533_40 1EF2  
                                  i2u525_40 1E6A                                    i2u517_40 1DE2  
                                  i2u509_40 1D66                                    i2u429_41 29AC  
                                  i2u541_41 1F76                                    i2u533_41 1EEE  
                                  i2u525_41 1E66                                    i2u517_41 1DDE  
                                  i2u509_41 1D62                                    i2u550_40 2014  
                                  i2u542_40 1F8A                                    i2u534_40 1F02  
                                  i2u526_40 1E7A                                    i2u518_40 1DF2  
                                  i2u550_41 2010                                    i2u542_41 1F86  
                                  i2u534_41 1EFE                                    i2u526_41 1E76  
                                  i2u518_41 1DEE                                    i2u551_40 2026  
                                  i2u543_40 1FA2                                    i2u535_40 1F1A  
                                  i2u527_40 1E92                                    i2u519_40 1E0A  
                                  i2u551_41 2022                                    i2u543_41 1F9E  
                                  i2u535_41 1F16                                    i2u527_41 1E8E  
                                  i2u519_41 1E06                                    i2u552_40 2034  
                                  i2u544_40 1FB0                                    i2u536_40 1F28  
                                  i2u528_40 1EA0                                    i2u552_41 2030  
                                  i2u544_41 1FAC                                    i2u536_41 1F24  
                                  i2u528_41 1E9C                                    i2u553_40 2046  
                                  i2u545_40 1FBE                                    i2u537_40 1F36  
                                  i2u529_40 1EAE                                    i2u553_41 2042  
                                  i2u545_41 1FBA                                    i2u537_41 1F32  
                                  i2u529_41 1EAA                                    i2u554_40 2054  
                                  i2u546_40 1FCE                                    i2u538_40 1F46  
                                  i2u554_41 2050                                    i2u546_41 1FCA  
                                  i2u538_41 1F42                                    i2u547_40 1FE6  
                                  i2u539_40 1F5E                                    i2u547_41 1FE2  
                                  i2u539_41 1F5A                                    i2u548_40 1FF4  
                                  i2u548_41 1FF0                                    i2u549_40 2006  
                                  i2u549_41 2002            gpio_pin_direction_initialize@ret 000C  
                                  _TMR0_ISR 2A16                                  _ADCON0bits 000FC2  
                                _ADCON1bits 000FC1                                  _ADCON2bits 000FC0  
                    ??_usart_interrupt_init 004A                                   fp__tx_isr 0000  
                    gpio_pin_initialize@ret 0011                     gpio_pin_write_logic@ret 000D  
                               _INTCON2bits 000FF1                                 _INTCON3bits 000FF0  
                                 copy_data0 27AE                                   copy_data1 27CE  
                                _EECON1bits 000FA6                                    __Hrparam 0000  
                                  __Lrparam 0000      EUSART_ASYNC_WriteByteNonBlocking@_data 0004  
            ??_EUSART_Baud_Rate_Calculation 003D                 EUSART_ASYNC_RX_Init@_eusart 0004  
                         RB6_ISR@RB6_Source 0001                 __end_of_gpio_pin_initialize 285C  
                        __end_of_btn_values 1011              gpio_pin_initialize@_pin_config 000E  
                                  ___xxtofl 2064                                    __ptext10 271E  
                                  __ptext11 27FC                                    __ptext20 29EA  
                                  __ptext12 235C                                    __ptext21 2A28  
                                  __ptext13 2218                                    __ptext22 2A2C  
                                  __ptext14 2958                                    __ptext23 2A30  
                                  __ptext24 292A                                    __ptext16 2A16  
                                  __ptext25 2A04                                    __ptext17 299C  
                                  __ptext26 2A38                                    __ptext18 29B6  
                                  __ptext27 2A34                                    __ptext19 29D0  
                                  __ptext28 0000                                    _rec_data 005E  
                                  isa$xinst 000000                                    int$flags 006C  
                                _INTCONbits 000FF2                __end_of_gpio_pin_write_logic 2488  
                                  intlevel2 0000                   _EUSART_TxInterruptHandler 005A  
                            _port_registers 009E                               ___fladd@signs 0037  
                              ___fladd@aexp 0038                                ___fladd@bexp 0039  
                         ?_InterruptManager 0001                              _led_initialize 271E  
